00000000  7F45              jg 0x47
00000002  4C                dec esp
00000003  46                inc esi
00000004  0101              add [ecx],eax
00000006  0100              add [eax],eax
00000008  0000              add [eax],al
0000000A  0000              add [eax],al
0000000C  0000              add [eax],al
0000000E  0000              add [eax],al
00000010  0200              add al,[eax]
00000012  0300              add eax,[eax]
00000014  0100              add [eax],eax
00000016  0000              add [eax],al
00000018  3000              xor [eax],al
0000001A  1000              adc [eax],al
0000001C  3400              xor al,0x0
0000001E  0000              add [eax],al
00000020  A4                movsb
00000021  50                push eax
00000022  0000              add [eax],al
00000024  0000              add [eax],al
00000026  0000              add [eax],al
00000028  3400              xor al,0x0
0000002A  2000              and [eax],al
0000002C  0400              add al,0x0
0000002E  2800              sub [eax],al
00000030  0F000E            str [esi]
00000033  0001              add [ecx],al
00000035  0000              add [eax],al
00000037  0000              add [eax],al
00000039  1000              adc [eax],al
0000003B  0000              add [eax],al
0000003D  0010              add [eax],dl
0000003F  0000              add [eax],al
00000041  0010              add [eax],dl
00000043  003B              add [ebx],bh
00000045  1000              adc [eax],al
00000047  003B              add [ebx],bh
00000049  1000              adc [eax],al
0000004B  000500000000      add [dword 0x0],al
00000051  1000              adc [eax],al
00000053  0001              add [ecx],al
00000055  0000              add [eax],al
00000057  0000              add [eax],al
00000059  3000              xor [eax],al
0000005B  0000              add [eax],al
0000005D  2010              and [eax],dl
0000005F  0000              add [eax],al
00000061  2010              and [eax],dl
00000063  00E4              add ah,ah
00000065  0400              add al,0x0
00000067  00E4              add ah,ah
00000069  0400              add al,0x0
0000006B  000400            add [eax+eax],al
0000006E  0000              add [eax],al
00000070  0010              add [eax],dl
00000072  0000              add [eax],al
00000074  0100              add [eax],eax
00000076  0000              add [eax],al
00000078  004000            add [eax+0x0],al
0000007B  0000              add [eax],al
0000007D  3010              xor [eax],dl
0000007F  0000              add [eax],al
00000081  3010              xor [eax],dl
00000083  00940000000450    add [eax+eax+0x50040000],dl
0000008A  0200              add al,[eax]
0000008C  06                push es
0000008D  0000              add [eax],al
0000008F  0000              add [eax],al
00000091  1000              adc [eax],al
00000093  0051E5            add [ecx-0x1b],dl
00000096  7464              jz 0xfc
00000098  0000              add [eax],al
0000009A  0000              add [eax],al
0000009C  0000              add [eax],al
0000009E  0000              add [eax],al
000000A0  0000              add [eax],al
000000A2  0000              add [eax],al
000000A4  0000              add [eax],al
000000A6  0000              add [eax],al
000000A8  0000              add [eax],al
000000AA  0000              add [eax],al
000000AC  06                push es
000000AD  0000              add [eax],al
000000AF  0010              add [eax],dl
000000B1  0000              add [eax],al
000000B3  0000              add [eax],al
000000B5  0000              add [eax],al
000000B7  0000              add [eax],al
000000B9  0000              add [eax],al
000000BB  0000              add [eax],al
000000BD  0000              add [eax],al
000000BF  0000              add [eax],al
000000C1  0000              add [eax],al
000000C3  0000              add [eax],al
000000C5  0000              add [eax],al
000000C7  0000              add [eax],al
000000C9  0000              add [eax],al
000000CB  0000              add [eax],al
000000CD  0000              add [eax],al
000000CF  0000              add [eax],al
000000D1  0000              add [eax],al
000000D3  0000              add [eax],al
000000D5  0000              add [eax],al
000000D7  0000              add [eax],al
000000D9  0000              add [eax],al
000000DB  0000              add [eax],al
000000DD  0000              add [eax],al
000000DF  0000              add [eax],al
000000E1  0000              add [eax],al
000000E3  0000              add [eax],al
000000E5  0000              add [eax],al
000000E7  0000              add [eax],al
000000E9  0000              add [eax],al
000000EB  0000              add [eax],al
000000ED  0000              add [eax],al
000000EF  0000              add [eax],al
000000F1  0000              add [eax],al
000000F3  0000              add [eax],al
000000F5  0000              add [eax],al
000000F7  0000              add [eax],al
000000F9  0000              add [eax],al
000000FB  0000              add [eax],al
000000FD  0000              add [eax],al
000000FF  0000              add [eax],al
00000101  0000              add [eax],al
00000103  0000              add [eax],al
00000105  0000              add [eax],al
00000107  0000              add [eax],al
00000109  0000              add [eax],al
0000010B  0000              add [eax],al
0000010D  0000              add [eax],al
0000010F  0000              add [eax],al
00000111  0000              add [eax],al
00000113  0000              add [eax],al
00000115  0000              add [eax],al
00000117  0000              add [eax],al
00000119  0000              add [eax],al
0000011B  0000              add [eax],al
0000011D  0000              add [eax],al
0000011F  0000              add [eax],al
00000121  0000              add [eax],al
00000123  0000              add [eax],al
00000125  0000              add [eax],al
00000127  0000              add [eax],al
00000129  0000              add [eax],al
0000012B  0000              add [eax],al
0000012D  0000              add [eax],al
0000012F  0000              add [eax],al
00000131  0000              add [eax],al
00000133  0000              add [eax],al
00000135  0000              add [eax],al
00000137  0000              add [eax],al
00000139  0000              add [eax],al
0000013B  0000              add [eax],al
0000013D  0000              add [eax],al
0000013F  0000              add [eax],al
00000141  0000              add [eax],al
00000143  0000              add [eax],al
00000145  0000              add [eax],al
00000147  0000              add [eax],al
00000149  0000              add [eax],al
0000014B  0000              add [eax],al
0000014D  0000              add [eax],al
0000014F  0000              add [eax],al
00000151  0000              add [eax],al
00000153  0000              add [eax],al
00000155  0000              add [eax],al
00000157  0000              add [eax],al
00000159  0000              add [eax],al
0000015B  0000              add [eax],al
0000015D  0000              add [eax],al
0000015F  0000              add [eax],al
00000161  0000              add [eax],al
00000163  0000              add [eax],al
00000165  0000              add [eax],al
00000167  0000              add [eax],al
00000169  0000              add [eax],al
0000016B  0000              add [eax],al
0000016D  0000              add [eax],al
0000016F  0000              add [eax],al
00000171  0000              add [eax],al
00000173  0000              add [eax],al
00000175  0000              add [eax],al
00000177  0000              add [eax],al
00000179  0000              add [eax],al
0000017B  0000              add [eax],al
0000017D  0000              add [eax],al
0000017F  0000              add [eax],al
00000181  0000              add [eax],al
00000183  0000              add [eax],al
00000185  0000              add [eax],al
00000187  0000              add [eax],al
00000189  0000              add [eax],al
0000018B  0000              add [eax],al
0000018D  0000              add [eax],al
0000018F  0000              add [eax],al
00000191  0000              add [eax],al
00000193  0000              add [eax],al
00000195  0000              add [eax],al
00000197  0000              add [eax],al
00000199  0000              add [eax],al
0000019B  0000              add [eax],al
0000019D  0000              add [eax],al
0000019F  0000              add [eax],al
000001A1  0000              add [eax],al
000001A3  0000              add [eax],al
000001A5  0000              add [eax],al
000001A7  0000              add [eax],al
000001A9  0000              add [eax],al
000001AB  0000              add [eax],al
000001AD  0000              add [eax],al
000001AF  0000              add [eax],al
000001B1  0000              add [eax],al
000001B3  0000              add [eax],al
000001B5  0000              add [eax],al
000001B7  0000              add [eax],al
000001B9  0000              add [eax],al
000001BB  0000              add [eax],al
000001BD  0000              add [eax],al
000001BF  0000              add [eax],al
000001C1  0000              add [eax],al
000001C3  0000              add [eax],al
000001C5  0000              add [eax],al
000001C7  0000              add [eax],al
000001C9  0000              add [eax],al
000001CB  0000              add [eax],al
000001CD  0000              add [eax],al
000001CF  0000              add [eax],al
000001D1  0000              add [eax],al
000001D3  0000              add [eax],al
000001D5  0000              add [eax],al
000001D7  0000              add [eax],al
000001D9  0000              add [eax],al
000001DB  0000              add [eax],al
000001DD  0000              add [eax],al
000001DF  0000              add [eax],al
000001E1  0000              add [eax],al
000001E3  0000              add [eax],al
000001E5  0000              add [eax],al
000001E7  0000              add [eax],al
000001E9  0000              add [eax],al
000001EB  0000              add [eax],al
000001ED  0000              add [eax],al
000001EF  0000              add [eax],al
000001F1  0000              add [eax],al
000001F3  0000              add [eax],al
000001F5  0000              add [eax],al
000001F7  0000              add [eax],al
000001F9  0000              add [eax],al
000001FB  0000              add [eax],al
000001FD  0000              add [eax],al
000001FF  0000              add [eax],al
00000201  0000              add [eax],al
00000203  0000              add [eax],al
00000205  0000              add [eax],al
00000207  0000              add [eax],al
00000209  0000              add [eax],al
0000020B  0000              add [eax],al
0000020D  0000              add [eax],al
0000020F  0000              add [eax],al
00000211  0000              add [eax],al
00000213  0000              add [eax],al
00000215  0000              add [eax],al
00000217  0000              add [eax],al
00000219  0000              add [eax],al
0000021B  0000              add [eax],al
0000021D  0000              add [eax],al
0000021F  0000              add [eax],al
00000221  0000              add [eax],al
00000223  0000              add [eax],al
00000225  0000              add [eax],al
00000227  0000              add [eax],al
00000229  0000              add [eax],al
0000022B  0000              add [eax],al
0000022D  0000              add [eax],al
0000022F  0000              add [eax],al
00000231  0000              add [eax],al
00000233  0000              add [eax],al
00000235  0000              add [eax],al
00000237  0000              add [eax],al
00000239  0000              add [eax],al
0000023B  0000              add [eax],al
0000023D  0000              add [eax],al
0000023F  0000              add [eax],al
00000241  0000              add [eax],al
00000243  0000              add [eax],al
00000245  0000              add [eax],al
00000247  0000              add [eax],al
00000249  0000              add [eax],al
0000024B  0000              add [eax],al
0000024D  0000              add [eax],al
0000024F  0000              add [eax],al
00000251  0000              add [eax],al
00000253  0000              add [eax],al
00000255  0000              add [eax],al
00000257  0000              add [eax],al
00000259  0000              add [eax],al
0000025B  0000              add [eax],al
0000025D  0000              add [eax],al
0000025F  0000              add [eax],al
00000261  0000              add [eax],al
00000263  0000              add [eax],al
00000265  0000              add [eax],al
00000267  0000              add [eax],al
00000269  0000              add [eax],al
0000026B  0000              add [eax],al
0000026D  0000              add [eax],al
0000026F  0000              add [eax],al
00000271  0000              add [eax],al
00000273  0000              add [eax],al
00000275  0000              add [eax],al
00000277  0000              add [eax],al
00000279  0000              add [eax],al
0000027B  0000              add [eax],al
0000027D  0000              add [eax],al
0000027F  0000              add [eax],al
00000281  0000              add [eax],al
00000283  0000              add [eax],al
00000285  0000              add [eax],al
00000287  0000              add [eax],al
00000289  0000              add [eax],al
0000028B  0000              add [eax],al
0000028D  0000              add [eax],al
0000028F  0000              add [eax],al
00000291  0000              add [eax],al
00000293  0000              add [eax],al
00000295  0000              add [eax],al
00000297  0000              add [eax],al
00000299  0000              add [eax],al
0000029B  0000              add [eax],al
0000029D  0000              add [eax],al
0000029F  0000              add [eax],al
000002A1  0000              add [eax],al
000002A3  0000              add [eax],al
000002A5  0000              add [eax],al
000002A7  0000              add [eax],al
000002A9  0000              add [eax],al
000002AB  0000              add [eax],al
000002AD  0000              add [eax],al
000002AF  0000              add [eax],al
000002B1  0000              add [eax],al
000002B3  0000              add [eax],al
000002B5  0000              add [eax],al
000002B7  0000              add [eax],al
000002B9  0000              add [eax],al
000002BB  0000              add [eax],al
000002BD  0000              add [eax],al
000002BF  0000              add [eax],al
000002C1  0000              add [eax],al
000002C3  0000              add [eax],al
000002C5  0000              add [eax],al
000002C7  0000              add [eax],al
000002C9  0000              add [eax],al
000002CB  0000              add [eax],al
000002CD  0000              add [eax],al
000002CF  0000              add [eax],al
000002D1  0000              add [eax],al
000002D3  0000              add [eax],al
000002D5  0000              add [eax],al
000002D7  0000              add [eax],al
000002D9  0000              add [eax],al
000002DB  0000              add [eax],al
000002DD  0000              add [eax],al
000002DF  0000              add [eax],al
000002E1  0000              add [eax],al
000002E3  0000              add [eax],al
000002E5  0000              add [eax],al
000002E7  0000              add [eax],al
000002E9  0000              add [eax],al
000002EB  0000              add [eax],al
000002ED  0000              add [eax],al
000002EF  0000              add [eax],al
000002F1  0000              add [eax],al
000002F3  0000              add [eax],al
000002F5  0000              add [eax],al
000002F7  0000              add [eax],al
000002F9  0000              add [eax],al
000002FB  0000              add [eax],al
000002FD  0000              add [eax],al
000002FF  0000              add [eax],al
00000301  0000              add [eax],al
00000303  0000              add [eax],al
00000305  0000              add [eax],al
00000307  0000              add [eax],al
00000309  0000              add [eax],al
0000030B  0000              add [eax],al
0000030D  0000              add [eax],al
0000030F  0000              add [eax],al
00000311  0000              add [eax],al
00000313  0000              add [eax],al
00000315  0000              add [eax],al
00000317  0000              add [eax],al
00000319  0000              add [eax],al
0000031B  0000              add [eax],al
0000031D  0000              add [eax],al
0000031F  0000              add [eax],al
00000321  0000              add [eax],al
00000323  0000              add [eax],al
00000325  0000              add [eax],al
00000327  0000              add [eax],al
00000329  0000              add [eax],al
0000032B  0000              add [eax],al
0000032D  0000              add [eax],al
0000032F  0000              add [eax],al
00000331  0000              add [eax],al
00000333  0000              add [eax],al
00000335  0000              add [eax],al
00000337  0000              add [eax],al
00000339  0000              add [eax],al
0000033B  0000              add [eax],al
0000033D  0000              add [eax],al
0000033F  0000              add [eax],al
00000341  0000              add [eax],al
00000343  0000              add [eax],al
00000345  0000              add [eax],al
00000347  0000              add [eax],al
00000349  0000              add [eax],al
0000034B  0000              add [eax],al
0000034D  0000              add [eax],al
0000034F  0000              add [eax],al
00000351  0000              add [eax],al
00000353  0000              add [eax],al
00000355  0000              add [eax],al
00000357  0000              add [eax],al
00000359  0000              add [eax],al
0000035B  0000              add [eax],al
0000035D  0000              add [eax],al
0000035F  0000              add [eax],al
00000361  0000              add [eax],al
00000363  0000              add [eax],al
00000365  0000              add [eax],al
00000367  0000              add [eax],al
00000369  0000              add [eax],al
0000036B  0000              add [eax],al
0000036D  0000              add [eax],al
0000036F  0000              add [eax],al
00000371  0000              add [eax],al
00000373  0000              add [eax],al
00000375  0000              add [eax],al
00000377  0000              add [eax],al
00000379  0000              add [eax],al
0000037B  0000              add [eax],al
0000037D  0000              add [eax],al
0000037F  0000              add [eax],al
00000381  0000              add [eax],al
00000383  0000              add [eax],al
00000385  0000              add [eax],al
00000387  0000              add [eax],al
00000389  0000              add [eax],al
0000038B  0000              add [eax],al
0000038D  0000              add [eax],al
0000038F  0000              add [eax],al
00000391  0000              add [eax],al
00000393  0000              add [eax],al
00000395  0000              add [eax],al
00000397  0000              add [eax],al
00000399  0000              add [eax],al
0000039B  0000              add [eax],al
0000039D  0000              add [eax],al
0000039F  0000              add [eax],al
000003A1  0000              add [eax],al
000003A3  0000              add [eax],al
000003A5  0000              add [eax],al
000003A7  0000              add [eax],al
000003A9  0000              add [eax],al
000003AB  0000              add [eax],al
000003AD  0000              add [eax],al
000003AF  0000              add [eax],al
000003B1  0000              add [eax],al
000003B3  0000              add [eax],al
000003B5  0000              add [eax],al
000003B7  0000              add [eax],al
000003B9  0000              add [eax],al
000003BB  0000              add [eax],al
000003BD  0000              add [eax],al
000003BF  0000              add [eax],al
000003C1  0000              add [eax],al
000003C3  0000              add [eax],al
000003C5  0000              add [eax],al
000003C7  0000              add [eax],al
000003C9  0000              add [eax],al
000003CB  0000              add [eax],al
000003CD  0000              add [eax],al
000003CF  0000              add [eax],al
000003D1  0000              add [eax],al
000003D3  0000              add [eax],al
000003D5  0000              add [eax],al
000003D7  0000              add [eax],al
000003D9  0000              add [eax],al
000003DB  0000              add [eax],al
000003DD  0000              add [eax],al
000003DF  0000              add [eax],al
000003E1  0000              add [eax],al
000003E3  0000              add [eax],al
000003E5  0000              add [eax],al
000003E7  0000              add [eax],al
000003E9  0000              add [eax],al
000003EB  0000              add [eax],al
000003ED  0000              add [eax],al
000003EF  0000              add [eax],al
000003F1  0000              add [eax],al
000003F3  0000              add [eax],al
000003F5  0000              add [eax],al
000003F7  0000              add [eax],al
000003F9  0000              add [eax],al
000003FB  0000              add [eax],al
000003FD  0000              add [eax],al
000003FF  0000              add [eax],al
00000401  0000              add [eax],al
00000403  0000              add [eax],al
00000405  0000              add [eax],al
00000407  0000              add [eax],al
00000409  0000              add [eax],al
0000040B  0000              add [eax],al
0000040D  0000              add [eax],al
0000040F  0000              add [eax],al
00000411  0000              add [eax],al
00000413  0000              add [eax],al
00000415  0000              add [eax],al
00000417  0000              add [eax],al
00000419  0000              add [eax],al
0000041B  0000              add [eax],al
0000041D  0000              add [eax],al
0000041F  0000              add [eax],al
00000421  0000              add [eax],al
00000423  0000              add [eax],al
00000425  0000              add [eax],al
00000427  0000              add [eax],al
00000429  0000              add [eax],al
0000042B  0000              add [eax],al
0000042D  0000              add [eax],al
0000042F  0000              add [eax],al
00000431  0000              add [eax],al
00000433  0000              add [eax],al
00000435  0000              add [eax],al
00000437  0000              add [eax],al
00000439  0000              add [eax],al
0000043B  0000              add [eax],al
0000043D  0000              add [eax],al
0000043F  0000              add [eax],al
00000441  0000              add [eax],al
00000443  0000              add [eax],al
00000445  0000              add [eax],al
00000447  0000              add [eax],al
00000449  0000              add [eax],al
0000044B  0000              add [eax],al
0000044D  0000              add [eax],al
0000044F  0000              add [eax],al
00000451  0000              add [eax],al
00000453  0000              add [eax],al
00000455  0000              add [eax],al
00000457  0000              add [eax],al
00000459  0000              add [eax],al
0000045B  0000              add [eax],al
0000045D  0000              add [eax],al
0000045F  0000              add [eax],al
00000461  0000              add [eax],al
00000463  0000              add [eax],al
00000465  0000              add [eax],al
00000467  0000              add [eax],al
00000469  0000              add [eax],al
0000046B  0000              add [eax],al
0000046D  0000              add [eax],al
0000046F  0000              add [eax],al
00000471  0000              add [eax],al
00000473  0000              add [eax],al
00000475  0000              add [eax],al
00000477  0000              add [eax],al
00000479  0000              add [eax],al
0000047B  0000              add [eax],al
0000047D  0000              add [eax],al
0000047F  0000              add [eax],al
00000481  0000              add [eax],al
00000483  0000              add [eax],al
00000485  0000              add [eax],al
00000487  0000              add [eax],al
00000489  0000              add [eax],al
0000048B  0000              add [eax],al
0000048D  0000              add [eax],al
0000048F  0000              add [eax],al
00000491  0000              add [eax],al
00000493  0000              add [eax],al
00000495  0000              add [eax],al
00000497  0000              add [eax],al
00000499  0000              add [eax],al
0000049B  0000              add [eax],al
0000049D  0000              add [eax],al
0000049F  0000              add [eax],al
000004A1  0000              add [eax],al
000004A3  0000              add [eax],al
000004A5  0000              add [eax],al
000004A7  0000              add [eax],al
000004A9  0000              add [eax],al
000004AB  0000              add [eax],al
000004AD  0000              add [eax],al
000004AF  0000              add [eax],al
000004B1  0000              add [eax],al
000004B3  0000              add [eax],al
000004B5  0000              add [eax],al
000004B7  0000              add [eax],al
000004B9  0000              add [eax],al
000004BB  0000              add [eax],al
000004BD  0000              add [eax],al
000004BF  0000              add [eax],al
000004C1  0000              add [eax],al
000004C3  0000              add [eax],al
000004C5  0000              add [eax],al
000004C7  0000              add [eax],al
000004C9  0000              add [eax],al
000004CB  0000              add [eax],al
000004CD  0000              add [eax],al
000004CF  0000              add [eax],al
000004D1  0000              add [eax],al
000004D3  0000              add [eax],al
000004D5  0000              add [eax],al
000004D7  0000              add [eax],al
000004D9  0000              add [eax],al
000004DB  0000              add [eax],al
000004DD  0000              add [eax],al
000004DF  0000              add [eax],al
000004E1  0000              add [eax],al
000004E3  0000              add [eax],al
000004E5  0000              add [eax],al
000004E7  0000              add [eax],al
000004E9  0000              add [eax],al
000004EB  0000              add [eax],al
000004ED  0000              add [eax],al
000004EF  0000              add [eax],al
000004F1  0000              add [eax],al
000004F3  0000              add [eax],al
000004F5  0000              add [eax],al
000004F7  0000              add [eax],al
000004F9  0000              add [eax],al
000004FB  0000              add [eax],al
000004FD  0000              add [eax],al
000004FF  0000              add [eax],al
00000501  0000              add [eax],al
00000503  0000              add [eax],al
00000505  0000              add [eax],al
00000507  0000              add [eax],al
00000509  0000              add [eax],al
0000050B  0000              add [eax],al
0000050D  0000              add [eax],al
0000050F  0000              add [eax],al
00000511  0000              add [eax],al
00000513  0000              add [eax],al
00000515  0000              add [eax],al
00000517  0000              add [eax],al
00000519  0000              add [eax],al
0000051B  0000              add [eax],al
0000051D  0000              add [eax],al
0000051F  0000              add [eax],al
00000521  0000              add [eax],al
00000523  0000              add [eax],al
00000525  0000              add [eax],al
00000527  0000              add [eax],al
00000529  0000              add [eax],al
0000052B  0000              add [eax],al
0000052D  0000              add [eax],al
0000052F  0000              add [eax],al
00000531  0000              add [eax],al
00000533  0000              add [eax],al
00000535  0000              add [eax],al
00000537  0000              add [eax],al
00000539  0000              add [eax],al
0000053B  0000              add [eax],al
0000053D  0000              add [eax],al
0000053F  0000              add [eax],al
00000541  0000              add [eax],al
00000543  0000              add [eax],al
00000545  0000              add [eax],al
00000547  0000              add [eax],al
00000549  0000              add [eax],al
0000054B  0000              add [eax],al
0000054D  0000              add [eax],al
0000054F  0000              add [eax],al
00000551  0000              add [eax],al
00000553  0000              add [eax],al
00000555  0000              add [eax],al
00000557  0000              add [eax],al
00000559  0000              add [eax],al
0000055B  0000              add [eax],al
0000055D  0000              add [eax],al
0000055F  0000              add [eax],al
00000561  0000              add [eax],al
00000563  0000              add [eax],al
00000565  0000              add [eax],al
00000567  0000              add [eax],al
00000569  0000              add [eax],al
0000056B  0000              add [eax],al
0000056D  0000              add [eax],al
0000056F  0000              add [eax],al
00000571  0000              add [eax],al
00000573  0000              add [eax],al
00000575  0000              add [eax],al
00000577  0000              add [eax],al
00000579  0000              add [eax],al
0000057B  0000              add [eax],al
0000057D  0000              add [eax],al
0000057F  0000              add [eax],al
00000581  0000              add [eax],al
00000583  0000              add [eax],al
00000585  0000              add [eax],al
00000587  0000              add [eax],al
00000589  0000              add [eax],al
0000058B  0000              add [eax],al
0000058D  0000              add [eax],al
0000058F  0000              add [eax],al
00000591  0000              add [eax],al
00000593  0000              add [eax],al
00000595  0000              add [eax],al
00000597  0000              add [eax],al
00000599  0000              add [eax],al
0000059B  0000              add [eax],al
0000059D  0000              add [eax],al
0000059F  0000              add [eax],al
000005A1  0000              add [eax],al
000005A3  0000              add [eax],al
000005A5  0000              add [eax],al
000005A7  0000              add [eax],al
000005A9  0000              add [eax],al
000005AB  0000              add [eax],al
000005AD  0000              add [eax],al
000005AF  0000              add [eax],al
000005B1  0000              add [eax],al
000005B3  0000              add [eax],al
000005B5  0000              add [eax],al
000005B7  0000              add [eax],al
000005B9  0000              add [eax],al
000005BB  0000              add [eax],al
000005BD  0000              add [eax],al
000005BF  0000              add [eax],al
000005C1  0000              add [eax],al
000005C3  0000              add [eax],al
000005C5  0000              add [eax],al
000005C7  0000              add [eax],al
000005C9  0000              add [eax],al
000005CB  0000              add [eax],al
000005CD  0000              add [eax],al
000005CF  0000              add [eax],al
000005D1  0000              add [eax],al
000005D3  0000              add [eax],al
000005D5  0000              add [eax],al
000005D7  0000              add [eax],al
000005D9  0000              add [eax],al
000005DB  0000              add [eax],al
000005DD  0000              add [eax],al
000005DF  0000              add [eax],al
000005E1  0000              add [eax],al
000005E3  0000              add [eax],al
000005E5  0000              add [eax],al
000005E7  0000              add [eax],al
000005E9  0000              add [eax],al
000005EB  0000              add [eax],al
000005ED  0000              add [eax],al
000005EF  0000              add [eax],al
000005F1  0000              add [eax],al
000005F3  0000              add [eax],al
000005F5  0000              add [eax],al
000005F7  0000              add [eax],al
000005F9  0000              add [eax],al
000005FB  0000              add [eax],al
000005FD  0000              add [eax],al
000005FF  0000              add [eax],al
00000601  0000              add [eax],al
00000603  0000              add [eax],al
00000605  0000              add [eax],al
00000607  0000              add [eax],al
00000609  0000              add [eax],al
0000060B  0000              add [eax],al
0000060D  0000              add [eax],al
0000060F  0000              add [eax],al
00000611  0000              add [eax],al
00000613  0000              add [eax],al
00000615  0000              add [eax],al
00000617  0000              add [eax],al
00000619  0000              add [eax],al
0000061B  0000              add [eax],al
0000061D  0000              add [eax],al
0000061F  0000              add [eax],al
00000621  0000              add [eax],al
00000623  0000              add [eax],al
00000625  0000              add [eax],al
00000627  0000              add [eax],al
00000629  0000              add [eax],al
0000062B  0000              add [eax],al
0000062D  0000              add [eax],al
0000062F  0000              add [eax],al
00000631  0000              add [eax],al
00000633  0000              add [eax],al
00000635  0000              add [eax],al
00000637  0000              add [eax],al
00000639  0000              add [eax],al
0000063B  0000              add [eax],al
0000063D  0000              add [eax],al
0000063F  0000              add [eax],al
00000641  0000              add [eax],al
00000643  0000              add [eax],al
00000645  0000              add [eax],al
00000647  0000              add [eax],al
00000649  0000              add [eax],al
0000064B  0000              add [eax],al
0000064D  0000              add [eax],al
0000064F  0000              add [eax],al
00000651  0000              add [eax],al
00000653  0000              add [eax],al
00000655  0000              add [eax],al
00000657  0000              add [eax],al
00000659  0000              add [eax],al
0000065B  0000              add [eax],al
0000065D  0000              add [eax],al
0000065F  0000              add [eax],al
00000661  0000              add [eax],al
00000663  0000              add [eax],al
00000665  0000              add [eax],al
00000667  0000              add [eax],al
00000669  0000              add [eax],al
0000066B  0000              add [eax],al
0000066D  0000              add [eax],al
0000066F  0000              add [eax],al
00000671  0000              add [eax],al
00000673  0000              add [eax],al
00000675  0000              add [eax],al
00000677  0000              add [eax],al
00000679  0000              add [eax],al
0000067B  0000              add [eax],al
0000067D  0000              add [eax],al
0000067F  0000              add [eax],al
00000681  0000              add [eax],al
00000683  0000              add [eax],al
00000685  0000              add [eax],al
00000687  0000              add [eax],al
00000689  0000              add [eax],al
0000068B  0000              add [eax],al
0000068D  0000              add [eax],al
0000068F  0000              add [eax],al
00000691  0000              add [eax],al
00000693  0000              add [eax],al
00000695  0000              add [eax],al
00000697  0000              add [eax],al
00000699  0000              add [eax],al
0000069B  0000              add [eax],al
0000069D  0000              add [eax],al
0000069F  0000              add [eax],al
000006A1  0000              add [eax],al
000006A3  0000              add [eax],al
000006A5  0000              add [eax],al
000006A7  0000              add [eax],al
000006A9  0000              add [eax],al
000006AB  0000              add [eax],al
000006AD  0000              add [eax],al
000006AF  0000              add [eax],al
000006B1  0000              add [eax],al
000006B3  0000              add [eax],al
000006B5  0000              add [eax],al
000006B7  0000              add [eax],al
000006B9  0000              add [eax],al
000006BB  0000              add [eax],al
000006BD  0000              add [eax],al
000006BF  0000              add [eax],al
000006C1  0000              add [eax],al
000006C3  0000              add [eax],al
000006C5  0000              add [eax],al
000006C7  0000              add [eax],al
000006C9  0000              add [eax],al
000006CB  0000              add [eax],al
000006CD  0000              add [eax],al
000006CF  0000              add [eax],al
000006D1  0000              add [eax],al
000006D3  0000              add [eax],al
000006D5  0000              add [eax],al
000006D7  0000              add [eax],al
000006D9  0000              add [eax],al
000006DB  0000              add [eax],al
000006DD  0000              add [eax],al
000006DF  0000              add [eax],al
000006E1  0000              add [eax],al
000006E3  0000              add [eax],al
000006E5  0000              add [eax],al
000006E7  0000              add [eax],al
000006E9  0000              add [eax],al
000006EB  0000              add [eax],al
000006ED  0000              add [eax],al
000006EF  0000              add [eax],al
000006F1  0000              add [eax],al
000006F3  0000              add [eax],al
000006F5  0000              add [eax],al
000006F7  0000              add [eax],al
000006F9  0000              add [eax],al
000006FB  0000              add [eax],al
000006FD  0000              add [eax],al
000006FF  0000              add [eax],al
00000701  0000              add [eax],al
00000703  0000              add [eax],al
00000705  0000              add [eax],al
00000707  0000              add [eax],al
00000709  0000              add [eax],al
0000070B  0000              add [eax],al
0000070D  0000              add [eax],al
0000070F  0000              add [eax],al
00000711  0000              add [eax],al
00000713  0000              add [eax],al
00000715  0000              add [eax],al
00000717  0000              add [eax],al
00000719  0000              add [eax],al
0000071B  0000              add [eax],al
0000071D  0000              add [eax],al
0000071F  0000              add [eax],al
00000721  0000              add [eax],al
00000723  0000              add [eax],al
00000725  0000              add [eax],al
00000727  0000              add [eax],al
00000729  0000              add [eax],al
0000072B  0000              add [eax],al
0000072D  0000              add [eax],al
0000072F  0000              add [eax],al
00000731  0000              add [eax],al
00000733  0000              add [eax],al
00000735  0000              add [eax],al
00000737  0000              add [eax],al
00000739  0000              add [eax],al
0000073B  0000              add [eax],al
0000073D  0000              add [eax],al
0000073F  0000              add [eax],al
00000741  0000              add [eax],al
00000743  0000              add [eax],al
00000745  0000              add [eax],al
00000747  0000              add [eax],al
00000749  0000              add [eax],al
0000074B  0000              add [eax],al
0000074D  0000              add [eax],al
0000074F  0000              add [eax],al
00000751  0000              add [eax],al
00000753  0000              add [eax],al
00000755  0000              add [eax],al
00000757  0000              add [eax],al
00000759  0000              add [eax],al
0000075B  0000              add [eax],al
0000075D  0000              add [eax],al
0000075F  0000              add [eax],al
00000761  0000              add [eax],al
00000763  0000              add [eax],al
00000765  0000              add [eax],al
00000767  0000              add [eax],al
00000769  0000              add [eax],al
0000076B  0000              add [eax],al
0000076D  0000              add [eax],al
0000076F  0000              add [eax],al
00000771  0000              add [eax],al
00000773  0000              add [eax],al
00000775  0000              add [eax],al
00000777  0000              add [eax],al
00000779  0000              add [eax],al
0000077B  0000              add [eax],al
0000077D  0000              add [eax],al
0000077F  0000              add [eax],al
00000781  0000              add [eax],al
00000783  0000              add [eax],al
00000785  0000              add [eax],al
00000787  0000              add [eax],al
00000789  0000              add [eax],al
0000078B  0000              add [eax],al
0000078D  0000              add [eax],al
0000078F  0000              add [eax],al
00000791  0000              add [eax],al
00000793  0000              add [eax],al
00000795  0000              add [eax],al
00000797  0000              add [eax],al
00000799  0000              add [eax],al
0000079B  0000              add [eax],al
0000079D  0000              add [eax],al
0000079F  0000              add [eax],al
000007A1  0000              add [eax],al
000007A3  0000              add [eax],al
000007A5  0000              add [eax],al
000007A7  0000              add [eax],al
000007A9  0000              add [eax],al
000007AB  0000              add [eax],al
000007AD  0000              add [eax],al
000007AF  0000              add [eax],al
000007B1  0000              add [eax],al
000007B3  0000              add [eax],al
000007B5  0000              add [eax],al
000007B7  0000              add [eax],al
000007B9  0000              add [eax],al
000007BB  0000              add [eax],al
000007BD  0000              add [eax],al
000007BF  0000              add [eax],al
000007C1  0000              add [eax],al
000007C3  0000              add [eax],al
000007C5  0000              add [eax],al
000007C7  0000              add [eax],al
000007C9  0000              add [eax],al
000007CB  0000              add [eax],al
000007CD  0000              add [eax],al
000007CF  0000              add [eax],al
000007D1  0000              add [eax],al
000007D3  0000              add [eax],al
000007D5  0000              add [eax],al
000007D7  0000              add [eax],al
000007D9  0000              add [eax],al
000007DB  0000              add [eax],al
000007DD  0000              add [eax],al
000007DF  0000              add [eax],al
000007E1  0000              add [eax],al
000007E3  0000              add [eax],al
000007E5  0000              add [eax],al
000007E7  0000              add [eax],al
000007E9  0000              add [eax],al
000007EB  0000              add [eax],al
000007ED  0000              add [eax],al
000007EF  0000              add [eax],al
000007F1  0000              add [eax],al
000007F3  0000              add [eax],al
000007F5  0000              add [eax],al
000007F7  0000              add [eax],al
000007F9  0000              add [eax],al
000007FB  0000              add [eax],al
000007FD  0000              add [eax],al
000007FF  0000              add [eax],al
00000801  0000              add [eax],al
00000803  0000              add [eax],al
00000805  0000              add [eax],al
00000807  0000              add [eax],al
00000809  0000              add [eax],al
0000080B  0000              add [eax],al
0000080D  0000              add [eax],al
0000080F  0000              add [eax],al
00000811  0000              add [eax],al
00000813  0000              add [eax],al
00000815  0000              add [eax],al
00000817  0000              add [eax],al
00000819  0000              add [eax],al
0000081B  0000              add [eax],al
0000081D  0000              add [eax],al
0000081F  0000              add [eax],al
00000821  0000              add [eax],al
00000823  0000              add [eax],al
00000825  0000              add [eax],al
00000827  0000              add [eax],al
00000829  0000              add [eax],al
0000082B  0000              add [eax],al
0000082D  0000              add [eax],al
0000082F  0000              add [eax],al
00000831  0000              add [eax],al
00000833  0000              add [eax],al
00000835  0000              add [eax],al
00000837  0000              add [eax],al
00000839  0000              add [eax],al
0000083B  0000              add [eax],al
0000083D  0000              add [eax],al
0000083F  0000              add [eax],al
00000841  0000              add [eax],al
00000843  0000              add [eax],al
00000845  0000              add [eax],al
00000847  0000              add [eax],al
00000849  0000              add [eax],al
0000084B  0000              add [eax],al
0000084D  0000              add [eax],al
0000084F  0000              add [eax],al
00000851  0000              add [eax],al
00000853  0000              add [eax],al
00000855  0000              add [eax],al
00000857  0000              add [eax],al
00000859  0000              add [eax],al
0000085B  0000              add [eax],al
0000085D  0000              add [eax],al
0000085F  0000              add [eax],al
00000861  0000              add [eax],al
00000863  0000              add [eax],al
00000865  0000              add [eax],al
00000867  0000              add [eax],al
00000869  0000              add [eax],al
0000086B  0000              add [eax],al
0000086D  0000              add [eax],al
0000086F  0000              add [eax],al
00000871  0000              add [eax],al
00000873  0000              add [eax],al
00000875  0000              add [eax],al
00000877  0000              add [eax],al
00000879  0000              add [eax],al
0000087B  0000              add [eax],al
0000087D  0000              add [eax],al
0000087F  0000              add [eax],al
00000881  0000              add [eax],al
00000883  0000              add [eax],al
00000885  0000              add [eax],al
00000887  0000              add [eax],al
00000889  0000              add [eax],al
0000088B  0000              add [eax],al
0000088D  0000              add [eax],al
0000088F  0000              add [eax],al
00000891  0000              add [eax],al
00000893  0000              add [eax],al
00000895  0000              add [eax],al
00000897  0000              add [eax],al
00000899  0000              add [eax],al
0000089B  0000              add [eax],al
0000089D  0000              add [eax],al
0000089F  0000              add [eax],al
000008A1  0000              add [eax],al
000008A3  0000              add [eax],al
000008A5  0000              add [eax],al
000008A7  0000              add [eax],al
000008A9  0000              add [eax],al
000008AB  0000              add [eax],al
000008AD  0000              add [eax],al
000008AF  0000              add [eax],al
000008B1  0000              add [eax],al
000008B3  0000              add [eax],al
000008B5  0000              add [eax],al
000008B7  0000              add [eax],al
000008B9  0000              add [eax],al
000008BB  0000              add [eax],al
000008BD  0000              add [eax],al
000008BF  0000              add [eax],al
000008C1  0000              add [eax],al
000008C3  0000              add [eax],al
000008C5  0000              add [eax],al
000008C7  0000              add [eax],al
000008C9  0000              add [eax],al
000008CB  0000              add [eax],al
000008CD  0000              add [eax],al
000008CF  0000              add [eax],al
000008D1  0000              add [eax],al
000008D3  0000              add [eax],al
000008D5  0000              add [eax],al
000008D7  0000              add [eax],al
000008D9  0000              add [eax],al
000008DB  0000              add [eax],al
000008DD  0000              add [eax],al
000008DF  0000              add [eax],al
000008E1  0000              add [eax],al
000008E3  0000              add [eax],al
000008E5  0000              add [eax],al
000008E7  0000              add [eax],al
000008E9  0000              add [eax],al
000008EB  0000              add [eax],al
000008ED  0000              add [eax],al
000008EF  0000              add [eax],al
000008F1  0000              add [eax],al
000008F3  0000              add [eax],al
000008F5  0000              add [eax],al
000008F7  0000              add [eax],al
000008F9  0000              add [eax],al
000008FB  0000              add [eax],al
000008FD  0000              add [eax],al
000008FF  0000              add [eax],al
00000901  0000              add [eax],al
00000903  0000              add [eax],al
00000905  0000              add [eax],al
00000907  0000              add [eax],al
00000909  0000              add [eax],al
0000090B  0000              add [eax],al
0000090D  0000              add [eax],al
0000090F  0000              add [eax],al
00000911  0000              add [eax],al
00000913  0000              add [eax],al
00000915  0000              add [eax],al
00000917  0000              add [eax],al
00000919  0000              add [eax],al
0000091B  0000              add [eax],al
0000091D  0000              add [eax],al
0000091F  0000              add [eax],al
00000921  0000              add [eax],al
00000923  0000              add [eax],al
00000925  0000              add [eax],al
00000927  0000              add [eax],al
00000929  0000              add [eax],al
0000092B  0000              add [eax],al
0000092D  0000              add [eax],al
0000092F  0000              add [eax],al
00000931  0000              add [eax],al
00000933  0000              add [eax],al
00000935  0000              add [eax],al
00000937  0000              add [eax],al
00000939  0000              add [eax],al
0000093B  0000              add [eax],al
0000093D  0000              add [eax],al
0000093F  0000              add [eax],al
00000941  0000              add [eax],al
00000943  0000              add [eax],al
00000945  0000              add [eax],al
00000947  0000              add [eax],al
00000949  0000              add [eax],al
0000094B  0000              add [eax],al
0000094D  0000              add [eax],al
0000094F  0000              add [eax],al
00000951  0000              add [eax],al
00000953  0000              add [eax],al
00000955  0000              add [eax],al
00000957  0000              add [eax],al
00000959  0000              add [eax],al
0000095B  0000              add [eax],al
0000095D  0000              add [eax],al
0000095F  0000              add [eax],al
00000961  0000              add [eax],al
00000963  0000              add [eax],al
00000965  0000              add [eax],al
00000967  0000              add [eax],al
00000969  0000              add [eax],al
0000096B  0000              add [eax],al
0000096D  0000              add [eax],al
0000096F  0000              add [eax],al
00000971  0000              add [eax],al
00000973  0000              add [eax],al
00000975  0000              add [eax],al
00000977  0000              add [eax],al
00000979  0000              add [eax],al
0000097B  0000              add [eax],al
0000097D  0000              add [eax],al
0000097F  0000              add [eax],al
00000981  0000              add [eax],al
00000983  0000              add [eax],al
00000985  0000              add [eax],al
00000987  0000              add [eax],al
00000989  0000              add [eax],al
0000098B  0000              add [eax],al
0000098D  0000              add [eax],al
0000098F  0000              add [eax],al
00000991  0000              add [eax],al
00000993  0000              add [eax],al
00000995  0000              add [eax],al
00000997  0000              add [eax],al
00000999  0000              add [eax],al
0000099B  0000              add [eax],al
0000099D  0000              add [eax],al
0000099F  0000              add [eax],al
000009A1  0000              add [eax],al
000009A3  0000              add [eax],al
000009A5  0000              add [eax],al
000009A7  0000              add [eax],al
000009A9  0000              add [eax],al
000009AB  0000              add [eax],al
000009AD  0000              add [eax],al
000009AF  0000              add [eax],al
000009B1  0000              add [eax],al
000009B3  0000              add [eax],al
000009B5  0000              add [eax],al
000009B7  0000              add [eax],al
000009B9  0000              add [eax],al
000009BB  0000              add [eax],al
000009BD  0000              add [eax],al
000009BF  0000              add [eax],al
000009C1  0000              add [eax],al
000009C3  0000              add [eax],al
000009C5  0000              add [eax],al
000009C7  0000              add [eax],al
000009C9  0000              add [eax],al
000009CB  0000              add [eax],al
000009CD  0000              add [eax],al
000009CF  0000              add [eax],al
000009D1  0000              add [eax],al
000009D3  0000              add [eax],al
000009D5  0000              add [eax],al
000009D7  0000              add [eax],al
000009D9  0000              add [eax],al
000009DB  0000              add [eax],al
000009DD  0000              add [eax],al
000009DF  0000              add [eax],al
000009E1  0000              add [eax],al
000009E3  0000              add [eax],al
000009E5  0000              add [eax],al
000009E7  0000              add [eax],al
000009E9  0000              add [eax],al
000009EB  0000              add [eax],al
000009ED  0000              add [eax],al
000009EF  0000              add [eax],al
000009F1  0000              add [eax],al
000009F3  0000              add [eax],al
000009F5  0000              add [eax],al
000009F7  0000              add [eax],al
000009F9  0000              add [eax],al
000009FB  0000              add [eax],al
000009FD  0000              add [eax],al
000009FF  0000              add [eax],al
00000A01  0000              add [eax],al
00000A03  0000              add [eax],al
00000A05  0000              add [eax],al
00000A07  0000              add [eax],al
00000A09  0000              add [eax],al
00000A0B  0000              add [eax],al
00000A0D  0000              add [eax],al
00000A0F  0000              add [eax],al
00000A11  0000              add [eax],al
00000A13  0000              add [eax],al
00000A15  0000              add [eax],al
00000A17  0000              add [eax],al
00000A19  0000              add [eax],al
00000A1B  0000              add [eax],al
00000A1D  0000              add [eax],al
00000A1F  0000              add [eax],al
00000A21  0000              add [eax],al
00000A23  0000              add [eax],al
00000A25  0000              add [eax],al
00000A27  0000              add [eax],al
00000A29  0000              add [eax],al
00000A2B  0000              add [eax],al
00000A2D  0000              add [eax],al
00000A2F  0000              add [eax],al
00000A31  0000              add [eax],al
00000A33  0000              add [eax],al
00000A35  0000              add [eax],al
00000A37  0000              add [eax],al
00000A39  0000              add [eax],al
00000A3B  0000              add [eax],al
00000A3D  0000              add [eax],al
00000A3F  0000              add [eax],al
00000A41  0000              add [eax],al
00000A43  0000              add [eax],al
00000A45  0000              add [eax],al
00000A47  0000              add [eax],al
00000A49  0000              add [eax],al
00000A4B  0000              add [eax],al
00000A4D  0000              add [eax],al
00000A4F  0000              add [eax],al
00000A51  0000              add [eax],al
00000A53  0000              add [eax],al
00000A55  0000              add [eax],al
00000A57  0000              add [eax],al
00000A59  0000              add [eax],al
00000A5B  0000              add [eax],al
00000A5D  0000              add [eax],al
00000A5F  0000              add [eax],al
00000A61  0000              add [eax],al
00000A63  0000              add [eax],al
00000A65  0000              add [eax],al
00000A67  0000              add [eax],al
00000A69  0000              add [eax],al
00000A6B  0000              add [eax],al
00000A6D  0000              add [eax],al
00000A6F  0000              add [eax],al
00000A71  0000              add [eax],al
00000A73  0000              add [eax],al
00000A75  0000              add [eax],al
00000A77  0000              add [eax],al
00000A79  0000              add [eax],al
00000A7B  0000              add [eax],al
00000A7D  0000              add [eax],al
00000A7F  0000              add [eax],al
00000A81  0000              add [eax],al
00000A83  0000              add [eax],al
00000A85  0000              add [eax],al
00000A87  0000              add [eax],al
00000A89  0000              add [eax],al
00000A8B  0000              add [eax],al
00000A8D  0000              add [eax],al
00000A8F  0000              add [eax],al
00000A91  0000              add [eax],al
00000A93  0000              add [eax],al
00000A95  0000              add [eax],al
00000A97  0000              add [eax],al
00000A99  0000              add [eax],al
00000A9B  0000              add [eax],al
00000A9D  0000              add [eax],al
00000A9F  0000              add [eax],al
00000AA1  0000              add [eax],al
00000AA3  0000              add [eax],al
00000AA5  0000              add [eax],al
00000AA7  0000              add [eax],al
00000AA9  0000              add [eax],al
00000AAB  0000              add [eax],al
00000AAD  0000              add [eax],al
00000AAF  0000              add [eax],al
00000AB1  0000              add [eax],al
00000AB3  0000              add [eax],al
00000AB5  0000              add [eax],al
00000AB7  0000              add [eax],al
00000AB9  0000              add [eax],al
00000ABB  0000              add [eax],al
00000ABD  0000              add [eax],al
00000ABF  0000              add [eax],al
00000AC1  0000              add [eax],al
00000AC3  0000              add [eax],al
00000AC5  0000              add [eax],al
00000AC7  0000              add [eax],al
00000AC9  0000              add [eax],al
00000ACB  0000              add [eax],al
00000ACD  0000              add [eax],al
00000ACF  0000              add [eax],al
00000AD1  0000              add [eax],al
00000AD3  0000              add [eax],al
00000AD5  0000              add [eax],al
00000AD7  0000              add [eax],al
00000AD9  0000              add [eax],al
00000ADB  0000              add [eax],al
00000ADD  0000              add [eax],al
00000ADF  0000              add [eax],al
00000AE1  0000              add [eax],al
00000AE3  0000              add [eax],al
00000AE5  0000              add [eax],al
00000AE7  0000              add [eax],al
00000AE9  0000              add [eax],al
00000AEB  0000              add [eax],al
00000AED  0000              add [eax],al
00000AEF  0000              add [eax],al
00000AF1  0000              add [eax],al
00000AF3  0000              add [eax],al
00000AF5  0000              add [eax],al
00000AF7  0000              add [eax],al
00000AF9  0000              add [eax],al
00000AFB  0000              add [eax],al
00000AFD  0000              add [eax],al
00000AFF  0000              add [eax],al
00000B01  0000              add [eax],al
00000B03  0000              add [eax],al
00000B05  0000              add [eax],al
00000B07  0000              add [eax],al
00000B09  0000              add [eax],al
00000B0B  0000              add [eax],al
00000B0D  0000              add [eax],al
00000B0F  0000              add [eax],al
00000B11  0000              add [eax],al
00000B13  0000              add [eax],al
00000B15  0000              add [eax],al
00000B17  0000              add [eax],al
00000B19  0000              add [eax],al
00000B1B  0000              add [eax],al
00000B1D  0000              add [eax],al
00000B1F  0000              add [eax],al
00000B21  0000              add [eax],al
00000B23  0000              add [eax],al
00000B25  0000              add [eax],al
00000B27  0000              add [eax],al
00000B29  0000              add [eax],al
00000B2B  0000              add [eax],al
00000B2D  0000              add [eax],al
00000B2F  0000              add [eax],al
00000B31  0000              add [eax],al
00000B33  0000              add [eax],al
00000B35  0000              add [eax],al
00000B37  0000              add [eax],al
00000B39  0000              add [eax],al
00000B3B  0000              add [eax],al
00000B3D  0000              add [eax],al
00000B3F  0000              add [eax],al
00000B41  0000              add [eax],al
00000B43  0000              add [eax],al
00000B45  0000              add [eax],al
00000B47  0000              add [eax],al
00000B49  0000              add [eax],al
00000B4B  0000              add [eax],al
00000B4D  0000              add [eax],al
00000B4F  0000              add [eax],al
00000B51  0000              add [eax],al
00000B53  0000              add [eax],al
00000B55  0000              add [eax],al
00000B57  0000              add [eax],al
00000B59  0000              add [eax],al
00000B5B  0000              add [eax],al
00000B5D  0000              add [eax],al
00000B5F  0000              add [eax],al
00000B61  0000              add [eax],al
00000B63  0000              add [eax],al
00000B65  0000              add [eax],al
00000B67  0000              add [eax],al
00000B69  0000              add [eax],al
00000B6B  0000              add [eax],al
00000B6D  0000              add [eax],al
00000B6F  0000              add [eax],al
00000B71  0000              add [eax],al
00000B73  0000              add [eax],al
00000B75  0000              add [eax],al
00000B77  0000              add [eax],al
00000B79  0000              add [eax],al
00000B7B  0000              add [eax],al
00000B7D  0000              add [eax],al
00000B7F  0000              add [eax],al
00000B81  0000              add [eax],al
00000B83  0000              add [eax],al
00000B85  0000              add [eax],al
00000B87  0000              add [eax],al
00000B89  0000              add [eax],al
00000B8B  0000              add [eax],al
00000B8D  0000              add [eax],al
00000B8F  0000              add [eax],al
00000B91  0000              add [eax],al
00000B93  0000              add [eax],al
00000B95  0000              add [eax],al
00000B97  0000              add [eax],al
00000B99  0000              add [eax],al
00000B9B  0000              add [eax],al
00000B9D  0000              add [eax],al
00000B9F  0000              add [eax],al
00000BA1  0000              add [eax],al
00000BA3  0000              add [eax],al
00000BA5  0000              add [eax],al
00000BA7  0000              add [eax],al
00000BA9  0000              add [eax],al
00000BAB  0000              add [eax],al
00000BAD  0000              add [eax],al
00000BAF  0000              add [eax],al
00000BB1  0000              add [eax],al
00000BB3  0000              add [eax],al
00000BB5  0000              add [eax],al
00000BB7  0000              add [eax],al
00000BB9  0000              add [eax],al
00000BBB  0000              add [eax],al
00000BBD  0000              add [eax],al
00000BBF  0000              add [eax],al
00000BC1  0000              add [eax],al
00000BC3  0000              add [eax],al
00000BC5  0000              add [eax],al
00000BC7  0000              add [eax],al
00000BC9  0000              add [eax],al
00000BCB  0000              add [eax],al
00000BCD  0000              add [eax],al
00000BCF  0000              add [eax],al
00000BD1  0000              add [eax],al
00000BD3  0000              add [eax],al
00000BD5  0000              add [eax],al
00000BD7  0000              add [eax],al
00000BD9  0000              add [eax],al
00000BDB  0000              add [eax],al
00000BDD  0000              add [eax],al
00000BDF  0000              add [eax],al
00000BE1  0000              add [eax],al
00000BE3  0000              add [eax],al
00000BE5  0000              add [eax],al
00000BE7  0000              add [eax],al
00000BE9  0000              add [eax],al
00000BEB  0000              add [eax],al
00000BED  0000              add [eax],al
00000BEF  0000              add [eax],al
00000BF1  0000              add [eax],al
00000BF3  0000              add [eax],al
00000BF5  0000              add [eax],al
00000BF7  0000              add [eax],al
00000BF9  0000              add [eax],al
00000BFB  0000              add [eax],al
00000BFD  0000              add [eax],al
00000BFF  0000              add [eax],al
00000C01  0000              add [eax],al
00000C03  0000              add [eax],al
00000C05  0000              add [eax],al
00000C07  0000              add [eax],al
00000C09  0000              add [eax],al
00000C0B  0000              add [eax],al
00000C0D  0000              add [eax],al
00000C0F  0000              add [eax],al
00000C11  0000              add [eax],al
00000C13  0000              add [eax],al
00000C15  0000              add [eax],al
00000C17  0000              add [eax],al
00000C19  0000              add [eax],al
00000C1B  0000              add [eax],al
00000C1D  0000              add [eax],al
00000C1F  0000              add [eax],al
00000C21  0000              add [eax],al
00000C23  0000              add [eax],al
00000C25  0000              add [eax],al
00000C27  0000              add [eax],al
00000C29  0000              add [eax],al
00000C2B  0000              add [eax],al
00000C2D  0000              add [eax],al
00000C2F  0000              add [eax],al
00000C31  0000              add [eax],al
00000C33  0000              add [eax],al
00000C35  0000              add [eax],al
00000C37  0000              add [eax],al
00000C39  0000              add [eax],al
00000C3B  0000              add [eax],al
00000C3D  0000              add [eax],al
00000C3F  0000              add [eax],al
00000C41  0000              add [eax],al
00000C43  0000              add [eax],al
00000C45  0000              add [eax],al
00000C47  0000              add [eax],al
00000C49  0000              add [eax],al
00000C4B  0000              add [eax],al
00000C4D  0000              add [eax],al
00000C4F  0000              add [eax],al
00000C51  0000              add [eax],al
00000C53  0000              add [eax],al
00000C55  0000              add [eax],al
00000C57  0000              add [eax],al
00000C59  0000              add [eax],al
00000C5B  0000              add [eax],al
00000C5D  0000              add [eax],al
00000C5F  0000              add [eax],al
00000C61  0000              add [eax],al
00000C63  0000              add [eax],al
00000C65  0000              add [eax],al
00000C67  0000              add [eax],al
00000C69  0000              add [eax],al
00000C6B  0000              add [eax],al
00000C6D  0000              add [eax],al
00000C6F  0000              add [eax],al
00000C71  0000              add [eax],al
00000C73  0000              add [eax],al
00000C75  0000              add [eax],al
00000C77  0000              add [eax],al
00000C79  0000              add [eax],al
00000C7B  0000              add [eax],al
00000C7D  0000              add [eax],al
00000C7F  0000              add [eax],al
00000C81  0000              add [eax],al
00000C83  0000              add [eax],al
00000C85  0000              add [eax],al
00000C87  0000              add [eax],al
00000C89  0000              add [eax],al
00000C8B  0000              add [eax],al
00000C8D  0000              add [eax],al
00000C8F  0000              add [eax],al
00000C91  0000              add [eax],al
00000C93  0000              add [eax],al
00000C95  0000              add [eax],al
00000C97  0000              add [eax],al
00000C99  0000              add [eax],al
00000C9B  0000              add [eax],al
00000C9D  0000              add [eax],al
00000C9F  0000              add [eax],al
00000CA1  0000              add [eax],al
00000CA3  0000              add [eax],al
00000CA5  0000              add [eax],al
00000CA7  0000              add [eax],al
00000CA9  0000              add [eax],al
00000CAB  0000              add [eax],al
00000CAD  0000              add [eax],al
00000CAF  0000              add [eax],al
00000CB1  0000              add [eax],al
00000CB3  0000              add [eax],al
00000CB5  0000              add [eax],al
00000CB7  0000              add [eax],al
00000CB9  0000              add [eax],al
00000CBB  0000              add [eax],al
00000CBD  0000              add [eax],al
00000CBF  0000              add [eax],al
00000CC1  0000              add [eax],al
00000CC3  0000              add [eax],al
00000CC5  0000              add [eax],al
00000CC7  0000              add [eax],al
00000CC9  0000              add [eax],al
00000CCB  0000              add [eax],al
00000CCD  0000              add [eax],al
00000CCF  0000              add [eax],al
00000CD1  0000              add [eax],al
00000CD3  0000              add [eax],al
00000CD5  0000              add [eax],al
00000CD7  0000              add [eax],al
00000CD9  0000              add [eax],al
00000CDB  0000              add [eax],al
00000CDD  0000              add [eax],al
00000CDF  0000              add [eax],al
00000CE1  0000              add [eax],al
00000CE3  0000              add [eax],al
00000CE5  0000              add [eax],al
00000CE7  0000              add [eax],al
00000CE9  0000              add [eax],al
00000CEB  0000              add [eax],al
00000CED  0000              add [eax],al
00000CEF  0000              add [eax],al
00000CF1  0000              add [eax],al
00000CF3  0000              add [eax],al
00000CF5  0000              add [eax],al
00000CF7  0000              add [eax],al
00000CF9  0000              add [eax],al
00000CFB  0000              add [eax],al
00000CFD  0000              add [eax],al
00000CFF  0000              add [eax],al
00000D01  0000              add [eax],al
00000D03  0000              add [eax],al
00000D05  0000              add [eax],al
00000D07  0000              add [eax],al
00000D09  0000              add [eax],al
00000D0B  0000              add [eax],al
00000D0D  0000              add [eax],al
00000D0F  0000              add [eax],al
00000D11  0000              add [eax],al
00000D13  0000              add [eax],al
00000D15  0000              add [eax],al
00000D17  0000              add [eax],al
00000D19  0000              add [eax],al
00000D1B  0000              add [eax],al
00000D1D  0000              add [eax],al
00000D1F  0000              add [eax],al
00000D21  0000              add [eax],al
00000D23  0000              add [eax],al
00000D25  0000              add [eax],al
00000D27  0000              add [eax],al
00000D29  0000              add [eax],al
00000D2B  0000              add [eax],al
00000D2D  0000              add [eax],al
00000D2F  0000              add [eax],al
00000D31  0000              add [eax],al
00000D33  0000              add [eax],al
00000D35  0000              add [eax],al
00000D37  0000              add [eax],al
00000D39  0000              add [eax],al
00000D3B  0000              add [eax],al
00000D3D  0000              add [eax],al
00000D3F  0000              add [eax],al
00000D41  0000              add [eax],al
00000D43  0000              add [eax],al
00000D45  0000              add [eax],al
00000D47  0000              add [eax],al
00000D49  0000              add [eax],al
00000D4B  0000              add [eax],al
00000D4D  0000              add [eax],al
00000D4F  0000              add [eax],al
00000D51  0000              add [eax],al
00000D53  0000              add [eax],al
00000D55  0000              add [eax],al
00000D57  0000              add [eax],al
00000D59  0000              add [eax],al
00000D5B  0000              add [eax],al
00000D5D  0000              add [eax],al
00000D5F  0000              add [eax],al
00000D61  0000              add [eax],al
00000D63  0000              add [eax],al
00000D65  0000              add [eax],al
00000D67  0000              add [eax],al
00000D69  0000              add [eax],al
00000D6B  0000              add [eax],al
00000D6D  0000              add [eax],al
00000D6F  0000              add [eax],al
00000D71  0000              add [eax],al
00000D73  0000              add [eax],al
00000D75  0000              add [eax],al
00000D77  0000              add [eax],al
00000D79  0000              add [eax],al
00000D7B  0000              add [eax],al
00000D7D  0000              add [eax],al
00000D7F  0000              add [eax],al
00000D81  0000              add [eax],al
00000D83  0000              add [eax],al
00000D85  0000              add [eax],al
00000D87  0000              add [eax],al
00000D89  0000              add [eax],al
00000D8B  0000              add [eax],al
00000D8D  0000              add [eax],al
00000D8F  0000              add [eax],al
00000D91  0000              add [eax],al
00000D93  0000              add [eax],al
00000D95  0000              add [eax],al
00000D97  0000              add [eax],al
00000D99  0000              add [eax],al
00000D9B  0000              add [eax],al
00000D9D  0000              add [eax],al
00000D9F  0000              add [eax],al
00000DA1  0000              add [eax],al
00000DA3  0000              add [eax],al
00000DA5  0000              add [eax],al
00000DA7  0000              add [eax],al
00000DA9  0000              add [eax],al
00000DAB  0000              add [eax],al
00000DAD  0000              add [eax],al
00000DAF  0000              add [eax],al
00000DB1  0000              add [eax],al
00000DB3  0000              add [eax],al
00000DB5  0000              add [eax],al
00000DB7  0000              add [eax],al
00000DB9  0000              add [eax],al
00000DBB  0000              add [eax],al
00000DBD  0000              add [eax],al
00000DBF  0000              add [eax],al
00000DC1  0000              add [eax],al
00000DC3  0000              add [eax],al
00000DC5  0000              add [eax],al
00000DC7  0000              add [eax],al
00000DC9  0000              add [eax],al
00000DCB  0000              add [eax],al
00000DCD  0000              add [eax],al
00000DCF  0000              add [eax],al
00000DD1  0000              add [eax],al
00000DD3  0000              add [eax],al
00000DD5  0000              add [eax],al
00000DD7  0000              add [eax],al
00000DD9  0000              add [eax],al
00000DDB  0000              add [eax],al
00000DDD  0000              add [eax],al
00000DDF  0000              add [eax],al
00000DE1  0000              add [eax],al
00000DE3  0000              add [eax],al
00000DE5  0000              add [eax],al
00000DE7  0000              add [eax],al
00000DE9  0000              add [eax],al
00000DEB  0000              add [eax],al
00000DED  0000              add [eax],al
00000DEF  0000              add [eax],al
00000DF1  0000              add [eax],al
00000DF3  0000              add [eax],al
00000DF5  0000              add [eax],al
00000DF7  0000              add [eax],al
00000DF9  0000              add [eax],al
00000DFB  0000              add [eax],al
00000DFD  0000              add [eax],al
00000DFF  0000              add [eax],al
00000E01  0000              add [eax],al
00000E03  0000              add [eax],al
00000E05  0000              add [eax],al
00000E07  0000              add [eax],al
00000E09  0000              add [eax],al
00000E0B  0000              add [eax],al
00000E0D  0000              add [eax],al
00000E0F  0000              add [eax],al
00000E11  0000              add [eax],al
00000E13  0000              add [eax],al
00000E15  0000              add [eax],al
00000E17  0000              add [eax],al
00000E19  0000              add [eax],al
00000E1B  0000              add [eax],al
00000E1D  0000              add [eax],al
00000E1F  0000              add [eax],al
00000E21  0000              add [eax],al
00000E23  0000              add [eax],al
00000E25  0000              add [eax],al
00000E27  0000              add [eax],al
00000E29  0000              add [eax],al
00000E2B  0000              add [eax],al
00000E2D  0000              add [eax],al
00000E2F  0000              add [eax],al
00000E31  0000              add [eax],al
00000E33  0000              add [eax],al
00000E35  0000              add [eax],al
00000E37  0000              add [eax],al
00000E39  0000              add [eax],al
00000E3B  0000              add [eax],al
00000E3D  0000              add [eax],al
00000E3F  0000              add [eax],al
00000E41  0000              add [eax],al
00000E43  0000              add [eax],al
00000E45  0000              add [eax],al
00000E47  0000              add [eax],al
00000E49  0000              add [eax],al
00000E4B  0000              add [eax],al
00000E4D  0000              add [eax],al
00000E4F  0000              add [eax],al
00000E51  0000              add [eax],al
00000E53  0000              add [eax],al
00000E55  0000              add [eax],al
00000E57  0000              add [eax],al
00000E59  0000              add [eax],al
00000E5B  0000              add [eax],al
00000E5D  0000              add [eax],al
00000E5F  0000              add [eax],al
00000E61  0000              add [eax],al
00000E63  0000              add [eax],al
00000E65  0000              add [eax],al
00000E67  0000              add [eax],al
00000E69  0000              add [eax],al
00000E6B  0000              add [eax],al
00000E6D  0000              add [eax],al
00000E6F  0000              add [eax],al
00000E71  0000              add [eax],al
00000E73  0000              add [eax],al
00000E75  0000              add [eax],al
00000E77  0000              add [eax],al
00000E79  0000              add [eax],al
00000E7B  0000              add [eax],al
00000E7D  0000              add [eax],al
00000E7F  0000              add [eax],al
00000E81  0000              add [eax],al
00000E83  0000              add [eax],al
00000E85  0000              add [eax],al
00000E87  0000              add [eax],al
00000E89  0000              add [eax],al
00000E8B  0000              add [eax],al
00000E8D  0000              add [eax],al
00000E8F  0000              add [eax],al
00000E91  0000              add [eax],al
00000E93  0000              add [eax],al
00000E95  0000              add [eax],al
00000E97  0000              add [eax],al
00000E99  0000              add [eax],al
00000E9B  0000              add [eax],al
00000E9D  0000              add [eax],al
00000E9F  0000              add [eax],al
00000EA1  0000              add [eax],al
00000EA3  0000              add [eax],al
00000EA5  0000              add [eax],al
00000EA7  0000              add [eax],al
00000EA9  0000              add [eax],al
00000EAB  0000              add [eax],al
00000EAD  0000              add [eax],al
00000EAF  0000              add [eax],al
00000EB1  0000              add [eax],al
00000EB3  0000              add [eax],al
00000EB5  0000              add [eax],al
00000EB7  0000              add [eax],al
00000EB9  0000              add [eax],al
00000EBB  0000              add [eax],al
00000EBD  0000              add [eax],al
00000EBF  0000              add [eax],al
00000EC1  0000              add [eax],al
00000EC3  0000              add [eax],al
00000EC5  0000              add [eax],al
00000EC7  0000              add [eax],al
00000EC9  0000              add [eax],al
00000ECB  0000              add [eax],al
00000ECD  0000              add [eax],al
00000ECF  0000              add [eax],al
00000ED1  0000              add [eax],al
00000ED3  0000              add [eax],al
00000ED5  0000              add [eax],al
00000ED7  0000              add [eax],al
00000ED9  0000              add [eax],al
00000EDB  0000              add [eax],al
00000EDD  0000              add [eax],al
00000EDF  0000              add [eax],al
00000EE1  0000              add [eax],al
00000EE3  0000              add [eax],al
00000EE5  0000              add [eax],al
00000EE7  0000              add [eax],al
00000EE9  0000              add [eax],al
00000EEB  0000              add [eax],al
00000EED  0000              add [eax],al
00000EEF  0000              add [eax],al
00000EF1  0000              add [eax],al
00000EF3  0000              add [eax],al
00000EF5  0000              add [eax],al
00000EF7  0000              add [eax],al
00000EF9  0000              add [eax],al
00000EFB  0000              add [eax],al
00000EFD  0000              add [eax],al
00000EFF  0000              add [eax],al
00000F01  0000              add [eax],al
00000F03  0000              add [eax],al
00000F05  0000              add [eax],al
00000F07  0000              add [eax],al
00000F09  0000              add [eax],al
00000F0B  0000              add [eax],al
00000F0D  0000              add [eax],al
00000F0F  0000              add [eax],al
00000F11  0000              add [eax],al
00000F13  0000              add [eax],al
00000F15  0000              add [eax],al
00000F17  0000              add [eax],al
00000F19  0000              add [eax],al
00000F1B  0000              add [eax],al
00000F1D  0000              add [eax],al
00000F1F  0000              add [eax],al
00000F21  0000              add [eax],al
00000F23  0000              add [eax],al
00000F25  0000              add [eax],al
00000F27  0000              add [eax],al
00000F29  0000              add [eax],al
00000F2B  0000              add [eax],al
00000F2D  0000              add [eax],al
00000F2F  0000              add [eax],al
00000F31  0000              add [eax],al
00000F33  0000              add [eax],al
00000F35  0000              add [eax],al
00000F37  0000              add [eax],al
00000F39  0000              add [eax],al
00000F3B  0000              add [eax],al
00000F3D  0000              add [eax],al
00000F3F  0000              add [eax],al
00000F41  0000              add [eax],al
00000F43  0000              add [eax],al
00000F45  0000              add [eax],al
00000F47  0000              add [eax],al
00000F49  0000              add [eax],al
00000F4B  0000              add [eax],al
00000F4D  0000              add [eax],al
00000F4F  0000              add [eax],al
00000F51  0000              add [eax],al
00000F53  0000              add [eax],al
00000F55  0000              add [eax],al
00000F57  0000              add [eax],al
00000F59  0000              add [eax],al
00000F5B  0000              add [eax],al
00000F5D  0000              add [eax],al
00000F5F  0000              add [eax],al
00000F61  0000              add [eax],al
00000F63  0000              add [eax],al
00000F65  0000              add [eax],al
00000F67  0000              add [eax],al
00000F69  0000              add [eax],al
00000F6B  0000              add [eax],al
00000F6D  0000              add [eax],al
00000F6F  0000              add [eax],al
00000F71  0000              add [eax],al
00000F73  0000              add [eax],al
00000F75  0000              add [eax],al
00000F77  0000              add [eax],al
00000F79  0000              add [eax],al
00000F7B  0000              add [eax],al
00000F7D  0000              add [eax],al
00000F7F  0000              add [eax],al
00000F81  0000              add [eax],al
00000F83  0000              add [eax],al
00000F85  0000              add [eax],al
00000F87  0000              add [eax],al
00000F89  0000              add [eax],al
00000F8B  0000              add [eax],al
00000F8D  0000              add [eax],al
00000F8F  0000              add [eax],al
00000F91  0000              add [eax],al
00000F93  0000              add [eax],al
00000F95  0000              add [eax],al
00000F97  0000              add [eax],al
00000F99  0000              add [eax],al
00000F9B  0000              add [eax],al
00000F9D  0000              add [eax],al
00000F9F  0000              add [eax],al
00000FA1  0000              add [eax],al
00000FA3  0000              add [eax],al
00000FA5  0000              add [eax],al
00000FA7  0000              add [eax],al
00000FA9  0000              add [eax],al
00000FAB  0000              add [eax],al
00000FAD  0000              add [eax],al
00000FAF  0000              add [eax],al
00000FB1  0000              add [eax],al
00000FB3  0000              add [eax],al
00000FB5  0000              add [eax],al
00000FB7  0000              add [eax],al
00000FB9  0000              add [eax],al
00000FBB  0000              add [eax],al
00000FBD  0000              add [eax],al
00000FBF  0000              add [eax],al
00000FC1  0000              add [eax],al
00000FC3  0000              add [eax],al
00000FC5  0000              add [eax],al
00000FC7  0000              add [eax],al
00000FC9  0000              add [eax],al
00000FCB  0000              add [eax],al
00000FCD  0000              add [eax],al
00000FCF  0000              add [eax],al
00000FD1  0000              add [eax],al
00000FD3  0000              add [eax],al
00000FD5  0000              add [eax],al
00000FD7  0000              add [eax],al
00000FD9  0000              add [eax],al
00000FDB  0000              add [eax],al
00000FDD  0000              add [eax],al
00000FDF  0000              add [eax],al
00000FE1  0000              add [eax],al
00000FE3  0000              add [eax],al
00000FE5  0000              add [eax],al
00000FE7  0000              add [eax],al
00000FE9  0000              add [eax],al
00000FEB  0000              add [eax],al
00000FED  0000              add [eax],al
00000FEF  0000              add [eax],al
00000FF1  0000              add [eax],al
00000FF3  0000              add [eax],al
00000FF5  0000              add [eax],al
00000FF7  0000              add [eax],al
00000FF9  0000              add [eax],al
00000FFB  0000              add [eax],al
00000FFD  0000              add [eax],al
00000FFF  0002              add [edx],al
00001001  B0AD              mov al,0xad
00001003  1B01              sbb eax,[ecx]
00001005  0000              add [eax],al
00001007  00FD              add ch,bh
00001009  4F                dec edi
0000100A  52                push edx
0000100B  E400              in al,0x0
0000100D  0000              add [eax],al
0000100F  0000              add [eax],al
00001011  0000              add [eax],al
00001013  0000              add [eax],al
00001015  0000              add [eax],al
00001017  0000              add [eax],al
00001019  0000              add [eax],al
0000101B  0000              add [eax],al
0000101D  0000              add [eax],al
0000101F  0000              add [eax],al
00001021  0000              add [eax],al
00001023  0000              add [eax],al
00001025  0000              add [eax],al
00001027  0000              add [eax],al
00001029  0000              add [eax],al
0000102B  0000              add [eax],al
0000102D  0000              add [eax],al
0000102F  00FA              add dl,bh
00001031  BD00501000        mov ebp,0x105000
00001036  89EC              mov esp,ebp
00001038  53                push ebx
00001039  E831020000        call 0x126f
0000103E  0F0110            lgdt [eax]
00001041  E84D090000        call 0x1993
00001046  0F0118            lidt [eax]
00001049  FB                sti
0000104A  CD20              int 0x20
0000104C  E86B0B0000        call 0x1bbc
00001051  E807000000        call 0x105d
00001056  FA                cli
00001057  F4                hlt
00001058  B8E5B1000B        mov eax,0xb00b1e5
0000105D  55                push ebp
0000105E  89E5              mov ebp,esp
00001060  53                push ebx
00001061  81EC84000000      sub esp,0x84
00001067  E8AA0F0000        call 0x2016
0000106C  81C31C300000      add ebx,0x301c
00001072  C745DB6672616D    mov dword [ebp-0x25],0x6d617266
00001079  C745DF65206275    mov dword [ebp-0x21],0x75622065
00001080  C745E366666572    mov dword [ebp-0x1d],0x72656666
00001087  C745E72072756E    mov dword [ebp-0x19],0x6e757220
0000108E  C745EB6E696E67    mov dword [ebp-0x15],0x676e696e
00001095  C645EF00          mov byte [ebp-0x11],0x0
00001099  6A00              push byte +0x0
0000109B  6A0A              push byte +0xa
0000109D  6A15              push byte +0x15
0000109F  8D45DB            lea eax,[ebp-0x25]
000010A2  50                push eax
000010A3  E8D1040000        call 0x1579
000010A8  83C410            add esp,byte +0x10
000010AB  C745CB73657269    mov dword [ebp-0x35],0x69726573
000010B2  C745CF616C2072    mov dword [ebp-0x31],0x72206c61
000010B9  C745D3756E6E69    mov dword [ebp-0x2d],0x696e6e75
000010C0  C745D76E670000    mov dword [ebp-0x29],0x676e
000010C7  83EC0C            sub esp,byte +0xc
000010CA  8D45CB            lea eax,[ebp-0x35]
000010CD  50                push eax
000010CE  E8410E0000        call 0x1f14
000010D3  83C410            add esp,byte +0x10
000010D6  8B4508            mov eax,[ebp+0x8]
000010D9  8B4018            mov eax,[eax+0x18]
000010DC  8945F4            mov [ebp-0xc],eax
000010DF  8B45F4            mov eax,[ebp-0xc]
000010E2  8B00              mov eax,[eax]
000010E4  83EC0C            sub esp,byte +0xc
000010E7  50                push eax
000010E8  E8B10D0000        call 0x1e9e
000010ED  83C410            add esp,byte +0x10
000010F0  83EC08            sub esp,byte +0x8
000010F3  FF75F4            push dword [ebp-0xc]
000010F6  8D45A8            lea eax,[ebp-0x58]
000010F9  50                push eax
000010FA  E8FF010000        call 0x12fe
000010FF  83C410            add esp,byte +0x10
00001102  C745A002000000    mov dword [ebp-0x60],0x2
00001109  C745A403000000    mov dword [ebp-0x5c],0x3
00001110  8D45A0            lea eax,[ebp-0x60]
00001113  8945B0            mov [ebp-0x50],eax
00001116  C745AC02000000    mov dword [ebp-0x54],0x2
0000111D  83EC0C            sub esp,byte +0xc
00001120  8D45A8            lea eax,[ebp-0x58]
00001123  50                push eax
00001124  E83D020000        call 0x1366
00001129  83C410            add esp,byte +0x10
0000112C  8945F0            mov [ebp-0x10],eax
0000112F  C7458666756E63    mov dword [ebp-0x7a],0x636e7566
00001136  C7458A74696F6E    mov dword [ebp-0x76],0x6e6f6974
0000113D  C7458E206F7065    mov dword [ebp-0x72],0x65706f20
00001144  C7459272616E64    mov dword [ebp-0x6e],0x646e6172
0000114B  C7459673207375    mov dword [ebp-0x6a],0x75732073
00001152  C7459A63657373    mov dword [ebp-0x66],0x73736563
00001159  66C7459E3A00      mov word [ebp-0x62],0x3a
0000115F  83EC0C            sub esp,byte +0xc
00001162  8D4586            lea eax,[ebp-0x7a]
00001165  50                push eax
00001166  E8A90D0000        call 0x1f14
0000116B  83C410            add esp,byte +0x10
0000116E  8B55A0            mov edx,[ebp-0x60]
00001171  8B45A4            mov eax,[ebp-0x5c]
00001174  01D0              add eax,edx
00001176  3945F0            cmp [ebp-0x10],eax
00001179  0F94C0            setz al
0000117C  0FB6C0            movzx eax,al
0000117F  83EC0C            sub esp,byte +0xc
00001182  50                push eax
00001183  E8100E0000        call 0x1f98
00001188  83C410            add esp,byte +0x10
0000118B  B8BEBAFECA        mov eax,0xcafebabe
00001190  8B5DFC            mov ebx,[ebp-0x4]
00001193  C9                leave
00001194  C3                ret
00001195  55                push ebp
00001196  89E5              mov ebp,esp
00001198  53                push ebx
00001199  83EC1C            sub esp,byte +0x1c
0000119C  E8790E0000        call 0x201a
000011A1  81C1E72E0000      add ecx,0x2ee7
000011A7  8B4514            mov eax,[ebp+0x14]
000011AA  668945E4          mov [ebp-0x1c],ax
000011AE  8B4510            mov eax,[ebp+0x10]
000011B1  BA00000000        mov edx,0x0
000011B6  2500000F00        and eax,0xf0000
000011BB  BA00000000        mov edx,0x0
000011C0  8945F0            mov [ebp-0x10],eax
000011C3  8955F4            mov [ebp-0xc],edx
000011C6  0FB745E4          movzx eax,word [ebp-0x1c]
000011CA  C1E008            shl eax,byte 0x8
000011CD  99                cdq
000011CE  2500FFF000        and eax,0xf0ff00
000011D3  BA00000000        mov edx,0x0
000011D8  0945F0            or [ebp-0x10],eax
000011DB  0955F4            or [ebp-0xc],edx
000011DE  8B450C            mov eax,[ebp+0xc]
000011E1  C1E810            shr eax,byte 0x10
000011E4  BA00000000        mov edx,0x0
000011E9  25FF000000        and eax,0xff
000011EE  BA00000000        mov edx,0x0
000011F3  0945F0            or [ebp-0x10],eax
000011F6  0955F4            or [ebp-0xc],edx
000011F9  8B450C            mov eax,[ebp+0xc]
000011FC  BA00000000        mov edx,0x0
00001201  25000000FF        and eax,0xff000000
00001206  BA00000000        mov edx,0x0
0000120B  0945F0            or [ebp-0x10],eax
0000120E  0955F4            or [ebp-0xc],edx
00001211  8B45F0            mov eax,[ebp-0x10]
00001214  8B55F4            mov edx,[ebp-0xc]
00001217  89C2              mov edx,eax
00001219  31C0              xor eax,eax
0000121B  8945F0            mov [ebp-0x10],eax
0000121E  8955F4            mov [ebp-0xc],edx
00001221  8B450C            mov eax,[ebp+0xc]
00001224  C1E010            shl eax,byte 0x10
00001227  BA00000000        mov edx,0x0
0000122C  0945F0            or [ebp-0x10],eax
0000122F  0955F4            or [ebp-0xc],edx
00001232  8B4510            mov eax,[ebp+0x10]
00001235  BA00000000        mov edx,0x0
0000123A  25FFFF0000        and eax,0xffff
0000123F  BA00000000        mov edx,0x0
00001244  0945F0            or [ebp-0x10],eax
00001247  0955F4            or [ebp-0xc],edx
0000124A  837D0804          cmp dword [ebp+0x8],byte +0x4
0000124E  7F19              jg 0x1269
00001250  8B5D08            mov ebx,[ebp+0x8]
00001253  8B45F0            mov eax,[ebp-0x10]
00001256  8B55F4            mov edx,[ebp-0xc]
00001259  8984D9781F0000    mov [ecx+ebx*8+0x1f78],eax
00001260  8994D97C1F0000    mov [ecx+ebx*8+0x1f7c],edx
00001267  EB01              jmp short 0x126a
00001269  90                nop
0000126A  8B5DFC            mov ebx,[ebp-0x4]
0000126D  C9                leave
0000126E  C3                ret
0000126F  55                push ebp
00001270  89E5              mov ebp,esp
00001272  53                push ebx
00001273  83EC04            sub esp,byte +0x4
00001276  E89B0D0000        call 0x2016
0000127B  81C30D2E0000      add ebx,0x2e0d
00001281  6A00              push byte +0x0
00001283  6A00              push byte +0x0
00001285  6A00              push byte +0x0
00001287  6A00              push byte +0x0
00001289  E807FFFFFF        call 0x1195
0000128E  83C410            add esp,byte +0x10
00001291  689AC00000        push dword 0xc09a
00001296  6AFF              push byte -0x1
00001298  6A00              push byte +0x0
0000129A  6A01              push byte +0x1
0000129C  E8F4FEFFFF        call 0x1195
000012A1  83C410            add esp,byte +0x10
000012A4  6892C00000        push dword 0xc092
000012A9  6AFF              push byte -0x1
000012AB  6A00              push byte +0x0
000012AD  6A02              push byte +0x2
000012AF  E8E1FEFFFF        call 0x1195
000012B4  83C410            add esp,byte +0x10
000012B7  68FAC00000        push dword 0xc0fa
000012BC  6AFF              push byte -0x1
000012BE  6A00              push byte +0x0
000012C0  6A03              push byte +0x3
000012C2  E8CEFEFFFF        call 0x1195
000012C7  83C410            add esp,byte +0x10
000012CA  68F2C00000        push dword 0xc0f2
000012CF  6AFF              push byte -0x1
000012D1  6A00              push byte +0x0
000012D3  6A04              push byte +0x4
000012D5  E8BBFEFFFF        call 0x1195
000012DA  83C410            add esp,byte +0x10
000012DD  8D83781F0000      lea eax,[ebx+0x1f78]
000012E3  8983A21F0000      mov [ebx+0x1fa2],eax
000012E9  66C783A01F000027  mov word [ebx+0x1fa0],0x27
         -00
000012F2  8D83A01F0000      lea eax,[ebx+0x1fa0]
000012F8  8B5DFC            mov ebx,[ebp-0x4]
000012FB  C9                leave
000012FC  C3                ret
000012FD  90                nop
000012FE  55                push ebp
000012FF  89E5              mov ebp,esp
00001301  53                push ebx
00001302  83EC04            sub esp,byte +0x4
00001305  E80C0D0000        call 0x2016
0000130A  81C37E2D0000      add ebx,0x2d7e
00001310  8B4508            mov eax,[ebp+0x8]
00001313  83C004            add eax,byte +0x4
00001316  83EC0C            sub esp,byte +0xc
00001319  50                push eax
0000131A  E8FF0C0000        call 0x201e
0000131F  83C410            add esp,byte +0x10
00001322  8B83A81F0000      mov eax,[ebx+0x1fa8]
00001328  8D5001            lea edx,[eax+0x1]
0000132B  8993A81F0000      mov [ebx+0x1fa8],edx
00001331  8B5508            mov edx,[ebp+0x8]
00001334  89421C            mov [edx+0x1c],eax
00001337  8B4508            mov eax,[ebp+0x8]
0000133A  8B550C            mov edx,[ebp+0xc]
0000133D  8B0A              mov ecx,[edx]
0000133F  89480C            mov [eax+0xc],ecx
00001342  8B4A04            mov ecx,[edx+0x4]
00001345  894810            mov [eax+0x10],ecx
00001348  8B4A08            mov ecx,[edx+0x8]
0000134B  894814            mov [eax+0x14],ecx
0000134E  8B520C            mov edx,[edx+0xc]
00001351  895018            mov [eax+0x18],edx
00001354  8B450C            mov eax,[ebp+0xc]
00001357  8B00              mov eax,[eax]
00001359  89C2              mov edx,eax
0000135B  8B4508            mov eax,[ebp+0x8]
0000135E  8910              mov [eax],edx
00001360  90                nop
00001361  8B5DFC            mov ebx,[ebp-0x4]
00001364  C9                leave
00001365  C3                ret
00001366  55                push ebp
00001367  89E5              mov ebp,esp
00001369  53                push ebx
0000136A  83EC34            sub esp,byte +0x34
0000136D  E8A40C0000        call 0x2016
00001372  81C3162D0000      add ebx,0x2d16
00001378  8B4508            mov eax,[ebp+0x8]
0000137B  8B5010            mov edx,[eax+0x10]
0000137E  8B4508            mov eax,[ebp+0x8]
00001381  8B400C            mov eax,[eax+0xc]
00001384  29C2              sub edx,eax
00001386  C1EA02            shr edx,byte 0x2
00001389  8B4508            mov eax,[ebp+0x8]
0000138C  8B400C            mov eax,[eax+0xc]
0000138F  0500100000        add eax,0x1000
00001394  89C1              mov ecx,eax
00001396  8B4508            mov eax,[ebp+0x8]
00001399  8B400C            mov eax,[eax+0xc]
0000139C  83EC04            sub esp,byte +0x4
0000139F  52                push edx
000013A0  51                push ecx
000013A1  50                push eax
000013A2  E8290C0000        call 0x1fd0
000013A7  83C410            add esp,byte +0x10
000013AA  C745E1656E7465    mov dword [ebp-0x1f],0x65746e65
000013B1  C745E572696E67    mov dword [ebp-0x1b],0x676e6972
000013B8  C745E92070726F    mov dword [ebp-0x17],0x6f727020
000013BF  C745ED63657373    mov dword [ebp-0x13],0x73736563
000013C6  C745F073200000    mov dword [ebp-0x10],0x2073
000013CD  83EC0C            sub esp,byte +0xc
000013D0  8D45E1            lea eax,[ebp-0x1f]
000013D3  50                push eax
000013D4  E83B0B0000        call 0x1f14
000013D9  83C410            add esp,byte +0x10
000013DC  8B4508            mov eax,[ebp+0x8]
000013DF  8B401C            mov eax,[eax+0x1c]
000013E2  83EC0C            sub esp,byte +0xc
000013E5  50                push eax
000013E6  E8AD0B0000        call 0x1f98
000013EB  83C410            add esp,byte +0x10
000013EE  8B4508            mov eax,[ebp+0x8]
000013F1  8B4004            mov eax,[eax+0x4]
000013F4  89C1              mov ecx,eax
000013F6  8B4508            mov eax,[ebp+0x8]
000013F9  8B4008            mov eax,[eax+0x8]
000013FC  8B5508            mov edx,[ebp+0x8]
000013FF  8B520C            mov edx,[edx+0xc]
00001402  81C200100000      add edx,0x1000
00001408  83EC04            sub esp,byte +0x4
0000140B  51                push ecx
0000140C  50                push eax
0000140D  52                push edx
0000140E  E85D000000        call 0x1470
00001413  83C410            add esp,byte +0x10
00001416  8945F4            mov [ebp-0xc],eax
00001419  C745CF65786974    mov dword [ebp-0x31],0x74697865
00001420  C745D3696E6720    mov dword [ebp-0x2d],0x20676e69
00001427  C745D770726F63    mov dword [ebp-0x29],0x636f7270
0000142E  C745DB65737320    mov dword [ebp-0x25],0x20737365
00001435  66C745DF0000      mov word [ebp-0x21],0x0
0000143B  83EC0C            sub esp,byte +0xc
0000143E  8D45CF            lea eax,[ebp-0x31]
00001441  50                push eax
00001442  E8CD0A0000        call 0x1f14
00001447  83C410            add esp,byte +0x10
0000144A  8B4508            mov eax,[ebp+0x8]
0000144D  8B401C            mov eax,[eax+0x1c]
00001450  83EC0C            sub esp,byte +0xc
00001453  50                push eax
00001454  E83F0B0000        call 0x1f98
00001459  83C410            add esp,byte +0x10
0000145C  8B45F4            mov eax,[ebp-0xc]
0000145F  8B5DFC            mov ebx,[ebp-0x4]
00001462  C9                leave
00001463  C3                ret
00001464  6690              xchg ax,ax
00001466  6690              xchg ax,ax
00001468  6690              xchg ax,ax
0000146A  6690              xchg ax,ax
0000146C  6690              xchg ax,ax
0000146E  6690              xchg ax,ax
00001470  55                push ebp
00001471  89E5              mov ebp,esp
00001473  8B5D08            mov ebx,[ebp+0x8]
00001476  8B4D0C            mov ecx,[ebp+0xc]
00001479  8B5510            mov edx,[ebp+0x10]
0000147C  89D0              mov eax,edx
0000147E  83F800            cmp eax,byte +0x0
00001481  7406              jz 0x1489
00001483  48                dec eax
00001484  FF3481            push dword [ecx+eax*4]
00001487  EBF5              jmp short 0x147e
00001489  FFD3              call ebx
0000148B  89EC              mov esp,ebp
0000148D  5D                pop ebp
0000148E  C3                ret
0000148F  90                nop
00001490  8A442408          mov al,[esp+0x8]
00001494  668B542404        mov dx,[esp+0x4]
00001499  EE                out dx,al
0000149A  C3                ret
0000149B  668B542404        mov dx,[esp+0x4]
000014A0  EC                in al,dx
000014A1  C3                ret
000014A2  55                push ebp
000014A3  89E5              mov ebp,esp
000014A5  53                push ebx
000014A6  83EC14            sub esp,byte +0x14
000014A9  E8680B0000        call 0x2016
000014AE  81C3DA2B0000      add ebx,0x2bda
000014B4  8B4508            mov eax,[ebp+0x8]
000014B7  668945F4          mov [ebp-0xc],ax
000014BB  83EC08            sub esp,byte +0x8
000014BE  6A0E              push byte +0xe
000014C0  68D4030000        push dword 0x3d4
000014C5  E8C6FFFFFF        call 0x1490
000014CA  83C410            add esp,byte +0x10
000014CD  0FB745F4          movzx eax,word [ebp-0xc]
000014D1  66C1E808          shr ax,byte 0x8
000014D5  0FB6C0            movzx eax,al
000014D8  83EC08            sub esp,byte +0x8
000014DB  50                push eax
000014DC  68D5030000        push dword 0x3d5
000014E1  E8AAFFFFFF        call 0x1490
000014E6  83C410            add esp,byte +0x10
000014E9  83EC08            sub esp,byte +0x8
000014EC  6A0F              push byte +0xf
000014EE  68D4030000        push dword 0x3d4
000014F3  E898FFFFFF        call 0x1490
000014F8  83C410            add esp,byte +0x10
000014FB  0FB745F4          movzx eax,word [ebp-0xc]
000014FF  0FB6C0            movzx eax,al
00001502  83EC08            sub esp,byte +0x8
00001505  50                push eax
00001506  68D5030000        push dword 0x3d5
0000150B  E880FFFFFF        call 0x1490
00001510  83C410            add esp,byte +0x10
00001513  90                nop
00001514  8B5DFC            mov ebx,[ebp-0x4]
00001517  C9                leave
00001518  C3                ret
00001519  55                push ebp
0000151A  89E5              mov ebp,esp
0000151C  53                push ebx
0000151D  83EC0C            sub esp,byte +0xc
00001520  E8120B0000        call 0x2037
00001525  05632B0000        add eax,0x2b63
0000152A  8B5D0C            mov ebx,[ebp+0xc]
0000152D  8B4D10            mov ecx,[ebp+0x10]
00001530  8B5514            mov edx,[ebp+0x14]
00001533  885DF8            mov [ebp-0x8],bl
00001536  884DF4            mov [ebp-0xc],cl
00001539  8855F0            mov [ebp-0x10],dl
0000153C  8B8878FFFFFF      mov ecx,[eax-0x88]
00001542  8B5508            mov edx,[ebp+0x8]
00001545  01D1              add ecx,edx
00001547  0FB655F8          movzx edx,byte [ebp-0x8]
0000154B  8811              mov [ecx],dl
0000154D  0FB655F0          movzx edx,byte [ebp-0x10]
00001551  89D3              mov ebx,edx
00001553  C1E304            shl ebx,byte 0x4
00001556  0FB655F4          movzx edx,byte [ebp-0xc]
0000155A  89D1              mov ecx,edx
0000155C  83E10F            and ecx,byte +0xf
0000155F  8B8078FFFFFF      mov eax,[eax-0x88]
00001565  8B5508            mov edx,[ebp+0x8]
00001568  83C201            add edx,byte +0x1
0000156B  01D0              add eax,edx
0000156D  09CB              or ebx,ecx
0000156F  89DA              mov edx,ebx
00001571  8810              mov [eax],dl
00001573  90                nop
00001574  8B5DFC            mov ebx,[ebp-0x4]
00001577  C9                leave
00001578  C3                ret
00001579  55                push ebp
0000157A  89E5              mov ebp,esp
0000157C  57                push edi
0000157D  56                push esi
0000157E  53                push ebx
0000157F  83EC2C            sub esp,byte +0x2c
00001582  E88F0A0000        call 0x2016
00001587  81C3012B0000      add ebx,0x2b01
0000158D  8B5510            mov edx,[ebp+0x10]
00001590  8B4514            mov eax,[ebp+0x14]
00001593  8855D4            mov [ebp-0x2c],dl
00001596  8845D0            mov [ebp-0x30],al
00001599  C745E400000000    mov dword [ebp-0x1c],0x0
000015A0  EB41              jmp short 0x15e3
000015A2  0FB64DD0          movzx ecx,byte [ebp-0x30]
000015A6  0FB655D4          movzx edx,byte [ebp-0x2c]
000015AA  8B7508            mov esi,[ebp+0x8]
000015AD  8B45E4            mov eax,[ebp-0x1c]
000015B0  01F0              add eax,esi
000015B2  0FB600            movzx eax,byte [eax]
000015B5  0FBEC0            movsx eax,al
000015B8  8B75E4            mov esi,[ebp-0x1c]
000015BB  8D3C36            lea edi,[esi+esi]
000015BE  8BB3AC1F0000      mov esi,[ebx+0x1fac]
000015C4  01FE              add esi,edi
000015C6  51                push ecx
000015C7  52                push edx
000015C8  50                push eax
000015C9  56                push esi
000015CA  E84AFFFFFF        call 0x1519
000015CF  83C410            add esp,byte +0x10
000015D2  83EC0C            sub esp,byte +0xc
000015D5  6A02              push byte +0x2
000015D7  E8C6FEFFFF        call 0x14a2
000015DC  83C410            add esp,byte +0x10
000015DF  8345E401          add dword [ebp-0x1c],byte +0x1
000015E3  8B45E4            mov eax,[ebp-0x1c]
000015E6  3B450C            cmp eax,[ebp+0xc]
000015E9  72B7              jc 0x15a2
000015EB  8B450C            mov eax,[ebp+0xc]
000015EE  8D1400            lea edx,[eax+eax]
000015F1  8B83AC1F0000      mov eax,[ebx+0x1fac]
000015F7  01D0              add eax,edx
000015F9  8983AC1F0000      mov [ebx+0x1fac],eax
000015FF  90                nop
00001600  8D65F4            lea esp,[ebp-0xc]
00001603  5B                pop ebx
00001604  5E                pop esi
00001605  5F                pop edi
00001606  5D                pop ebp
00001607  C3                ret
00001608  55                push ebp
00001609  89E5              mov ebp,esp
0000160B  53                push ebx
0000160C  83EC14            sub esp,byte +0x14
0000160F  E8020A0000        call 0x2016
00001614  81C3742A0000      add ebx,0x2a74
0000161A  8B5508            mov edx,[ebp+0x8]
0000161D  8B450C            mov eax,[ebp+0xc]
00001620  668955F4          mov [ebp-0xc],dx
00001624  668945F0          mov [ebp-0x10],ax
00001628  0FB745F4          movzx eax,word [ebp-0xc]
0000162C  83C003            add eax,byte +0x3
0000162F  0FB7C0            movzx eax,ax
00001632  83EC08            sub esp,byte +0x8
00001635  6880000000        push dword 0x80
0000163A  50                push eax
0000163B  E850FEFFFF        call 0x1490
00001640  83C410            add esp,byte +0x10
00001643  0FB745F0          movzx eax,word [ebp-0x10]
00001647  66C1E808          shr ax,byte 0x8
0000164B  0FB6D0            movzx edx,al
0000164E  0FB745F4          movzx eax,word [ebp-0xc]
00001652  83EC08            sub esp,byte +0x8
00001655  52                push edx
00001656  50                push eax
00001657  E834FEFFFF        call 0x1490
0000165C  83C410            add esp,byte +0x10
0000165F  0FB745F0          movzx eax,word [ebp-0x10]
00001663  0FB6D0            movzx edx,al
00001666  0FB745F4          movzx eax,word [ebp-0xc]
0000166A  83EC08            sub esp,byte +0x8
0000166D  52                push edx
0000166E  50                push eax
0000166F  E81CFEFFFF        call 0x1490
00001674  83C410            add esp,byte +0x10
00001677  90                nop
00001678  8B5DFC            mov ebx,[ebp-0x4]
0000167B  C9                leave
0000167C  C3                ret
0000167D  55                push ebp
0000167E  89E5              mov ebp,esp
00001680  53                push ebx
00001681  83EC14            sub esp,byte +0x14
00001684  E8AE090000        call 0x2037
00001689  05FF290000        add eax,0x29ff
0000168E  8B5508            mov edx,[ebp+0x8]
00001691  668955F4          mov [ebp-0xc],dx
00001695  0FB755F4          movzx edx,word [ebp-0xc]
00001699  83C203            add edx,byte +0x3
0000169C  0FB7D2            movzx edx,dx
0000169F  83EC08            sub esp,byte +0x8
000016A2  6A03              push byte +0x3
000016A4  52                push edx
000016A5  89C3              mov ebx,eax
000016A7  E8E4FDFFFF        call 0x1490
000016AC  83C410            add esp,byte +0x10
000016AF  90                nop
000016B0  8B5DFC            mov ebx,[ebp-0x4]
000016B3  C9                leave
000016B4  C3                ret
000016B5  55                push ebp
000016B6  89E5              mov ebp,esp
000016B8  53                push ebx
000016B9  83EC14            sub esp,byte +0x14
000016BC  E876090000        call 0x2037
000016C1  05C7290000        add eax,0x29c7
000016C6  8B5508            mov edx,[ebp+0x8]
000016C9  668955F4          mov [ebp-0xc],dx
000016CD  0FB755F4          movzx edx,word [ebp-0xc]
000016D1  83C202            add edx,byte +0x2
000016D4  0FB7D2            movzx edx,dx
000016D7  83EC08            sub esp,byte +0x8
000016DA  68C7000000        push dword 0xc7
000016DF  52                push edx
000016E0  89C3              mov ebx,eax
000016E2  E8A9FDFFFF        call 0x1490
000016E7  83C410            add esp,byte +0x10
000016EA  90                nop
000016EB  8B5DFC            mov ebx,[ebp-0x4]
000016EE  C9                leave
000016EF  C3                ret
000016F0  55                push ebp
000016F1  89E5              mov ebp,esp
000016F3  53                push ebx
000016F4  83EC14            sub esp,byte +0x14
000016F7  E83B090000        call 0x2037
000016FC  058C290000        add eax,0x298c
00001701  8B5508            mov edx,[ebp+0x8]
00001704  668955F4          mov [ebp-0xc],dx
00001708  0FB755F4          movzx edx,word [ebp-0xc]
0000170C  83C204            add edx,byte +0x4
0000170F  0FB7D2            movzx edx,dx
00001712  83EC08            sub esp,byte +0x8
00001715  6A03              push byte +0x3
00001717  52                push edx
00001718  89C3              mov ebx,eax
0000171A  E871FDFFFF        call 0x1490
0000171F  83C410            add esp,byte +0x10
00001722  90                nop
00001723  8B5DFC            mov ebx,[ebp-0x4]
00001726  C9                leave
00001727  C3                ret
00001728  55                push ebp
00001729  89E5              mov ebp,esp
0000172B  53                push ebx
0000172C  83EC14            sub esp,byte +0x14
0000172F  E803090000        call 0x2037
00001734  0554290000        add eax,0x2954
00001739  8B5508            mov edx,[ebp+0x8]
0000173C  668955F4          mov [ebp-0xc],dx
00001740  0FB755F4          movzx edx,word [ebp-0xc]
00001744  83C205            add edx,byte +0x5
00001747  0FB7D2            movzx edx,dx
0000174A  83EC0C            sub esp,byte +0xc
0000174D  52                push edx
0000174E  89C3              mov ebx,eax
00001750  E846FDFFFF        call 0x149b
00001755  83C410            add esp,byte +0x10
00001758  0FB6C0            movzx eax,al
0000175B  83E020            and eax,byte +0x20
0000175E  8B5DFC            mov ebx,[ebp-0x4]
00001761  C9                leave
00001762  C3                ret
00001763  55                push ebp
00001764  89E5              mov ebp,esp
00001766  83EC28            sub esp,byte +0x28
00001769  E8C9080000        call 0x2037
0000176E  051A290000        add eax,0x291a
00001773  8B4508            mov eax,[ebp+0x8]
00001776  668945E4          mov [ebp-0x1c],ax
0000177A  C745F400000000    mov dword [ebp-0xc],0x0
00001781  EB23              jmp short 0x17a6
00001783  8B550C            mov edx,[ebp+0xc]
00001786  8B45F4            mov eax,[ebp-0xc]
00001789  01D0              add eax,edx
0000178B  0FB600            movzx eax,byte [eax]
0000178E  0FBED0            movsx edx,al
00001791  0FB745E4          movzx eax,word [ebp-0x1c]
00001795  83EC08            sub esp,byte +0x8
00001798  52                push edx
00001799  50                push eax
0000179A  E816000000        call 0x17b5
0000179F  83C410            add esp,byte +0x10
000017A2  8345F401          add dword [ebp-0xc],byte +0x1
000017A6  8B45F4            mov eax,[ebp-0xc]
000017A9  3B4510            cmp eax,[ebp+0x10]
000017AC  72D5              jc 0x1783
000017AE  B800000000        mov eax,0x0
000017B3  C9                leave
000017B4  C3                ret
000017B5  55                push ebp
000017B6  89E5              mov ebp,esp
000017B8  53                push ebx
000017B9  83EC14            sub esp,byte +0x14
000017BC  E855080000        call 0x2016
000017C1  81C3C7280000      add ebx,0x28c7
000017C7  8B5508            mov edx,[ebp+0x8]
000017CA  8B450C            mov eax,[ebp+0xc]
000017CD  668955F4          mov [ebp-0xc],dx
000017D1  8845F0            mov [ebp-0x10],al
000017D4  90                nop
000017D5  0FB745F4          movzx eax,word [ebp-0xc]
000017D9  83EC0C            sub esp,byte +0xc
000017DC  50                push eax
000017DD  E846FFFFFF        call 0x1728
000017E2  83C410            add esp,byte +0x10
000017E5  85C0              test eax,eax
000017E7  0F94C0            setz al
000017EA  84C0              test al,al
000017EC  75E7              jnz 0x17d5
000017EE  0FB645F0          movzx eax,byte [ebp-0x10]
000017F2  0FB6D0            movzx edx,al
000017F5  0FB745F4          movzx eax,word [ebp-0xc]
000017F9  83EC08            sub esp,byte +0x8
000017FC  52                push edx
000017FD  50                push eax
000017FE  E88DFCFFFF        call 0x1490
00001803  83C410            add esp,byte +0x10
00001806  90                nop
00001807  8B5DFC            mov ebx,[ebp-0x4]
0000180A  C9                leave
0000180B  C3                ret
0000180C  55                push ebp
0000180D  89E5              mov ebp,esp
0000180F  83EC18            sub esp,byte +0x18
00001812  E820080000        call 0x2037
00001817  0571280000        add eax,0x2871
0000181C  8B4D08            mov ecx,[ebp+0x8]
0000181F  8B550C            mov edx,[ebp+0xc]
00001822  66894DF4          mov [ebp-0xc],cx
00001826  668955F0          mov [ebp-0x10],dx
0000182A  0FB755F4          movzx edx,word [ebp-0xc]
0000182E  8990B01F0000      mov [eax+0x1fb0],edx
00001834  0FB755F0          movzx edx,word [ebp-0x10]
00001838  0FB745F4          movzx eax,word [ebp-0xc]
0000183C  83EC08            sub esp,byte +0x8
0000183F  52                push edx
00001840  50                push eax
00001841  E8C2FDFFFF        call 0x1608
00001846  83C410            add esp,byte +0x10
00001849  0FB745F4          movzx eax,word [ebp-0xc]
0000184D  83EC0C            sub esp,byte +0xc
00001850  50                push eax
00001851  E827FEFFFF        call 0x167d
00001856  83C410            add esp,byte +0x10
00001859  0FB745F4          movzx eax,word [ebp-0xc]
0000185D  83EC0C            sub esp,byte +0xc
00001860  50                push eax
00001861  E84FFEFFFF        call 0x16b5
00001866  83C410            add esp,byte +0x10
00001869  0FB745F4          movzx eax,word [ebp-0xc]
0000186D  83EC0C            sub esp,byte +0xc
00001870  50                push eax
00001871  E87AFEFFFF        call 0x16f0
00001876  83C410            add esp,byte +0x10
00001879  90                nop
0000187A  C9                leave
0000187B  C3                ret
0000187C  55                push ebp
0000187D  89E5              mov ebp,esp
0000187F  53                push ebx
00001880  83EC24            sub esp,byte +0x24
00001883  E8AF070000        call 0x2037
00001888  0500280000        add eax,0x2800
0000188D  C745E5696E7465    mov dword [ebp-0x1b],0x65746e69
00001894  C745E972727570    mov dword [ebp-0x17],0x70757272
0000189B  C745ED74732072    mov dword [ebp-0x13],0x72207374
000018A2  C745F1756E6E69    mov dword [ebp-0xf],0x696e6e75
000018A9  C745F4696E6700    mov dword [ebp-0xc],0x676e69
000018B0  83EC0C            sub esp,byte +0xc
000018B3  8D55E5            lea edx,[ebp-0x1b]
000018B6  52                push edx
000018B7  89C3              mov ebx,eax
000018B9  E856060000        call 0x1f14
000018BE  83C410            add esp,byte +0x10
000018C1  B820000000        mov eax,0x20
000018C6  8B5DFC            mov ebx,[ebp-0x4]
000018C9  C9                leave
000018CA  C3                ret
000018CB  55                push ebp
000018CC  89E5              mov ebp,esp
000018CE  83EC10            sub esp,byte +0x10
000018D1  E861070000        call 0x2037
000018D6  05B2270000        add eax,0x27b2
000018DB  C745FCBEBAFECA    mov dword [ebp-0x4],0xcafebabe
000018E2  8345FC01          add dword [ebp-0x4],byte +0x1
000018E6  FA                cli
000018E7  F4                hlt
000018E8  90                nop
000018E9  C9                leave
000018EA  C3                ret
000018EB  55                push ebp
000018EC  89E5              mov ebp,esp
000018EE  53                push ebx
000018EF  83EC14            sub esp,byte +0x14
000018F2  E840070000        call 0x2037
000018F7  0591270000        add eax,0x2791
000018FC  C745EA696E7420    mov dword [ebp-0x16],0x20746e69
00001903  C745EE38207265    mov dword [ebp-0x12],0x65722038
0000190A  C745F263697665    mov dword [ebp-0xe],0x65766963
00001911  66C745F66400      mov word [ebp-0xa],0x64
00001917  83EC0C            sub esp,byte +0xc
0000191A  8D55EA            lea edx,[ebp-0x16]
0000191D  52                push edx
0000191E  89C3              mov ebx,eax
00001920  E8EF050000        call 0x1f14
00001925  83C410            add esp,byte +0x10
00001928  90                nop
00001929  8B5DFC            mov ebx,[ebp-0x4]
0000192C  C9                leave
0000192D  C3                ret
0000192E  55                push ebp
0000192F  89E5              mov ebp,esp
00001931  83EC18            sub esp,byte +0x18
00001934  E8FE060000        call 0x2037
00001939  054F270000        add eax,0x274f
0000193E  8B4D08            mov ecx,[ebp+0x8]
00001941  8B5510            mov edx,[ebp+0x10]
00001944  884DEC            mov [ebp-0x14],cl
00001947  8855E8            mov [ebp-0x18],dl
0000194A  0FB655EC          movzx edx,byte [ebp-0x14]
0000194E  C1E203            shl edx,byte 0x3
00001951  8D80B81F0000      lea eax,[eax+0x1fb8]
00001957  01D0              add eax,edx
00001959  8945FC            mov [ebp-0x4],eax
0000195C  8B450C            mov eax,[ebp+0xc]
0000195F  89C2              mov edx,eax
00001961  8B45FC            mov eax,[ebp-0x4]
00001964  668910            mov [eax],dx
00001967  8B45FC            mov eax,[ebp-0x4]
0000196A  66C740020800      mov word [eax+0x2],0x8
00001970  8B45FC            mov eax,[ebp-0x4]
00001973  0FB655E8          movzx edx,byte [ebp-0x18]
00001977  885005            mov [eax+0x5],dl
0000197A  8B450C            mov eax,[ebp+0xc]
0000197D  C1E810            shr eax,byte 0x10
00001980  89C2              mov edx,eax
00001982  8B45FC            mov eax,[ebp-0x4]
00001985  66895006          mov [eax+0x6],dx
00001989  8B45FC            mov eax,[ebp-0x4]
0000198C  C6400400          mov byte [eax+0x4],0x0
00001990  90                nop
00001991  C9                leave
00001992  C3                ret
00001993  55                push ebp
00001994  89E5              mov ebp,esp
00001996  53                push ebx
00001997  83EC10            sub esp,byte +0x10
0000199A  E877060000        call 0x2016
0000199F  81C3E9260000      add ebx,0x26e9
000019A5  8D83B81F0000      lea eax,[ebx+0x1fb8]
000019AB  8983BA270000      mov [ebx+0x27ba],eax
000019B1  66C783B827000007  mov word [ebx+0x27b8],0x107
         -01
000019BA  C645FB00          mov byte [ebp-0x5],0x0
000019BE  EB36              jmp short 0x19f6
000019C0  0FB655FB          movzx edx,byte [ebp-0x5]
000019C4  C7C004301000      mov eax,0x103004
000019CA  8B1490            mov edx,[eax+edx*4]
000019CD  0FB645FB          movzx eax,byte [ebp-0x5]
000019D1  688E000000        push dword 0x8e
000019D6  52                push edx
000019D7  50                push eax
000019D8  E851FFFFFF        call 0x192e
000019DD  83C40C            add esp,byte +0xc
000019E0  0FB645FB          movzx eax,byte [ebp-0x5]
000019E4  C68403D827000001  mov byte [ebx+eax+0x27d8],0x1
000019EC  0FB645FB          movzx eax,byte [ebp-0x5]
000019F0  83C001            add eax,byte +0x1
000019F3  8845FB            mov [ebp-0x5],al
000019F6  807DFB20          cmp byte [ebp-0x5],0x20
000019FA  76C4              jna 0x19c0
000019FC  8D83B8270000      lea eax,[ebx+0x27b8]
00001A02  8B5DFC            mov ebx,[ebp-0x4]
00001A05  C9                leave
00001A06  C3                ret
00001A07  6690              xchg ax,ax
00001A09  6690              xchg ax,ax
00001A0B  6690              xchg ax,ax
00001A0D  6690              xchg ax,ax
00001A0F  90                nop
00001A10  B8EFBEADDE        mov eax,0xdeadbeef
00001A15  BB00000000        mov ebx,0x0
00001A1A  FA                cli
00001A1B  F4                hlt
00001A1C  CF                iret
00001A1D  B8EFBEADDE        mov eax,0xdeadbeef
00001A22  BB01000000        mov ebx,0x1
00001A27  FA                cli
00001A28  F4                hlt
00001A29  CF                iret
00001A2A  B8EFBEADDE        mov eax,0xdeadbeef
00001A2F  BB02000000        mov ebx,0x2
00001A34  FA                cli
00001A35  F4                hlt
00001A36  CF                iret
00001A37  B8EFBEADDE        mov eax,0xdeadbeef
00001A3C  BB03000000        mov ebx,0x3
00001A41  FA                cli
00001A42  F4                hlt
00001A43  CF                iret
00001A44  B8EFBEADDE        mov eax,0xdeadbeef
00001A49  BB04000000        mov ebx,0x4
00001A4E  FA                cli
00001A4F  F4                hlt
00001A50  CF                iret
00001A51  B8EFBEADDE        mov eax,0xdeadbeef
00001A56  BB05000000        mov ebx,0x5
00001A5B  FA                cli
00001A5C  F4                hlt
00001A5D  CF                iret
00001A5E  B8EFBEADDE        mov eax,0xdeadbeef
00001A63  BB06000000        mov ebx,0x6
00001A68  FA                cli
00001A69  F4                hlt
00001A6A  CF                iret
00001A6B  B8EFBEADDE        mov eax,0xdeadbeef
00001A70  BB07000000        mov ebx,0x7
00001A75  FA                cli
00001A76  F4                hlt
00001A77  CF                iret
00001A78  E86EFEFFFF        call 0x18eb
00001A7D  CF                iret
00001A7E  B8EFBEADDE        mov eax,0xdeadbeef
00001A83  BB09000000        mov ebx,0x9
00001A88  FA                cli
00001A89  F4                hlt
00001A8A  CF                iret
00001A8B  B8EFBEADDE        mov eax,0xdeadbeef
00001A90  BB0A000000        mov ebx,0xa
00001A95  FA                cli
00001A96  F4                hlt
00001A97  CF                iret
00001A98  B8EFBEADDE        mov eax,0xdeadbeef
00001A9D  BB0B000000        mov ebx,0xb
00001AA2  FA                cli
00001AA3  F4                hlt
00001AA4  CF                iret
00001AA5  B8EFBEADDE        mov eax,0xdeadbeef
00001AAA  BB0C000000        mov ebx,0xc
00001AAF  FA                cli
00001AB0  F4                hlt
00001AB1  CF                iret
00001AB2  B8EFBEADDE        mov eax,0xdeadbeef
00001AB7  BB0D000000        mov ebx,0xd
00001ABC  FA                cli
00001ABD  F4                hlt
00001ABE  CF                iret
00001ABF  E807FEFFFF        call 0x18cb
00001AC4  CF                iret
00001AC5  B8EFBEADDE        mov eax,0xdeadbeef
00001ACA  BB0F000000        mov ebx,0xf
00001ACF  FA                cli
00001AD0  F4                hlt
00001AD1  CF                iret
00001AD2  B8EFBEADDE        mov eax,0xdeadbeef
00001AD7  BB10000000        mov ebx,0x10
00001ADC  FA                cli
00001ADD  F4                hlt
00001ADE  CF                iret
00001ADF  B8EFBEADDE        mov eax,0xdeadbeef
00001AE4  BB11000000        mov ebx,0x11
00001AE9  FA                cli
00001AEA  F4                hlt
00001AEB  CF                iret
00001AEC  B8EFBEADDE        mov eax,0xdeadbeef
00001AF1  BB12000000        mov ebx,0x12
00001AF6  FA                cli
00001AF7  F4                hlt
00001AF8  CF                iret
00001AF9  B8EFBEADDE        mov eax,0xdeadbeef
00001AFE  BB13000000        mov ebx,0x13
00001B03  FA                cli
00001B04  F4                hlt
00001B05  CF                iret
00001B06  B8EFBEADDE        mov eax,0xdeadbeef
00001B0B  BB14000000        mov ebx,0x14
00001B10  FA                cli
00001B11  F4                hlt
00001B12  CF                iret
00001B13  B8EFBEADDE        mov eax,0xdeadbeef
00001B18  BB15000000        mov ebx,0x15
00001B1D  FA                cli
00001B1E  F4                hlt
00001B1F  CF                iret
00001B20  B8EFBEADDE        mov eax,0xdeadbeef
00001B25  BB16000000        mov ebx,0x16
00001B2A  FA                cli
00001B2B  F4                hlt
00001B2C  CF                iret
00001B2D  B8EFBEADDE        mov eax,0xdeadbeef
00001B32  BB17000000        mov ebx,0x17
00001B37  FA                cli
00001B38  F4                hlt
00001B39  CF                iret
00001B3A  B8EFBEADDE        mov eax,0xdeadbeef
00001B3F  BB18000000        mov ebx,0x18
00001B44  FA                cli
00001B45  F4                hlt
00001B46  CF                iret
00001B47  B8EFBEADDE        mov eax,0xdeadbeef
00001B4C  BB19000000        mov ebx,0x19
00001B51  FA                cli
00001B52  F4                hlt
00001B53  CF                iret
00001B54  B8EFBEADDE        mov eax,0xdeadbeef
00001B59  BB1A000000        mov ebx,0x1a
00001B5E  FA                cli
00001B5F  F4                hlt
00001B60  CF                iret
00001B61  B8EFBEADDE        mov eax,0xdeadbeef
00001B66  BB1B000000        mov ebx,0x1b
00001B6B  FA                cli
00001B6C  F4                hlt
00001B6D  CF                iret
00001B6E  B8EFBEADDE        mov eax,0xdeadbeef
00001B73  BB1C000000        mov ebx,0x1c
00001B78  FA                cli
00001B79  F4                hlt
00001B7A  CF                iret
00001B7B  B8EFBEADDE        mov eax,0xdeadbeef
00001B80  BB1D000000        mov ebx,0x1d
00001B85  FA                cli
00001B86  F4                hlt
00001B87  CF                iret
00001B88  B8EFBEADDE        mov eax,0xdeadbeef
00001B8D  BB1E000000        mov ebx,0x1e
00001B92  FA                cli
00001B93  F4                hlt
00001B94  CF                iret
00001B95  B8EFBEADDE        mov eax,0xdeadbeef
00001B9A  BB1F000000        mov ebx,0x1f
00001B9F  FA                cli
00001BA0  F4                hlt
00001BA1  CF                iret
00001BA2  E8D5FCFFFF        call 0x187c
00001BA7  CF                iret
00001BA8  6690              xchg ax,ax
00001BAA  6690              xchg ax,ax
00001BAC  6690              xchg ax,ax
00001BAE  6690              xchg ax,ax
00001BB0  0F20C0            mov eax,cr0
00001BB3  0D00000080        or eax,0x80000000
00001BB8  0F22C0            mov cr0,eax
00001BBB  C3                ret
00001BBC  55                push ebp
00001BBD  89E5              mov ebp,esp
00001BBF  53                push ebx
00001BC0  83EC14            sub esp,byte +0x14
00001BC3  E84E040000        call 0x2016
00001BC8  81C3C0240000      add ebx,0x24c0
00001BCE  83EC0C            sub esp,byte +0xc
00001BD1  8D83782F0000      lea eax,[ebx+0x2f78]
00001BD7  50                push eax
00001BD8  E8CB000000        call 0x1ca8
00001BDD  83C410            add esp,byte +0x10
00001BE0  E888010000        call 0x1d6d
00001BE5  66C745EA0300      mov word [ebp-0x16],0x3
00001BEB  0FB755EA          movzx edx,word [ebp-0x16]
00001BEF  8D83783F0000      lea eax,[ebx+0x3f78]
00001BF5  09D0              or eax,edx
00001BF7  8983782F0000      mov [ebx+0x2f78],eax
00001BFD  C745F400000000    mov dword [ebp-0xc],0x0
00001C04  EB22              jmp short 0x1c28
00001C06  0FB745EA          movzx eax,word [ebp-0x16]
00001C0A  8B55F4            mov edx,[ebp-0xc]
00001C0D  C1E20C            shl edx,byte 0xc
00001C10  83EC04            sub esp,byte +0x4
00001C13  50                push eax
00001C14  52                push edx
00001C15  8D83782F0000      lea eax,[ebx+0x2f78]
00001C1B  50                push eax
00001C1C  E8C6000000        call 0x1ce7
00001C21  83C410            add esp,byte +0x10
00001C24  8345F401          add dword [ebp-0xc],byte +0x1
00001C28  817DF4FF030000    cmp dword [ebp-0xc],0x3ff
00001C2F  76D5              jna 0x1c06
00001C31  C745F000000000    mov dword [ebp-0x10],0x0
00001C38  C745EC00000000    mov dword [ebp-0x14],0x0
00001C3F  EB22              jmp short 0x1c63
00001C41  8B45EC            mov eax,[ebp-0x14]
00001C44  8B9483783F0000    mov edx,[ebx+eax*4+0x3f78]
00001C4B  8B45EC            mov eax,[ebp-0x14]
00001C4E  C1E00C            shl eax,byte 0xc
00001C51  83C803            or eax,byte +0x3
00001C54  39C2              cmp edx,eax
00001C56  0F95C0            setnz al
00001C59  0FB6C0            movzx eax,al
00001C5C  0145F0            add [ebp-0x10],eax
00001C5F  8345EC01          add dword [ebp-0x14],byte +0x1
00001C63  817DECFF030000    cmp dword [ebp-0x14],0x3ff
00001C6A  76D5              jna 0x1c41
00001C6C  837DF000          cmp dword [ebp-0x10],byte +0x0
00001C70  7407              jz 0x1c79
00001C72  FA                cli
00001C73  F4                hlt
00001C74  B8FC000000        mov eax,0xfc
00001C79  83EC0C            sub esp,byte +0xc
00001C7C  8D83782F0000      lea eax,[ebx+0x2f78]
00001C82  50                push eax
00001C83  E818000000        call 0x1ca0
00001C88  83C410            add esp,byte +0x10
00001C8B  E820FFFFFF        call 0x1bb0
00001C90  90                nop
00001C91  8B5DFC            mov ebx,[ebp-0x4]
00001C94  C9                leave
00001C95  C3                ret
00001C96  6690              xchg ax,ax
00001C98  6690              xchg ax,ax
00001C9A  6690              xchg ax,ax
00001C9C  6690              xchg ax,ax
00001C9E  6690              xchg ax,ax
00001CA0  8B442404          mov eax,[esp+0x4]
00001CA4  0F22D8            mov cr3,eax
00001CA7  C3                ret
00001CA8  55                push ebp
00001CA9  89E5              mov ebp,esp
00001CAB  83EC10            sub esp,byte +0x10
00001CAE  E884030000        call 0x2037
00001CB3  05D5230000        add eax,0x23d5
00001CB8  C745FC00000000    mov dword [ebp-0x4],0x0
00001CBF  EB19              jmp short 0x1cda
00001CC1  8B45FC            mov eax,[ebp-0x4]
00001CC4  8D148500000000    lea edx,[eax*4+0x0]
00001CCB  8B4508            mov eax,[ebp+0x8]
00001CCE  01D0              add eax,edx
00001CD0  C70002000000      mov dword [eax],0x2
00001CD6  8345FC01          add dword [ebp-0x4],byte +0x1
00001CDA  817DFCFF030000    cmp dword [ebp-0x4],0x3ff
00001CE1  7EDE              jng 0x1cc1
00001CE3  90                nop
00001CE4  90                nop
00001CE5  C9                leave
00001CE6  C3                ret
00001CE7  55                push ebp
00001CE8  89E5              mov ebp,esp
00001CEA  83EC28            sub esp,byte +0x28
00001CED  E845030000        call 0x2037
00001CF2  0596230000        add eax,0x2396
00001CF7  8B4510            mov eax,[ebp+0x10]
00001CFA  668945E4          mov [ebp-0x1c],ax
00001CFE  E8A2000000        call 0x1da5
00001D03  8945F4            mov [ebp-0xc],eax
00001D06  837DF401          cmp dword [ebp-0xc],byte +0x1
00001D0A  7507              jnz 0x1d13
00001D0C  FA                cli
00001D0D  F4                hlt
00001D0E  B8FF000000        mov eax,0xff
00001D13  8B450C            mov eax,[ebp+0xc]
00001D16  C1E816            shr eax,byte 0x16
00001D19  8945F0            mov [ebp-0x10],eax
00001D1C  8B45F0            mov eax,[ebp-0x10]
00001D1F  8D148500000000    lea edx,[eax*4+0x0]
00001D26  8B4508            mov eax,[ebp+0x8]
00001D29  01D0              add eax,edx
00001D2B  8B00              mov eax,[eax]
00001D2D  2500F0FFFF        and eax,0xfffff000
00001D32  8945EC            mov [ebp-0x14],eax
00001D35  837DEC00          cmp dword [ebp-0x14],byte +0x0
00001D39  7507              jnz 0x1d42
00001D3B  FA                cli
00001D3C  F4                hlt
00001D3D  B8FD000000        mov eax,0xfd
00001D42  8B450C            mov eax,[ebp+0xc]
00001D45  2500F03F00        and eax,0x3ff000
00001D4A  C1E80C            shr eax,byte 0xc
00001D4D  8945E8            mov [ebp-0x18],eax
00001D50  0FB745E4          movzx eax,word [ebp-0x1c]
00001D54  8B55E8            mov edx,[ebp-0x18]
00001D57  8D0C9500000000    lea ecx,[edx*4+0x0]
00001D5E  8B55EC            mov edx,[ebp-0x14]
00001D61  01CA              add edx,ecx
00001D63  0B45F4            or eax,[ebp-0xc]
00001D66  8902              mov [edx],eax
00001D68  8B45F4            mov eax,[ebp-0xc]
00001D6B  C9                leave
00001D6C  C3                ret
00001D6D  55                push ebp
00001D6E  89E5              mov ebp,esp
00001D70  83EC10            sub esp,byte +0x10
00001D73  E8BF020000        call 0x2037
00001D78  0510230000        add eax,0x2310
00001D7D  C745FC00000000    mov dword [ebp-0x4],0x0
00001D84  EB12              jmp short 0x1d98
00001D86  8B55FC            mov edx,[ebp-0x4]
00001D89  C78490784F000000  mov dword [eax+edx*4+0x4f78],0x0
         -000000
00001D94  8345FC01          add dword [ebp-0x4],byte +0x1
00001D98  817DFCFF7F0000    cmp dword [ebp-0x4],0x7fff
00001D9F  7EE5              jng 0x1d86
00001DA1  90                nop
00001DA2  90                nop
00001DA3  C9                leave
00001DA4  C3                ret
00001DA5  55                push ebp
00001DA6  89E5              mov ebp,esp
00001DA8  56                push esi
00001DA9  53                push ebx
00001DAA  83EC10            sub esp,byte +0x10
00001DAD  E885020000        call 0x2037
00001DB2  05D6220000        add eax,0x22d6
00001DB7  C745F401000000    mov dword [ebp-0xc],0x1
00001DBE  C745F000000000    mov dword [ebp-0x10],0x0
00001DC5  EB24              jmp short 0x1deb
00001DC7  D165F4            shl dword [ebp-0xc],1
00001DCA  837DF400          cmp dword [ebp-0xc],byte +0x0
00001DCE  751B              jnz 0x1deb
00001DD0  C745F401000000    mov dword [ebp-0xc],0x1
00001DD7  8345F001          add dword [ebp-0x10],byte +0x1
00001DDB  817DF0FF7F0000    cmp dword [ebp-0x10],0x7fff
00001DE2  7607              jna 0x1deb
00001DE4  B801000000        mov eax,0x1
00001DE9  EB47              jmp short 0x1e32
00001DEB  8B55F0            mov edx,[ebp-0x10]
00001DEE  8B9490784F0000    mov edx,[eax+edx*4+0x4f78]
00001DF5  2355F4            and edx,[ebp-0xc]
00001DF8  85D2              test edx,edx
00001DFA  75CB              jnz 0x1dc7
00001DFC  8B55F0            mov edx,[ebp-0x10]
00001DFF  8B9490784F0000    mov edx,[eax+edx*4+0x4f78]
00001E06  89D1              mov ecx,edx
00001E08  0B4DF4            or ecx,[ebp-0xc]
00001E0B  8B55F0            mov edx,[ebp-0x10]
00001E0E  898C90784F0000    mov [eax+edx*4+0x4f78],ecx
00001E15  8B55F0            mov edx,[ebp-0x10]
00001E18  89D6              mov esi,edx
00001E1A  C1E605            shl esi,byte 0x5
00001E1D  83EC0C            sub esp,byte +0xc
00001E20  FF75F4            push dword [ebp-0xc]
00001E23  89C3              mov ebx,eax
00001E25  E8BC010000        call 0x1fe6
00001E2A  83C410            add esp,byte +0x10
00001E2D  01F0              add eax,esi
00001E2F  C1E00C            shl eax,byte 0xc
00001E32  8D65F8            lea esp,[ebp-0x8]
00001E35  5B                pop ebx
00001E36  5E                pop esi
00001E37  5D                pop ebp
00001E38  C3                ret
00001E39  55                push ebp
00001E3A  89E5              mov ebp,esp
00001E3C  83EC20            sub esp,byte +0x20
00001E3F  E8F3010000        call 0x2037
00001E44  0544220000        add eax,0x2244
00001E49  C745EB30313233    mov dword [ebp-0x15],0x33323130
00001E50  C745EF34353637    mov dword [ebp-0x11],0x37363534
00001E57  C745F338394142    mov dword [ebp-0xd],0x42413938
00001E5E  C745F743444546    mov dword [ebp-0x9],0x46454443
00001E65  C645FB00          mov byte [ebp-0x5],0x0
00001E69  C745FC07000000    mov dword [ebp-0x4],0x7
00001E70  EB22              jmp short 0x1e94
00001E72  8B4508            mov eax,[ebp+0x8]
00001E75  83E00F            and eax,byte +0xf
00001E78  8B4DFC            mov ecx,[ebp-0x4]
00001E7B  8B550C            mov edx,[ebp+0xc]
00001E7E  01CA              add edx,ecx
00001E80  0FB64405EB        movzx eax,byte [ebp+eax-0x15]
00001E85  8802              mov [edx],al
00001E87  8B4508            mov eax,[ebp+0x8]
00001E8A  C1E804            shr eax,byte 0x4
00001E8D  894508            mov [ebp+0x8],eax
00001E90  836DFC01          sub dword [ebp-0x4],byte +0x1
00001E94  837DFC00          cmp dword [ebp-0x4],byte +0x0
00001E98  79D8              jns 0x1e72
00001E9A  90                nop
00001E9B  90                nop
00001E9C  C9                leave
00001E9D  C3                ret
00001E9E  55                push ebp
00001E9F  89E5              mov ebp,esp
00001EA1  53                push ebx
00001EA2  83EC14            sub esp,byte +0x14
00001EA5  E86C010000        call 0x2016
00001EAA  81C3DE210000      add ebx,0x21de
00001EB0  8D45F0            lea eax,[ebp-0x10]
00001EB3  50                push eax
00001EB4  FF7508            push dword [ebp+0x8]
00001EB7  E87DFFFFFF        call 0x1e39
00001EBC  83C408            add esp,byte +0x8
00001EBF  6A00              push byte +0x0
00001EC1  6A0A              push byte +0xa
00001EC3  6A08              push byte +0x8
00001EC5  8D45F0            lea eax,[ebp-0x10]
00001EC8  50                push eax
00001EC9  E8ABF6FFFF        call 0x1579
00001ECE  83C410            add esp,byte +0x10
00001ED1  90                nop
00001ED2  8B5DFC            mov ebx,[ebp-0x4]
00001ED5  C9                leave
00001ED6  C3                ret
00001ED7  55                push ebp
00001ED8  89E5              mov ebp,esp
00001EDA  53                push ebx
00001EDB  83EC14            sub esp,byte +0x14
00001EDE  E833010000        call 0x2016
00001EE3  81C3A5210000      add ebx,0x21a5
00001EE9  8D45F0            lea eax,[ebp-0x10]
00001EEC  50                push eax
00001EED  FF7508            push dword [ebp+0x8]
00001EF0  E844FFFFFF        call 0x1e39
00001EF5  83C408            add esp,byte +0x8
00001EF8  83EC04            sub esp,byte +0x4
00001EFB  6A08              push byte +0x8
00001EFD  8D45F0            lea eax,[ebp-0x10]
00001F00  50                push eax
00001F01  68F8030000        push dword 0x3f8
00001F06  E858F8FFFF        call 0x1763
00001F0B  83C410            add esp,byte +0x10
00001F0E  90                nop
00001F0F  8B5DFC            mov ebx,[ebp-0x4]
00001F12  C9                leave
00001F13  C3                ret
00001F14  55                push ebp
00001F15  89E5              mov ebp,esp
00001F17  53                push ebx
00001F18  83EC14            sub esp,byte +0x14
00001F1B  E8F6000000        call 0x2016
00001F20  81C368210000      add ebx,0x2168
00001F26  8B83784F0200      mov eax,[ebx+0x24f78]
00001F2C  3DF8030000        cmp eax,0x3f8
00001F31  7412              jz 0x1f45
00001F33  83EC08            sub esp,byte +0x8
00001F36  6A01              push byte +0x1
00001F38  68F8030000        push dword 0x3f8
00001F3D  E8CAF8FFFF        call 0x180c
00001F42  83C410            add esp,byte +0x10
00001F45  C745F400000000    mov dword [ebp-0xc],0x0
00001F4C  EB23              jmp short 0x1f71
00001F4E  8B55F4            mov edx,[ebp-0xc]
00001F51  8B4508            mov eax,[ebp+0x8]
00001F54  01D0              add eax,edx
00001F56  0FB600            movzx eax,byte [eax]
00001F59  0FBEC0            movsx eax,al
00001F5C  83EC08            sub esp,byte +0x8
00001F5F  50                push eax
00001F60  68F8030000        push dword 0x3f8
00001F65  E84BF8FFFF        call 0x17b5
00001F6A  83C410            add esp,byte +0x10
00001F6D  8345F401          add dword [ebp-0xc],byte +0x1
00001F71  8B55F4            mov edx,[ebp-0xc]
00001F74  8B4508            mov eax,[ebp+0x8]
00001F77  01D0              add eax,edx
00001F79  0FB600            movzx eax,byte [eax]
00001F7C  84C0              test al,al
00001F7E  75CE              jnz 0x1f4e
00001F80  83EC08            sub esp,byte +0x8
00001F83  6A0A              push byte +0xa
00001F85  68F8030000        push dword 0x3f8
00001F8A  E826F8FFFF        call 0x17b5
00001F8F  83C410            add esp,byte +0x10
00001F92  90                nop
00001F93  8B5DFC            mov ebx,[ebp-0x4]
00001F96  C9                leave
00001F97  C3                ret
00001F98  55                push ebp
00001F99  89E5              mov ebp,esp
00001F9B  83EC18            sub esp,byte +0x18
00001F9E  E894000000        call 0x2037
00001FA3  05E5200000        add eax,0x20e5
00001FA8  8D45EF            lea eax,[ebp-0x11]
00001FAB  50                push eax
00001FAC  FF7508            push dword [ebp+0x8]
00001FAF  E885FEFFFF        call 0x1e39
00001FB4  83C408            add esp,byte +0x8
00001FB7  C645F700          mov byte [ebp-0x9],0x0
00001FBB  83EC0C            sub esp,byte +0xc
00001FBE  8D45EF            lea eax,[ebp-0x11]
00001FC1  50                push eax
00001FC2  E84DFFFFFF        call 0x1f14
00001FC7  83C410            add esp,byte +0x10
00001FCA  90                nop
00001FCB  C9                leave
00001FCC  C3                ret
00001FCD  6690              xchg ax,ax
00001FCF  90                nop
00001FD0  8B5C2404          mov ebx,[esp+0x4]
00001FD4  8B4C2408          mov ecx,[esp+0x8]
00001FD8  8B54240C          mov edx,[esp+0xc]
00001FDC  8B0493            mov eax,[ebx+edx*4]
00001FDF  890491            mov [ecx+edx*4],eax
00001FE2  4A                dec edx
00001FE3  79F7              jns 0x1fdc
00001FE5  C3                ret
00001FE6  55                push ebp
00001FE7  89E5              mov ebp,esp
00001FE9  83EC10            sub esp,byte +0x10
00001FEC  E846000000        call 0x2037
00001FF1  0597200000        add eax,0x2097
00001FF6  C745FC00000000    mov dword [ebp-0x4],0x0
00001FFD  EB0C              jmp short 0x200b
00001FFF  8B4508            mov eax,[ebp+0x8]
00002002  D1E8              shr eax,1
00002004  894508            mov [ebp+0x8],eax
00002007  8345FC01          add dword [ebp-0x4],byte +0x1
0000200B  837D0801          cmp dword [ebp+0x8],byte +0x1
0000200F  77EE              ja 0x1fff
00002011  8B45FC            mov eax,[ebp-0x4]
00002014  C9                leave
00002015  C3                ret
00002016  8B1C24            mov ebx,[esp]
00002019  C3                ret
0000201A  8B0C24            mov ecx,[esp]
0000201D  C3                ret
0000201E  55                push ebp
0000201F  89E5              mov ebp,esp
00002021  E811000000        call 0x2037
00002026  0562200000        add eax,0x2062
0000202B  8B4508            mov eax,[ebp+0x8]
0000202E  C70000000000      mov dword [eax],0x0
00002034  90                nop
00002035  5D                pop ebp
00002036  C3                ret
00002037  8B0424            mov eax,[esp]
0000203A  C3                ret
0000203B  0000              add [eax],al
0000203D  0000              add [eax],al
0000203F  0000              add [eax],al
00002041  0000              add [eax],al
00002043  0000              add [eax],al
00002045  0000              add [eax],al
00002047  0000              add [eax],al
00002049  0000              add [eax],al
0000204B  0000              add [eax],al
0000204D  0000              add [eax],al
0000204F  0000              add [eax],al
00002051  0000              add [eax],al
00002053  0000              add [eax],al
00002055  0000              add [eax],al
00002057  0000              add [eax],al
00002059  0000              add [eax],al
0000205B  0000              add [eax],al
0000205D  0000              add [eax],al
0000205F  0000              add [eax],al
00002061  0000              add [eax],al
00002063  0000              add [eax],al
00002065  0000              add [eax],al
00002067  0000              add [eax],al
00002069  0000              add [eax],al
0000206B  0000              add [eax],al
0000206D  0000              add [eax],al
0000206F  0000              add [eax],al
00002071  0000              add [eax],al
00002073  0000              add [eax],al
00002075  0000              add [eax],al
00002077  0000              add [eax],al
00002079  0000              add [eax],al
0000207B  0000              add [eax],al
0000207D  0000              add [eax],al
0000207F  0000              add [eax],al
00002081  0000              add [eax],al
00002083  0000              add [eax],al
00002085  0000              add [eax],al
00002087  0000              add [eax],al
00002089  0000              add [eax],al
0000208B  0000              add [eax],al
0000208D  0000              add [eax],al
0000208F  0000              add [eax],al
00002091  0000              add [eax],al
00002093  0000              add [eax],al
00002095  0000              add [eax],al
00002097  0000              add [eax],al
00002099  0000              add [eax],al
0000209B  0000              add [eax],al
0000209D  0000              add [eax],al
0000209F  0000              add [eax],al
000020A1  0000              add [eax],al
000020A3  0000              add [eax],al
000020A5  0000              add [eax],al
000020A7  0000              add [eax],al
000020A9  0000              add [eax],al
000020AB  0000              add [eax],al
000020AD  0000              add [eax],al
000020AF  0000              add [eax],al
000020B1  0000              add [eax],al
000020B3  0000              add [eax],al
000020B5  0000              add [eax],al
000020B7  0000              add [eax],al
000020B9  0000              add [eax],al
000020BB  0000              add [eax],al
000020BD  0000              add [eax],al
000020BF  0000              add [eax],al
000020C1  0000              add [eax],al
000020C3  0000              add [eax],al
000020C5  0000              add [eax],al
000020C7  0000              add [eax],al
000020C9  0000              add [eax],al
000020CB  0000              add [eax],al
000020CD  0000              add [eax],al
000020CF  0000              add [eax],al
000020D1  0000              add [eax],al
000020D3  0000              add [eax],al
000020D5  0000              add [eax],al
000020D7  0000              add [eax],al
000020D9  0000              add [eax],al
000020DB  0000              add [eax],al
000020DD  0000              add [eax],al
000020DF  0000              add [eax],al
000020E1  0000              add [eax],al
000020E3  0000              add [eax],al
000020E5  0000              add [eax],al
000020E7  0000              add [eax],al
000020E9  0000              add [eax],al
000020EB  0000              add [eax],al
000020ED  0000              add [eax],al
000020EF  0000              add [eax],al
000020F1  0000              add [eax],al
000020F3  0000              add [eax],al
000020F5  0000              add [eax],al
000020F7  0000              add [eax],al
000020F9  0000              add [eax],al
000020FB  0000              add [eax],al
000020FD  0000              add [eax],al
000020FF  0000              add [eax],al
00002101  0000              add [eax],al
00002103  0000              add [eax],al
00002105  0000              add [eax],al
00002107  0000              add [eax],al
00002109  0000              add [eax],al
0000210B  0000              add [eax],al
0000210D  0000              add [eax],al
0000210F  0000              add [eax],al
00002111  0000              add [eax],al
00002113  0000              add [eax],al
00002115  0000              add [eax],al
00002117  0000              add [eax],al
00002119  0000              add [eax],al
0000211B  0000              add [eax],al
0000211D  0000              add [eax],al
0000211F  0000              add [eax],al
00002121  0000              add [eax],al
00002123  0000              add [eax],al
00002125  0000              add [eax],al
00002127  0000              add [eax],al
00002129  0000              add [eax],al
0000212B  0000              add [eax],al
0000212D  0000              add [eax],al
0000212F  0000              add [eax],al
00002131  0000              add [eax],al
00002133  0000              add [eax],al
00002135  0000              add [eax],al
00002137  0000              add [eax],al
00002139  0000              add [eax],al
0000213B  0000              add [eax],al
0000213D  0000              add [eax],al
0000213F  0000              add [eax],al
00002141  0000              add [eax],al
00002143  0000              add [eax],al
00002145  0000              add [eax],al
00002147  0000              add [eax],al
00002149  0000              add [eax],al
0000214B  0000              add [eax],al
0000214D  0000              add [eax],al
0000214F  0000              add [eax],al
00002151  0000              add [eax],al
00002153  0000              add [eax],al
00002155  0000              add [eax],al
00002157  0000              add [eax],al
00002159  0000              add [eax],al
0000215B  0000              add [eax],al
0000215D  0000              add [eax],al
0000215F  0000              add [eax],al
00002161  0000              add [eax],al
00002163  0000              add [eax],al
00002165  0000              add [eax],al
00002167  0000              add [eax],al
00002169  0000              add [eax],al
0000216B  0000              add [eax],al
0000216D  0000              add [eax],al
0000216F  0000              add [eax],al
00002171  0000              add [eax],al
00002173  0000              add [eax],al
00002175  0000              add [eax],al
00002177  0000              add [eax],al
00002179  0000              add [eax],al
0000217B  0000              add [eax],al
0000217D  0000              add [eax],al
0000217F  0000              add [eax],al
00002181  0000              add [eax],al
00002183  0000              add [eax],al
00002185  0000              add [eax],al
00002187  0000              add [eax],al
00002189  0000              add [eax],al
0000218B  0000              add [eax],al
0000218D  0000              add [eax],al
0000218F  0000              add [eax],al
00002191  0000              add [eax],al
00002193  0000              add [eax],al
00002195  0000              add [eax],al
00002197  0000              add [eax],al
00002199  0000              add [eax],al
0000219B  0000              add [eax],al
0000219D  0000              add [eax],al
0000219F  0000              add [eax],al
000021A1  0000              add [eax],al
000021A3  0000              add [eax],al
000021A5  0000              add [eax],al
000021A7  0000              add [eax],al
000021A9  0000              add [eax],al
000021AB  0000              add [eax],al
000021AD  0000              add [eax],al
000021AF  0000              add [eax],al
000021B1  0000              add [eax],al
000021B3  0000              add [eax],al
000021B5  0000              add [eax],al
000021B7  0000              add [eax],al
000021B9  0000              add [eax],al
000021BB  0000              add [eax],al
000021BD  0000              add [eax],al
000021BF  0000              add [eax],al
000021C1  0000              add [eax],al
000021C3  0000              add [eax],al
000021C5  0000              add [eax],al
000021C7  0000              add [eax],al
000021C9  0000              add [eax],al
000021CB  0000              add [eax],al
000021CD  0000              add [eax],al
000021CF  0000              add [eax],al
000021D1  0000              add [eax],al
000021D3  0000              add [eax],al
000021D5  0000              add [eax],al
000021D7  0000              add [eax],al
000021D9  0000              add [eax],al
000021DB  0000              add [eax],al
000021DD  0000              add [eax],al
000021DF  0000              add [eax],al
000021E1  0000              add [eax],al
000021E3  0000              add [eax],al
000021E5  0000              add [eax],al
000021E7  0000              add [eax],al
000021E9  0000              add [eax],al
000021EB  0000              add [eax],al
000021ED  0000              add [eax],al
000021EF  0000              add [eax],al
000021F1  0000              add [eax],al
000021F3  0000              add [eax],al
000021F5  0000              add [eax],al
000021F7  0000              add [eax],al
000021F9  0000              add [eax],al
000021FB  0000              add [eax],al
000021FD  0000              add [eax],al
000021FF  0000              add [eax],al
00002201  0000              add [eax],al
00002203  0000              add [eax],al
00002205  0000              add [eax],al
00002207  0000              add [eax],al
00002209  0000              add [eax],al
0000220B  0000              add [eax],al
0000220D  0000              add [eax],al
0000220F  0000              add [eax],al
00002211  0000              add [eax],al
00002213  0000              add [eax],al
00002215  0000              add [eax],al
00002217  0000              add [eax],al
00002219  0000              add [eax],al
0000221B  0000              add [eax],al
0000221D  0000              add [eax],al
0000221F  0000              add [eax],al
00002221  0000              add [eax],al
00002223  0000              add [eax],al
00002225  0000              add [eax],al
00002227  0000              add [eax],al
00002229  0000              add [eax],al
0000222B  0000              add [eax],al
0000222D  0000              add [eax],al
0000222F  0000              add [eax],al
00002231  0000              add [eax],al
00002233  0000              add [eax],al
00002235  0000              add [eax],al
00002237  0000              add [eax],al
00002239  0000              add [eax],al
0000223B  0000              add [eax],al
0000223D  0000              add [eax],al
0000223F  0000              add [eax],al
00002241  0000              add [eax],al
00002243  0000              add [eax],al
00002245  0000              add [eax],al
00002247  0000              add [eax],al
00002249  0000              add [eax],al
0000224B  0000              add [eax],al
0000224D  0000              add [eax],al
0000224F  0000              add [eax],al
00002251  0000              add [eax],al
00002253  0000              add [eax],al
00002255  0000              add [eax],al
00002257  0000              add [eax],al
00002259  0000              add [eax],al
0000225B  0000              add [eax],al
0000225D  0000              add [eax],al
0000225F  0000              add [eax],al
00002261  0000              add [eax],al
00002263  0000              add [eax],al
00002265  0000              add [eax],al
00002267  0000              add [eax],al
00002269  0000              add [eax],al
0000226B  0000              add [eax],al
0000226D  0000              add [eax],al
0000226F  0000              add [eax],al
00002271  0000              add [eax],al
00002273  0000              add [eax],al
00002275  0000              add [eax],al
00002277  0000              add [eax],al
00002279  0000              add [eax],al
0000227B  0000              add [eax],al
0000227D  0000              add [eax],al
0000227F  0000              add [eax],al
00002281  0000              add [eax],al
00002283  0000              add [eax],al
00002285  0000              add [eax],al
00002287  0000              add [eax],al
00002289  0000              add [eax],al
0000228B  0000              add [eax],al
0000228D  0000              add [eax],al
0000228F  0000              add [eax],al
00002291  0000              add [eax],al
00002293  0000              add [eax],al
00002295  0000              add [eax],al
00002297  0000              add [eax],al
00002299  0000              add [eax],al
0000229B  0000              add [eax],al
0000229D  0000              add [eax],al
0000229F  0000              add [eax],al
000022A1  0000              add [eax],al
000022A3  0000              add [eax],al
000022A5  0000              add [eax],al
000022A7  0000              add [eax],al
000022A9  0000              add [eax],al
000022AB  0000              add [eax],al
000022AD  0000              add [eax],al
000022AF  0000              add [eax],al
000022B1  0000              add [eax],al
000022B3  0000              add [eax],al
000022B5  0000              add [eax],al
000022B7  0000              add [eax],al
000022B9  0000              add [eax],al
000022BB  0000              add [eax],al
000022BD  0000              add [eax],al
000022BF  0000              add [eax],al
000022C1  0000              add [eax],al
000022C3  0000              add [eax],al
000022C5  0000              add [eax],al
000022C7  0000              add [eax],al
000022C9  0000              add [eax],al
000022CB  0000              add [eax],al
000022CD  0000              add [eax],al
000022CF  0000              add [eax],al
000022D1  0000              add [eax],al
000022D3  0000              add [eax],al
000022D5  0000              add [eax],al
000022D7  0000              add [eax],al
000022D9  0000              add [eax],al
000022DB  0000              add [eax],al
000022DD  0000              add [eax],al
000022DF  0000              add [eax],al
000022E1  0000              add [eax],al
000022E3  0000              add [eax],al
000022E5  0000              add [eax],al
000022E7  0000              add [eax],al
000022E9  0000              add [eax],al
000022EB  0000              add [eax],al
000022ED  0000              add [eax],al
000022EF  0000              add [eax],al
000022F1  0000              add [eax],al
000022F3  0000              add [eax],al
000022F5  0000              add [eax],al
000022F7  0000              add [eax],al
000022F9  0000              add [eax],al
000022FB  0000              add [eax],al
000022FD  0000              add [eax],al
000022FF  0000              add [eax],al
00002301  0000              add [eax],al
00002303  0000              add [eax],al
00002305  0000              add [eax],al
00002307  0000              add [eax],al
00002309  0000              add [eax],al
0000230B  0000              add [eax],al
0000230D  0000              add [eax],al
0000230F  0000              add [eax],al
00002311  0000              add [eax],al
00002313  0000              add [eax],al
00002315  0000              add [eax],al
00002317  0000              add [eax],al
00002319  0000              add [eax],al
0000231B  0000              add [eax],al
0000231D  0000              add [eax],al
0000231F  0000              add [eax],al
00002321  0000              add [eax],al
00002323  0000              add [eax],al
00002325  0000              add [eax],al
00002327  0000              add [eax],al
00002329  0000              add [eax],al
0000232B  0000              add [eax],al
0000232D  0000              add [eax],al
0000232F  0000              add [eax],al
00002331  0000              add [eax],al
00002333  0000              add [eax],al
00002335  0000              add [eax],al
00002337  0000              add [eax],al
00002339  0000              add [eax],al
0000233B  0000              add [eax],al
0000233D  0000              add [eax],al
0000233F  0000              add [eax],al
00002341  0000              add [eax],al
00002343  0000              add [eax],al
00002345  0000              add [eax],al
00002347  0000              add [eax],al
00002349  0000              add [eax],al
0000234B  0000              add [eax],al
0000234D  0000              add [eax],al
0000234F  0000              add [eax],al
00002351  0000              add [eax],al
00002353  0000              add [eax],al
00002355  0000              add [eax],al
00002357  0000              add [eax],al
00002359  0000              add [eax],al
0000235B  0000              add [eax],al
0000235D  0000              add [eax],al
0000235F  0000              add [eax],al
00002361  0000              add [eax],al
00002363  0000              add [eax],al
00002365  0000              add [eax],al
00002367  0000              add [eax],al
00002369  0000              add [eax],al
0000236B  0000              add [eax],al
0000236D  0000              add [eax],al
0000236F  0000              add [eax],al
00002371  0000              add [eax],al
00002373  0000              add [eax],al
00002375  0000              add [eax],al
00002377  0000              add [eax],al
00002379  0000              add [eax],al
0000237B  0000              add [eax],al
0000237D  0000              add [eax],al
0000237F  0000              add [eax],al
00002381  0000              add [eax],al
00002383  0000              add [eax],al
00002385  0000              add [eax],al
00002387  0000              add [eax],al
00002389  0000              add [eax],al
0000238B  0000              add [eax],al
0000238D  0000              add [eax],al
0000238F  0000              add [eax],al
00002391  0000              add [eax],al
00002393  0000              add [eax],al
00002395  0000              add [eax],al
00002397  0000              add [eax],al
00002399  0000              add [eax],al
0000239B  0000              add [eax],al
0000239D  0000              add [eax],al
0000239F  0000              add [eax],al
000023A1  0000              add [eax],al
000023A3  0000              add [eax],al
000023A5  0000              add [eax],al
000023A7  0000              add [eax],al
000023A9  0000              add [eax],al
000023AB  0000              add [eax],al
000023AD  0000              add [eax],al
000023AF  0000              add [eax],al
000023B1  0000              add [eax],al
000023B3  0000              add [eax],al
000023B5  0000              add [eax],al
000023B7  0000              add [eax],al
000023B9  0000              add [eax],al
000023BB  0000              add [eax],al
000023BD  0000              add [eax],al
000023BF  0000              add [eax],al
000023C1  0000              add [eax],al
000023C3  0000              add [eax],al
000023C5  0000              add [eax],al
000023C7  0000              add [eax],al
000023C9  0000              add [eax],al
000023CB  0000              add [eax],al
000023CD  0000              add [eax],al
000023CF  0000              add [eax],al
000023D1  0000              add [eax],al
000023D3  0000              add [eax],al
000023D5  0000              add [eax],al
000023D7  0000              add [eax],al
000023D9  0000              add [eax],al
000023DB  0000              add [eax],al
000023DD  0000              add [eax],al
000023DF  0000              add [eax],al
000023E1  0000              add [eax],al
000023E3  0000              add [eax],al
000023E5  0000              add [eax],al
000023E7  0000              add [eax],al
000023E9  0000              add [eax],al
000023EB  0000              add [eax],al
000023ED  0000              add [eax],al
000023EF  0000              add [eax],al
000023F1  0000              add [eax],al
000023F3  0000              add [eax],al
000023F5  0000              add [eax],al
000023F7  0000              add [eax],al
000023F9  0000              add [eax],al
000023FB  0000              add [eax],al
000023FD  0000              add [eax],al
000023FF  0000              add [eax],al
00002401  0000              add [eax],al
00002403  0000              add [eax],al
00002405  0000              add [eax],al
00002407  0000              add [eax],al
00002409  0000              add [eax],al
0000240B  0000              add [eax],al
0000240D  0000              add [eax],al
0000240F  0000              add [eax],al
00002411  0000              add [eax],al
00002413  0000              add [eax],al
00002415  0000              add [eax],al
00002417  0000              add [eax],al
00002419  0000              add [eax],al
0000241B  0000              add [eax],al
0000241D  0000              add [eax],al
0000241F  0000              add [eax],al
00002421  0000              add [eax],al
00002423  0000              add [eax],al
00002425  0000              add [eax],al
00002427  0000              add [eax],al
00002429  0000              add [eax],al
0000242B  0000              add [eax],al
0000242D  0000              add [eax],al
0000242F  0000              add [eax],al
00002431  0000              add [eax],al
00002433  0000              add [eax],al
00002435  0000              add [eax],al
00002437  0000              add [eax],al
00002439  0000              add [eax],al
0000243B  0000              add [eax],al
0000243D  0000              add [eax],al
0000243F  0000              add [eax],al
00002441  0000              add [eax],al
00002443  0000              add [eax],al
00002445  0000              add [eax],al
00002447  0000              add [eax],al
00002449  0000              add [eax],al
0000244B  0000              add [eax],al
0000244D  0000              add [eax],al
0000244F  0000              add [eax],al
00002451  0000              add [eax],al
00002453  0000              add [eax],al
00002455  0000              add [eax],al
00002457  0000              add [eax],al
00002459  0000              add [eax],al
0000245B  0000              add [eax],al
0000245D  0000              add [eax],al
0000245F  0000              add [eax],al
00002461  0000              add [eax],al
00002463  0000              add [eax],al
00002465  0000              add [eax],al
00002467  0000              add [eax],al
00002469  0000              add [eax],al
0000246B  0000              add [eax],al
0000246D  0000              add [eax],al
0000246F  0000              add [eax],al
00002471  0000              add [eax],al
00002473  0000              add [eax],al
00002475  0000              add [eax],al
00002477  0000              add [eax],al
00002479  0000              add [eax],al
0000247B  0000              add [eax],al
0000247D  0000              add [eax],al
0000247F  0000              add [eax],al
00002481  0000              add [eax],al
00002483  0000              add [eax],al
00002485  0000              add [eax],al
00002487  0000              add [eax],al
00002489  0000              add [eax],al
0000248B  0000              add [eax],al
0000248D  0000              add [eax],al
0000248F  0000              add [eax],al
00002491  0000              add [eax],al
00002493  0000              add [eax],al
00002495  0000              add [eax],al
00002497  0000              add [eax],al
00002499  0000              add [eax],al
0000249B  0000              add [eax],al
0000249D  0000              add [eax],al
0000249F  0000              add [eax],al
000024A1  0000              add [eax],al
000024A3  0000              add [eax],al
000024A5  0000              add [eax],al
000024A7  0000              add [eax],al
000024A9  0000              add [eax],al
000024AB  0000              add [eax],al
000024AD  0000              add [eax],al
000024AF  0000              add [eax],al
000024B1  0000              add [eax],al
000024B3  0000              add [eax],al
000024B5  0000              add [eax],al
000024B7  0000              add [eax],al
000024B9  0000              add [eax],al
000024BB  0000              add [eax],al
000024BD  0000              add [eax],al
000024BF  0000              add [eax],al
000024C1  0000              add [eax],al
000024C3  0000              add [eax],al
000024C5  0000              add [eax],al
000024C7  0000              add [eax],al
000024C9  0000              add [eax],al
000024CB  0000              add [eax],al
000024CD  0000              add [eax],al
000024CF  0000              add [eax],al
000024D1  0000              add [eax],al
000024D3  0000              add [eax],al
000024D5  0000              add [eax],al
000024D7  0000              add [eax],al
000024D9  0000              add [eax],al
000024DB  0000              add [eax],al
000024DD  0000              add [eax],al
000024DF  0000              add [eax],al
000024E1  0000              add [eax],al
000024E3  0000              add [eax],al
000024E5  0000              add [eax],al
000024E7  0000              add [eax],al
000024E9  0000              add [eax],al
000024EB  0000              add [eax],al
000024ED  0000              add [eax],al
000024EF  0000              add [eax],al
000024F1  0000              add [eax],al
000024F3  0000              add [eax],al
000024F5  0000              add [eax],al
000024F7  0000              add [eax],al
000024F9  0000              add [eax],al
000024FB  0000              add [eax],al
000024FD  0000              add [eax],al
000024FF  0000              add [eax],al
00002501  0000              add [eax],al
00002503  0000              add [eax],al
00002505  0000              add [eax],al
00002507  0000              add [eax],al
00002509  0000              add [eax],al
0000250B  0000              add [eax],al
0000250D  0000              add [eax],al
0000250F  0000              add [eax],al
00002511  0000              add [eax],al
00002513  0000              add [eax],al
00002515  0000              add [eax],al
00002517  0000              add [eax],al
00002519  0000              add [eax],al
0000251B  0000              add [eax],al
0000251D  0000              add [eax],al
0000251F  0000              add [eax],al
00002521  0000              add [eax],al
00002523  0000              add [eax],al
00002525  0000              add [eax],al
00002527  0000              add [eax],al
00002529  0000              add [eax],al
0000252B  0000              add [eax],al
0000252D  0000              add [eax],al
0000252F  0000              add [eax],al
00002531  0000              add [eax],al
00002533  0000              add [eax],al
00002535  0000              add [eax],al
00002537  0000              add [eax],al
00002539  0000              add [eax],al
0000253B  0000              add [eax],al
0000253D  0000              add [eax],al
0000253F  0000              add [eax],al
00002541  0000              add [eax],al
00002543  0000              add [eax],al
00002545  0000              add [eax],al
00002547  0000              add [eax],al
00002549  0000              add [eax],al
0000254B  0000              add [eax],al
0000254D  0000              add [eax],al
0000254F  0000              add [eax],al
00002551  0000              add [eax],al
00002553  0000              add [eax],al
00002555  0000              add [eax],al
00002557  0000              add [eax],al
00002559  0000              add [eax],al
0000255B  0000              add [eax],al
0000255D  0000              add [eax],al
0000255F  0000              add [eax],al
00002561  0000              add [eax],al
00002563  0000              add [eax],al
00002565  0000              add [eax],al
00002567  0000              add [eax],al
00002569  0000              add [eax],al
0000256B  0000              add [eax],al
0000256D  0000              add [eax],al
0000256F  0000              add [eax],al
00002571  0000              add [eax],al
00002573  0000              add [eax],al
00002575  0000              add [eax],al
00002577  0000              add [eax],al
00002579  0000              add [eax],al
0000257B  0000              add [eax],al
0000257D  0000              add [eax],al
0000257F  0000              add [eax],al
00002581  0000              add [eax],al
00002583  0000              add [eax],al
00002585  0000              add [eax],al
00002587  0000              add [eax],al
00002589  0000              add [eax],al
0000258B  0000              add [eax],al
0000258D  0000              add [eax],al
0000258F  0000              add [eax],al
00002591  0000              add [eax],al
00002593  0000              add [eax],al
00002595  0000              add [eax],al
00002597  0000              add [eax],al
00002599  0000              add [eax],al
0000259B  0000              add [eax],al
0000259D  0000              add [eax],al
0000259F  0000              add [eax],al
000025A1  0000              add [eax],al
000025A3  0000              add [eax],al
000025A5  0000              add [eax],al
000025A7  0000              add [eax],al
000025A9  0000              add [eax],al
000025AB  0000              add [eax],al
000025AD  0000              add [eax],al
000025AF  0000              add [eax],al
000025B1  0000              add [eax],al
000025B3  0000              add [eax],al
000025B5  0000              add [eax],al
000025B7  0000              add [eax],al
000025B9  0000              add [eax],al
000025BB  0000              add [eax],al
000025BD  0000              add [eax],al
000025BF  0000              add [eax],al
000025C1  0000              add [eax],al
000025C3  0000              add [eax],al
000025C5  0000              add [eax],al
000025C7  0000              add [eax],al
000025C9  0000              add [eax],al
000025CB  0000              add [eax],al
000025CD  0000              add [eax],al
000025CF  0000              add [eax],al
000025D1  0000              add [eax],al
000025D3  0000              add [eax],al
000025D5  0000              add [eax],al
000025D7  0000              add [eax],al
000025D9  0000              add [eax],al
000025DB  0000              add [eax],al
000025DD  0000              add [eax],al
000025DF  0000              add [eax],al
000025E1  0000              add [eax],al
000025E3  0000              add [eax],al
000025E5  0000              add [eax],al
000025E7  0000              add [eax],al
000025E9  0000              add [eax],al
000025EB  0000              add [eax],al
000025ED  0000              add [eax],al
000025EF  0000              add [eax],al
000025F1  0000              add [eax],al
000025F3  0000              add [eax],al
000025F5  0000              add [eax],al
000025F7  0000              add [eax],al
000025F9  0000              add [eax],al
000025FB  0000              add [eax],al
000025FD  0000              add [eax],al
000025FF  0000              add [eax],al
00002601  0000              add [eax],al
00002603  0000              add [eax],al
00002605  0000              add [eax],al
00002607  0000              add [eax],al
00002609  0000              add [eax],al
0000260B  0000              add [eax],al
0000260D  0000              add [eax],al
0000260F  0000              add [eax],al
00002611  0000              add [eax],al
00002613  0000              add [eax],al
00002615  0000              add [eax],al
00002617  0000              add [eax],al
00002619  0000              add [eax],al
0000261B  0000              add [eax],al
0000261D  0000              add [eax],al
0000261F  0000              add [eax],al
00002621  0000              add [eax],al
00002623  0000              add [eax],al
00002625  0000              add [eax],al
00002627  0000              add [eax],al
00002629  0000              add [eax],al
0000262B  0000              add [eax],al
0000262D  0000              add [eax],al
0000262F  0000              add [eax],al
00002631  0000              add [eax],al
00002633  0000              add [eax],al
00002635  0000              add [eax],al
00002637  0000              add [eax],al
00002639  0000              add [eax],al
0000263B  0000              add [eax],al
0000263D  0000              add [eax],al
0000263F  0000              add [eax],al
00002641  0000              add [eax],al
00002643  0000              add [eax],al
00002645  0000              add [eax],al
00002647  0000              add [eax],al
00002649  0000              add [eax],al
0000264B  0000              add [eax],al
0000264D  0000              add [eax],al
0000264F  0000              add [eax],al
00002651  0000              add [eax],al
00002653  0000              add [eax],al
00002655  0000              add [eax],al
00002657  0000              add [eax],al
00002659  0000              add [eax],al
0000265B  0000              add [eax],al
0000265D  0000              add [eax],al
0000265F  0000              add [eax],al
00002661  0000              add [eax],al
00002663  0000              add [eax],al
00002665  0000              add [eax],al
00002667  0000              add [eax],al
00002669  0000              add [eax],al
0000266B  0000              add [eax],al
0000266D  0000              add [eax],al
0000266F  0000              add [eax],al
00002671  0000              add [eax],al
00002673  0000              add [eax],al
00002675  0000              add [eax],al
00002677  0000              add [eax],al
00002679  0000              add [eax],al
0000267B  0000              add [eax],al
0000267D  0000              add [eax],al
0000267F  0000              add [eax],al
00002681  0000              add [eax],al
00002683  0000              add [eax],al
00002685  0000              add [eax],al
00002687  0000              add [eax],al
00002689  0000              add [eax],al
0000268B  0000              add [eax],al
0000268D  0000              add [eax],al
0000268F  0000              add [eax],al
00002691  0000              add [eax],al
00002693  0000              add [eax],al
00002695  0000              add [eax],al
00002697  0000              add [eax],al
00002699  0000              add [eax],al
0000269B  0000              add [eax],al
0000269D  0000              add [eax],al
0000269F  0000              add [eax],al
000026A1  0000              add [eax],al
000026A3  0000              add [eax],al
000026A5  0000              add [eax],al
000026A7  0000              add [eax],al
000026A9  0000              add [eax],al
000026AB  0000              add [eax],al
000026AD  0000              add [eax],al
000026AF  0000              add [eax],al
000026B1  0000              add [eax],al
000026B3  0000              add [eax],al
000026B5  0000              add [eax],al
000026B7  0000              add [eax],al
000026B9  0000              add [eax],al
000026BB  0000              add [eax],al
000026BD  0000              add [eax],al
000026BF  0000              add [eax],al
000026C1  0000              add [eax],al
000026C3  0000              add [eax],al
000026C5  0000              add [eax],al
000026C7  0000              add [eax],al
000026C9  0000              add [eax],al
000026CB  0000              add [eax],al
000026CD  0000              add [eax],al
000026CF  0000              add [eax],al
000026D1  0000              add [eax],al
000026D3  0000              add [eax],al
000026D5  0000              add [eax],al
000026D7  0000              add [eax],al
000026D9  0000              add [eax],al
000026DB  0000              add [eax],al
000026DD  0000              add [eax],al
000026DF  0000              add [eax],al
000026E1  0000              add [eax],al
000026E3  0000              add [eax],al
000026E5  0000              add [eax],al
000026E7  0000              add [eax],al
000026E9  0000              add [eax],al
000026EB  0000              add [eax],al
000026ED  0000              add [eax],al
000026EF  0000              add [eax],al
000026F1  0000              add [eax],al
000026F3  0000              add [eax],al
000026F5  0000              add [eax],al
000026F7  0000              add [eax],al
000026F9  0000              add [eax],al
000026FB  0000              add [eax],al
000026FD  0000              add [eax],al
000026FF  0000              add [eax],al
00002701  0000              add [eax],al
00002703  0000              add [eax],al
00002705  0000              add [eax],al
00002707  0000              add [eax],al
00002709  0000              add [eax],al
0000270B  0000              add [eax],al
0000270D  0000              add [eax],al
0000270F  0000              add [eax],al
00002711  0000              add [eax],al
00002713  0000              add [eax],al
00002715  0000              add [eax],al
00002717  0000              add [eax],al
00002719  0000              add [eax],al
0000271B  0000              add [eax],al
0000271D  0000              add [eax],al
0000271F  0000              add [eax],al
00002721  0000              add [eax],al
00002723  0000              add [eax],al
00002725  0000              add [eax],al
00002727  0000              add [eax],al
00002729  0000              add [eax],al
0000272B  0000              add [eax],al
0000272D  0000              add [eax],al
0000272F  0000              add [eax],al
00002731  0000              add [eax],al
00002733  0000              add [eax],al
00002735  0000              add [eax],al
00002737  0000              add [eax],al
00002739  0000              add [eax],al
0000273B  0000              add [eax],al
0000273D  0000              add [eax],al
0000273F  0000              add [eax],al
00002741  0000              add [eax],al
00002743  0000              add [eax],al
00002745  0000              add [eax],al
00002747  0000              add [eax],al
00002749  0000              add [eax],al
0000274B  0000              add [eax],al
0000274D  0000              add [eax],al
0000274F  0000              add [eax],al
00002751  0000              add [eax],al
00002753  0000              add [eax],al
00002755  0000              add [eax],al
00002757  0000              add [eax],al
00002759  0000              add [eax],al
0000275B  0000              add [eax],al
0000275D  0000              add [eax],al
0000275F  0000              add [eax],al
00002761  0000              add [eax],al
00002763  0000              add [eax],al
00002765  0000              add [eax],al
00002767  0000              add [eax],al
00002769  0000              add [eax],al
0000276B  0000              add [eax],al
0000276D  0000              add [eax],al
0000276F  0000              add [eax],al
00002771  0000              add [eax],al
00002773  0000              add [eax],al
00002775  0000              add [eax],al
00002777  0000              add [eax],al
00002779  0000              add [eax],al
0000277B  0000              add [eax],al
0000277D  0000              add [eax],al
0000277F  0000              add [eax],al
00002781  0000              add [eax],al
00002783  0000              add [eax],al
00002785  0000              add [eax],al
00002787  0000              add [eax],al
00002789  0000              add [eax],al
0000278B  0000              add [eax],al
0000278D  0000              add [eax],al
0000278F  0000              add [eax],al
00002791  0000              add [eax],al
00002793  0000              add [eax],al
00002795  0000              add [eax],al
00002797  0000              add [eax],al
00002799  0000              add [eax],al
0000279B  0000              add [eax],al
0000279D  0000              add [eax],al
0000279F  0000              add [eax],al
000027A1  0000              add [eax],al
000027A3  0000              add [eax],al
000027A5  0000              add [eax],al
000027A7  0000              add [eax],al
000027A9  0000              add [eax],al
000027AB  0000              add [eax],al
000027AD  0000              add [eax],al
000027AF  0000              add [eax],al
000027B1  0000              add [eax],al
000027B3  0000              add [eax],al
000027B5  0000              add [eax],al
000027B7  0000              add [eax],al
000027B9  0000              add [eax],al
000027BB  0000              add [eax],al
000027BD  0000              add [eax],al
000027BF  0000              add [eax],al
000027C1  0000              add [eax],al
000027C3  0000              add [eax],al
000027C5  0000              add [eax],al
000027C7  0000              add [eax],al
000027C9  0000              add [eax],al
000027CB  0000              add [eax],al
000027CD  0000              add [eax],al
000027CF  0000              add [eax],al
000027D1  0000              add [eax],al
000027D3  0000              add [eax],al
000027D5  0000              add [eax],al
000027D7  0000              add [eax],al
000027D9  0000              add [eax],al
000027DB  0000              add [eax],al
000027DD  0000              add [eax],al
000027DF  0000              add [eax],al
000027E1  0000              add [eax],al
000027E3  0000              add [eax],al
000027E5  0000              add [eax],al
000027E7  0000              add [eax],al
000027E9  0000              add [eax],al
000027EB  0000              add [eax],al
000027ED  0000              add [eax],al
000027EF  0000              add [eax],al
000027F1  0000              add [eax],al
000027F3  0000              add [eax],al
000027F5  0000              add [eax],al
000027F7  0000              add [eax],al
000027F9  0000              add [eax],al
000027FB  0000              add [eax],al
000027FD  0000              add [eax],al
000027FF  0000              add [eax],al
00002801  0000              add [eax],al
00002803  0000              add [eax],al
00002805  0000              add [eax],al
00002807  0000              add [eax],al
00002809  0000              add [eax],al
0000280B  0000              add [eax],al
0000280D  0000              add [eax],al
0000280F  0000              add [eax],al
00002811  0000              add [eax],al
00002813  0000              add [eax],al
00002815  0000              add [eax],al
00002817  0000              add [eax],al
00002819  0000              add [eax],al
0000281B  0000              add [eax],al
0000281D  0000              add [eax],al
0000281F  0000              add [eax],al
00002821  0000              add [eax],al
00002823  0000              add [eax],al
00002825  0000              add [eax],al
00002827  0000              add [eax],al
00002829  0000              add [eax],al
0000282B  0000              add [eax],al
0000282D  0000              add [eax],al
0000282F  0000              add [eax],al
00002831  0000              add [eax],al
00002833  0000              add [eax],al
00002835  0000              add [eax],al
00002837  0000              add [eax],al
00002839  0000              add [eax],al
0000283B  0000              add [eax],al
0000283D  0000              add [eax],al
0000283F  0000              add [eax],al
00002841  0000              add [eax],al
00002843  0000              add [eax],al
00002845  0000              add [eax],al
00002847  0000              add [eax],al
00002849  0000              add [eax],al
0000284B  0000              add [eax],al
0000284D  0000              add [eax],al
0000284F  0000              add [eax],al
00002851  0000              add [eax],al
00002853  0000              add [eax],al
00002855  0000              add [eax],al
00002857  0000              add [eax],al
00002859  0000              add [eax],al
0000285B  0000              add [eax],al
0000285D  0000              add [eax],al
0000285F  0000              add [eax],al
00002861  0000              add [eax],al
00002863  0000              add [eax],al
00002865  0000              add [eax],al
00002867  0000              add [eax],al
00002869  0000              add [eax],al
0000286B  0000              add [eax],al
0000286D  0000              add [eax],al
0000286F  0000              add [eax],al
00002871  0000              add [eax],al
00002873  0000              add [eax],al
00002875  0000              add [eax],al
00002877  0000              add [eax],al
00002879  0000              add [eax],al
0000287B  0000              add [eax],al
0000287D  0000              add [eax],al
0000287F  0000              add [eax],al
00002881  0000              add [eax],al
00002883  0000              add [eax],al
00002885  0000              add [eax],al
00002887  0000              add [eax],al
00002889  0000              add [eax],al
0000288B  0000              add [eax],al
0000288D  0000              add [eax],al
0000288F  0000              add [eax],al
00002891  0000              add [eax],al
00002893  0000              add [eax],al
00002895  0000              add [eax],al
00002897  0000              add [eax],al
00002899  0000              add [eax],al
0000289B  0000              add [eax],al
0000289D  0000              add [eax],al
0000289F  0000              add [eax],al
000028A1  0000              add [eax],al
000028A3  0000              add [eax],al
000028A5  0000              add [eax],al
000028A7  0000              add [eax],al
000028A9  0000              add [eax],al
000028AB  0000              add [eax],al
000028AD  0000              add [eax],al
000028AF  0000              add [eax],al
000028B1  0000              add [eax],al
000028B3  0000              add [eax],al
000028B5  0000              add [eax],al
000028B7  0000              add [eax],al
000028B9  0000              add [eax],al
000028BB  0000              add [eax],al
000028BD  0000              add [eax],al
000028BF  0000              add [eax],al
000028C1  0000              add [eax],al
000028C3  0000              add [eax],al
000028C5  0000              add [eax],al
000028C7  0000              add [eax],al
000028C9  0000              add [eax],al
000028CB  0000              add [eax],al
000028CD  0000              add [eax],al
000028CF  0000              add [eax],al
000028D1  0000              add [eax],al
000028D3  0000              add [eax],al
000028D5  0000              add [eax],al
000028D7  0000              add [eax],al
000028D9  0000              add [eax],al
000028DB  0000              add [eax],al
000028DD  0000              add [eax],al
000028DF  0000              add [eax],al
000028E1  0000              add [eax],al
000028E3  0000              add [eax],al
000028E5  0000              add [eax],al
000028E7  0000              add [eax],al
000028E9  0000              add [eax],al
000028EB  0000              add [eax],al
000028ED  0000              add [eax],al
000028EF  0000              add [eax],al
000028F1  0000              add [eax],al
000028F3  0000              add [eax],al
000028F5  0000              add [eax],al
000028F7  0000              add [eax],al
000028F9  0000              add [eax],al
000028FB  0000              add [eax],al
000028FD  0000              add [eax],al
000028FF  0000              add [eax],al
00002901  0000              add [eax],al
00002903  0000              add [eax],al
00002905  0000              add [eax],al
00002907  0000              add [eax],al
00002909  0000              add [eax],al
0000290B  0000              add [eax],al
0000290D  0000              add [eax],al
0000290F  0000              add [eax],al
00002911  0000              add [eax],al
00002913  0000              add [eax],al
00002915  0000              add [eax],al
00002917  0000              add [eax],al
00002919  0000              add [eax],al
0000291B  0000              add [eax],al
0000291D  0000              add [eax],al
0000291F  0000              add [eax],al
00002921  0000              add [eax],al
00002923  0000              add [eax],al
00002925  0000              add [eax],al
00002927  0000              add [eax],al
00002929  0000              add [eax],al
0000292B  0000              add [eax],al
0000292D  0000              add [eax],al
0000292F  0000              add [eax],al
00002931  0000              add [eax],al
00002933  0000              add [eax],al
00002935  0000              add [eax],al
00002937  0000              add [eax],al
00002939  0000              add [eax],al
0000293B  0000              add [eax],al
0000293D  0000              add [eax],al
0000293F  0000              add [eax],al
00002941  0000              add [eax],al
00002943  0000              add [eax],al
00002945  0000              add [eax],al
00002947  0000              add [eax],al
00002949  0000              add [eax],al
0000294B  0000              add [eax],al
0000294D  0000              add [eax],al
0000294F  0000              add [eax],al
00002951  0000              add [eax],al
00002953  0000              add [eax],al
00002955  0000              add [eax],al
00002957  0000              add [eax],al
00002959  0000              add [eax],al
0000295B  0000              add [eax],al
0000295D  0000              add [eax],al
0000295F  0000              add [eax],al
00002961  0000              add [eax],al
00002963  0000              add [eax],al
00002965  0000              add [eax],al
00002967  0000              add [eax],al
00002969  0000              add [eax],al
0000296B  0000              add [eax],al
0000296D  0000              add [eax],al
0000296F  0000              add [eax],al
00002971  0000              add [eax],al
00002973  0000              add [eax],al
00002975  0000              add [eax],al
00002977  0000              add [eax],al
00002979  0000              add [eax],al
0000297B  0000              add [eax],al
0000297D  0000              add [eax],al
0000297F  0000              add [eax],al
00002981  0000              add [eax],al
00002983  0000              add [eax],al
00002985  0000              add [eax],al
00002987  0000              add [eax],al
00002989  0000              add [eax],al
0000298B  0000              add [eax],al
0000298D  0000              add [eax],al
0000298F  0000              add [eax],al
00002991  0000              add [eax],al
00002993  0000              add [eax],al
00002995  0000              add [eax],al
00002997  0000              add [eax],al
00002999  0000              add [eax],al
0000299B  0000              add [eax],al
0000299D  0000              add [eax],al
0000299F  0000              add [eax],al
000029A1  0000              add [eax],al
000029A3  0000              add [eax],al
000029A5  0000              add [eax],al
000029A7  0000              add [eax],al
000029A9  0000              add [eax],al
000029AB  0000              add [eax],al
000029AD  0000              add [eax],al
000029AF  0000              add [eax],al
000029B1  0000              add [eax],al
000029B3  0000              add [eax],al
000029B5  0000              add [eax],al
000029B7  0000              add [eax],al
000029B9  0000              add [eax],al
000029BB  0000              add [eax],al
000029BD  0000              add [eax],al
000029BF  0000              add [eax],al
000029C1  0000              add [eax],al
000029C3  0000              add [eax],al
000029C5  0000              add [eax],al
000029C7  0000              add [eax],al
000029C9  0000              add [eax],al
000029CB  0000              add [eax],al
000029CD  0000              add [eax],al
000029CF  0000              add [eax],al
000029D1  0000              add [eax],al
000029D3  0000              add [eax],al
000029D5  0000              add [eax],al
000029D7  0000              add [eax],al
000029D9  0000              add [eax],al
000029DB  0000              add [eax],al
000029DD  0000              add [eax],al
000029DF  0000              add [eax],al
000029E1  0000              add [eax],al
000029E3  0000              add [eax],al
000029E5  0000              add [eax],al
000029E7  0000              add [eax],al
000029E9  0000              add [eax],al
000029EB  0000              add [eax],al
000029ED  0000              add [eax],al
000029EF  0000              add [eax],al
000029F1  0000              add [eax],al
000029F3  0000              add [eax],al
000029F5  0000              add [eax],al
000029F7  0000              add [eax],al
000029F9  0000              add [eax],al
000029FB  0000              add [eax],al
000029FD  0000              add [eax],al
000029FF  0000              add [eax],al
00002A01  0000              add [eax],al
00002A03  0000              add [eax],al
00002A05  0000              add [eax],al
00002A07  0000              add [eax],al
00002A09  0000              add [eax],al
00002A0B  0000              add [eax],al
00002A0D  0000              add [eax],al
00002A0F  0000              add [eax],al
00002A11  0000              add [eax],al
00002A13  0000              add [eax],al
00002A15  0000              add [eax],al
00002A17  0000              add [eax],al
00002A19  0000              add [eax],al
00002A1B  0000              add [eax],al
00002A1D  0000              add [eax],al
00002A1F  0000              add [eax],al
00002A21  0000              add [eax],al
00002A23  0000              add [eax],al
00002A25  0000              add [eax],al
00002A27  0000              add [eax],al
00002A29  0000              add [eax],al
00002A2B  0000              add [eax],al
00002A2D  0000              add [eax],al
00002A2F  0000              add [eax],al
00002A31  0000              add [eax],al
00002A33  0000              add [eax],al
00002A35  0000              add [eax],al
00002A37  0000              add [eax],al
00002A39  0000              add [eax],al
00002A3B  0000              add [eax],al
00002A3D  0000              add [eax],al
00002A3F  0000              add [eax],al
00002A41  0000              add [eax],al
00002A43  0000              add [eax],al
00002A45  0000              add [eax],al
00002A47  0000              add [eax],al
00002A49  0000              add [eax],al
00002A4B  0000              add [eax],al
00002A4D  0000              add [eax],al
00002A4F  0000              add [eax],al
00002A51  0000              add [eax],al
00002A53  0000              add [eax],al
00002A55  0000              add [eax],al
00002A57  0000              add [eax],al
00002A59  0000              add [eax],al
00002A5B  0000              add [eax],al
00002A5D  0000              add [eax],al
00002A5F  0000              add [eax],al
00002A61  0000              add [eax],al
00002A63  0000              add [eax],al
00002A65  0000              add [eax],al
00002A67  0000              add [eax],al
00002A69  0000              add [eax],al
00002A6B  0000              add [eax],al
00002A6D  0000              add [eax],al
00002A6F  0000              add [eax],al
00002A71  0000              add [eax],al
00002A73  0000              add [eax],al
00002A75  0000              add [eax],al
00002A77  0000              add [eax],al
00002A79  0000              add [eax],al
00002A7B  0000              add [eax],al
00002A7D  0000              add [eax],al
00002A7F  0000              add [eax],al
00002A81  0000              add [eax],al
00002A83  0000              add [eax],al
00002A85  0000              add [eax],al
00002A87  0000              add [eax],al
00002A89  0000              add [eax],al
00002A8B  0000              add [eax],al
00002A8D  0000              add [eax],al
00002A8F  0000              add [eax],al
00002A91  0000              add [eax],al
00002A93  0000              add [eax],al
00002A95  0000              add [eax],al
00002A97  0000              add [eax],al
00002A99  0000              add [eax],al
00002A9B  0000              add [eax],al
00002A9D  0000              add [eax],al
00002A9F  0000              add [eax],al
00002AA1  0000              add [eax],al
00002AA3  0000              add [eax],al
00002AA5  0000              add [eax],al
00002AA7  0000              add [eax],al
00002AA9  0000              add [eax],al
00002AAB  0000              add [eax],al
00002AAD  0000              add [eax],al
00002AAF  0000              add [eax],al
00002AB1  0000              add [eax],al
00002AB3  0000              add [eax],al
00002AB5  0000              add [eax],al
00002AB7  0000              add [eax],al
00002AB9  0000              add [eax],al
00002ABB  0000              add [eax],al
00002ABD  0000              add [eax],al
00002ABF  0000              add [eax],al
00002AC1  0000              add [eax],al
00002AC3  0000              add [eax],al
00002AC5  0000              add [eax],al
00002AC7  0000              add [eax],al
00002AC9  0000              add [eax],al
00002ACB  0000              add [eax],al
00002ACD  0000              add [eax],al
00002ACF  0000              add [eax],al
00002AD1  0000              add [eax],al
00002AD3  0000              add [eax],al
00002AD5  0000              add [eax],al
00002AD7  0000              add [eax],al
00002AD9  0000              add [eax],al
00002ADB  0000              add [eax],al
00002ADD  0000              add [eax],al
00002ADF  0000              add [eax],al
00002AE1  0000              add [eax],al
00002AE3  0000              add [eax],al
00002AE5  0000              add [eax],al
00002AE7  0000              add [eax],al
00002AE9  0000              add [eax],al
00002AEB  0000              add [eax],al
00002AED  0000              add [eax],al
00002AEF  0000              add [eax],al
00002AF1  0000              add [eax],al
00002AF3  0000              add [eax],al
00002AF5  0000              add [eax],al
00002AF7  0000              add [eax],al
00002AF9  0000              add [eax],al
00002AFB  0000              add [eax],al
00002AFD  0000              add [eax],al
00002AFF  0000              add [eax],al
00002B01  0000              add [eax],al
00002B03  0000              add [eax],al
00002B05  0000              add [eax],al
00002B07  0000              add [eax],al
00002B09  0000              add [eax],al
00002B0B  0000              add [eax],al
00002B0D  0000              add [eax],al
00002B0F  0000              add [eax],al
00002B11  0000              add [eax],al
00002B13  0000              add [eax],al
00002B15  0000              add [eax],al
00002B17  0000              add [eax],al
00002B19  0000              add [eax],al
00002B1B  0000              add [eax],al
00002B1D  0000              add [eax],al
00002B1F  0000              add [eax],al
00002B21  0000              add [eax],al
00002B23  0000              add [eax],al
00002B25  0000              add [eax],al
00002B27  0000              add [eax],al
00002B29  0000              add [eax],al
00002B2B  0000              add [eax],al
00002B2D  0000              add [eax],al
00002B2F  0000              add [eax],al
00002B31  0000              add [eax],al
00002B33  0000              add [eax],al
00002B35  0000              add [eax],al
00002B37  0000              add [eax],al
00002B39  0000              add [eax],al
00002B3B  0000              add [eax],al
00002B3D  0000              add [eax],al
00002B3F  0000              add [eax],al
00002B41  0000              add [eax],al
00002B43  0000              add [eax],al
00002B45  0000              add [eax],al
00002B47  0000              add [eax],al
00002B49  0000              add [eax],al
00002B4B  0000              add [eax],al
00002B4D  0000              add [eax],al
00002B4F  0000              add [eax],al
00002B51  0000              add [eax],al
00002B53  0000              add [eax],al
00002B55  0000              add [eax],al
00002B57  0000              add [eax],al
00002B59  0000              add [eax],al
00002B5B  0000              add [eax],al
00002B5D  0000              add [eax],al
00002B5F  0000              add [eax],al
00002B61  0000              add [eax],al
00002B63  0000              add [eax],al
00002B65  0000              add [eax],al
00002B67  0000              add [eax],al
00002B69  0000              add [eax],al
00002B6B  0000              add [eax],al
00002B6D  0000              add [eax],al
00002B6F  0000              add [eax],al
00002B71  0000              add [eax],al
00002B73  0000              add [eax],al
00002B75  0000              add [eax],al
00002B77  0000              add [eax],al
00002B79  0000              add [eax],al
00002B7B  0000              add [eax],al
00002B7D  0000              add [eax],al
00002B7F  0000              add [eax],al
00002B81  0000              add [eax],al
00002B83  0000              add [eax],al
00002B85  0000              add [eax],al
00002B87  0000              add [eax],al
00002B89  0000              add [eax],al
00002B8B  0000              add [eax],al
00002B8D  0000              add [eax],al
00002B8F  0000              add [eax],al
00002B91  0000              add [eax],al
00002B93  0000              add [eax],al
00002B95  0000              add [eax],al
00002B97  0000              add [eax],al
00002B99  0000              add [eax],al
00002B9B  0000              add [eax],al
00002B9D  0000              add [eax],al
00002B9F  0000              add [eax],al
00002BA1  0000              add [eax],al
00002BA3  0000              add [eax],al
00002BA5  0000              add [eax],al
00002BA7  0000              add [eax],al
00002BA9  0000              add [eax],al
00002BAB  0000              add [eax],al
00002BAD  0000              add [eax],al
00002BAF  0000              add [eax],al
00002BB1  0000              add [eax],al
00002BB3  0000              add [eax],al
00002BB5  0000              add [eax],al
00002BB7  0000              add [eax],al
00002BB9  0000              add [eax],al
00002BBB  0000              add [eax],al
00002BBD  0000              add [eax],al
00002BBF  0000              add [eax],al
00002BC1  0000              add [eax],al
00002BC3  0000              add [eax],al
00002BC5  0000              add [eax],al
00002BC7  0000              add [eax],al
00002BC9  0000              add [eax],al
00002BCB  0000              add [eax],al
00002BCD  0000              add [eax],al
00002BCF  0000              add [eax],al
00002BD1  0000              add [eax],al
00002BD3  0000              add [eax],al
00002BD5  0000              add [eax],al
00002BD7  0000              add [eax],al
00002BD9  0000              add [eax],al
00002BDB  0000              add [eax],al
00002BDD  0000              add [eax],al
00002BDF  0000              add [eax],al
00002BE1  0000              add [eax],al
00002BE3  0000              add [eax],al
00002BE5  0000              add [eax],al
00002BE7  0000              add [eax],al
00002BE9  0000              add [eax],al
00002BEB  0000              add [eax],al
00002BED  0000              add [eax],al
00002BEF  0000              add [eax],al
00002BF1  0000              add [eax],al
00002BF3  0000              add [eax],al
00002BF5  0000              add [eax],al
00002BF7  0000              add [eax],al
00002BF9  0000              add [eax],al
00002BFB  0000              add [eax],al
00002BFD  0000              add [eax],al
00002BFF  0000              add [eax],al
00002C01  0000              add [eax],al
00002C03  0000              add [eax],al
00002C05  0000              add [eax],al
00002C07  0000              add [eax],al
00002C09  0000              add [eax],al
00002C0B  0000              add [eax],al
00002C0D  0000              add [eax],al
00002C0F  0000              add [eax],al
00002C11  0000              add [eax],al
00002C13  0000              add [eax],al
00002C15  0000              add [eax],al
00002C17  0000              add [eax],al
00002C19  0000              add [eax],al
00002C1B  0000              add [eax],al
00002C1D  0000              add [eax],al
00002C1F  0000              add [eax],al
00002C21  0000              add [eax],al
00002C23  0000              add [eax],al
00002C25  0000              add [eax],al
00002C27  0000              add [eax],al
00002C29  0000              add [eax],al
00002C2B  0000              add [eax],al
00002C2D  0000              add [eax],al
00002C2F  0000              add [eax],al
00002C31  0000              add [eax],al
00002C33  0000              add [eax],al
00002C35  0000              add [eax],al
00002C37  0000              add [eax],al
00002C39  0000              add [eax],al
00002C3B  0000              add [eax],al
00002C3D  0000              add [eax],al
00002C3F  0000              add [eax],al
00002C41  0000              add [eax],al
00002C43  0000              add [eax],al
00002C45  0000              add [eax],al
00002C47  0000              add [eax],al
00002C49  0000              add [eax],al
00002C4B  0000              add [eax],al
00002C4D  0000              add [eax],al
00002C4F  0000              add [eax],al
00002C51  0000              add [eax],al
00002C53  0000              add [eax],al
00002C55  0000              add [eax],al
00002C57  0000              add [eax],al
00002C59  0000              add [eax],al
00002C5B  0000              add [eax],al
00002C5D  0000              add [eax],al
00002C5F  0000              add [eax],al
00002C61  0000              add [eax],al
00002C63  0000              add [eax],al
00002C65  0000              add [eax],al
00002C67  0000              add [eax],al
00002C69  0000              add [eax],al
00002C6B  0000              add [eax],al
00002C6D  0000              add [eax],al
00002C6F  0000              add [eax],al
00002C71  0000              add [eax],al
00002C73  0000              add [eax],al
00002C75  0000              add [eax],al
00002C77  0000              add [eax],al
00002C79  0000              add [eax],al
00002C7B  0000              add [eax],al
00002C7D  0000              add [eax],al
00002C7F  0000              add [eax],al
00002C81  0000              add [eax],al
00002C83  0000              add [eax],al
00002C85  0000              add [eax],al
00002C87  0000              add [eax],al
00002C89  0000              add [eax],al
00002C8B  0000              add [eax],al
00002C8D  0000              add [eax],al
00002C8F  0000              add [eax],al
00002C91  0000              add [eax],al
00002C93  0000              add [eax],al
00002C95  0000              add [eax],al
00002C97  0000              add [eax],al
00002C99  0000              add [eax],al
00002C9B  0000              add [eax],al
00002C9D  0000              add [eax],al
00002C9F  0000              add [eax],al
00002CA1  0000              add [eax],al
00002CA3  0000              add [eax],al
00002CA5  0000              add [eax],al
00002CA7  0000              add [eax],al
00002CA9  0000              add [eax],al
00002CAB  0000              add [eax],al
00002CAD  0000              add [eax],al
00002CAF  0000              add [eax],al
00002CB1  0000              add [eax],al
00002CB3  0000              add [eax],al
00002CB5  0000              add [eax],al
00002CB7  0000              add [eax],al
00002CB9  0000              add [eax],al
00002CBB  0000              add [eax],al
00002CBD  0000              add [eax],al
00002CBF  0000              add [eax],al
00002CC1  0000              add [eax],al
00002CC3  0000              add [eax],al
00002CC5  0000              add [eax],al
00002CC7  0000              add [eax],al
00002CC9  0000              add [eax],al
00002CCB  0000              add [eax],al
00002CCD  0000              add [eax],al
00002CCF  0000              add [eax],al
00002CD1  0000              add [eax],al
00002CD3  0000              add [eax],al
00002CD5  0000              add [eax],al
00002CD7  0000              add [eax],al
00002CD9  0000              add [eax],al
00002CDB  0000              add [eax],al
00002CDD  0000              add [eax],al
00002CDF  0000              add [eax],al
00002CE1  0000              add [eax],al
00002CE3  0000              add [eax],al
00002CE5  0000              add [eax],al
00002CE7  0000              add [eax],al
00002CE9  0000              add [eax],al
00002CEB  0000              add [eax],al
00002CED  0000              add [eax],al
00002CEF  0000              add [eax],al
00002CF1  0000              add [eax],al
00002CF3  0000              add [eax],al
00002CF5  0000              add [eax],al
00002CF7  0000              add [eax],al
00002CF9  0000              add [eax],al
00002CFB  0000              add [eax],al
00002CFD  0000              add [eax],al
00002CFF  0000              add [eax],al
00002D01  0000              add [eax],al
00002D03  0000              add [eax],al
00002D05  0000              add [eax],al
00002D07  0000              add [eax],al
00002D09  0000              add [eax],al
00002D0B  0000              add [eax],al
00002D0D  0000              add [eax],al
00002D0F  0000              add [eax],al
00002D11  0000              add [eax],al
00002D13  0000              add [eax],al
00002D15  0000              add [eax],al
00002D17  0000              add [eax],al
00002D19  0000              add [eax],al
00002D1B  0000              add [eax],al
00002D1D  0000              add [eax],al
00002D1F  0000              add [eax],al
00002D21  0000              add [eax],al
00002D23  0000              add [eax],al
00002D25  0000              add [eax],al
00002D27  0000              add [eax],al
00002D29  0000              add [eax],al
00002D2B  0000              add [eax],al
00002D2D  0000              add [eax],al
00002D2F  0000              add [eax],al
00002D31  0000              add [eax],al
00002D33  0000              add [eax],al
00002D35  0000              add [eax],al
00002D37  0000              add [eax],al
00002D39  0000              add [eax],al
00002D3B  0000              add [eax],al
00002D3D  0000              add [eax],al
00002D3F  0000              add [eax],al
00002D41  0000              add [eax],al
00002D43  0000              add [eax],al
00002D45  0000              add [eax],al
00002D47  0000              add [eax],al
00002D49  0000              add [eax],al
00002D4B  0000              add [eax],al
00002D4D  0000              add [eax],al
00002D4F  0000              add [eax],al
00002D51  0000              add [eax],al
00002D53  0000              add [eax],al
00002D55  0000              add [eax],al
00002D57  0000              add [eax],al
00002D59  0000              add [eax],al
00002D5B  0000              add [eax],al
00002D5D  0000              add [eax],al
00002D5F  0000              add [eax],al
00002D61  0000              add [eax],al
00002D63  0000              add [eax],al
00002D65  0000              add [eax],al
00002D67  0000              add [eax],al
00002D69  0000              add [eax],al
00002D6B  0000              add [eax],al
00002D6D  0000              add [eax],al
00002D6F  0000              add [eax],al
00002D71  0000              add [eax],al
00002D73  0000              add [eax],al
00002D75  0000              add [eax],al
00002D77  0000              add [eax],al
00002D79  0000              add [eax],al
00002D7B  0000              add [eax],al
00002D7D  0000              add [eax],al
00002D7F  0000              add [eax],al
00002D81  0000              add [eax],al
00002D83  0000              add [eax],al
00002D85  0000              add [eax],al
00002D87  0000              add [eax],al
00002D89  0000              add [eax],al
00002D8B  0000              add [eax],al
00002D8D  0000              add [eax],al
00002D8F  0000              add [eax],al
00002D91  0000              add [eax],al
00002D93  0000              add [eax],al
00002D95  0000              add [eax],al
00002D97  0000              add [eax],al
00002D99  0000              add [eax],al
00002D9B  0000              add [eax],al
00002D9D  0000              add [eax],al
00002D9F  0000              add [eax],al
00002DA1  0000              add [eax],al
00002DA3  0000              add [eax],al
00002DA5  0000              add [eax],al
00002DA7  0000              add [eax],al
00002DA9  0000              add [eax],al
00002DAB  0000              add [eax],al
00002DAD  0000              add [eax],al
00002DAF  0000              add [eax],al
00002DB1  0000              add [eax],al
00002DB3  0000              add [eax],al
00002DB5  0000              add [eax],al
00002DB7  0000              add [eax],al
00002DB9  0000              add [eax],al
00002DBB  0000              add [eax],al
00002DBD  0000              add [eax],al
00002DBF  0000              add [eax],al
00002DC1  0000              add [eax],al
00002DC3  0000              add [eax],al
00002DC5  0000              add [eax],al
00002DC7  0000              add [eax],al
00002DC9  0000              add [eax],al
00002DCB  0000              add [eax],al
00002DCD  0000              add [eax],al
00002DCF  0000              add [eax],al
00002DD1  0000              add [eax],al
00002DD3  0000              add [eax],al
00002DD5  0000              add [eax],al
00002DD7  0000              add [eax],al
00002DD9  0000              add [eax],al
00002DDB  0000              add [eax],al
00002DDD  0000              add [eax],al
00002DDF  0000              add [eax],al
00002DE1  0000              add [eax],al
00002DE3  0000              add [eax],al
00002DE5  0000              add [eax],al
00002DE7  0000              add [eax],al
00002DE9  0000              add [eax],al
00002DEB  0000              add [eax],al
00002DED  0000              add [eax],al
00002DEF  0000              add [eax],al
00002DF1  0000              add [eax],al
00002DF3  0000              add [eax],al
00002DF5  0000              add [eax],al
00002DF7  0000              add [eax],al
00002DF9  0000              add [eax],al
00002DFB  0000              add [eax],al
00002DFD  0000              add [eax],al
00002DFF  0000              add [eax],al
00002E01  0000              add [eax],al
00002E03  0000              add [eax],al
00002E05  0000              add [eax],al
00002E07  0000              add [eax],al
00002E09  0000              add [eax],al
00002E0B  0000              add [eax],al
00002E0D  0000              add [eax],al
00002E0F  0000              add [eax],al
00002E11  0000              add [eax],al
00002E13  0000              add [eax],al
00002E15  0000              add [eax],al
00002E17  0000              add [eax],al
00002E19  0000              add [eax],al
00002E1B  0000              add [eax],al
00002E1D  0000              add [eax],al
00002E1F  0000              add [eax],al
00002E21  0000              add [eax],al
00002E23  0000              add [eax],al
00002E25  0000              add [eax],al
00002E27  0000              add [eax],al
00002E29  0000              add [eax],al
00002E2B  0000              add [eax],al
00002E2D  0000              add [eax],al
00002E2F  0000              add [eax],al
00002E31  0000              add [eax],al
00002E33  0000              add [eax],al
00002E35  0000              add [eax],al
00002E37  0000              add [eax],al
00002E39  0000              add [eax],al
00002E3B  0000              add [eax],al
00002E3D  0000              add [eax],al
00002E3F  0000              add [eax],al
00002E41  0000              add [eax],al
00002E43  0000              add [eax],al
00002E45  0000              add [eax],al
00002E47  0000              add [eax],al
00002E49  0000              add [eax],al
00002E4B  0000              add [eax],al
00002E4D  0000              add [eax],al
00002E4F  0000              add [eax],al
00002E51  0000              add [eax],al
00002E53  0000              add [eax],al
00002E55  0000              add [eax],al
00002E57  0000              add [eax],al
00002E59  0000              add [eax],al
00002E5B  0000              add [eax],al
00002E5D  0000              add [eax],al
00002E5F  0000              add [eax],al
00002E61  0000              add [eax],al
00002E63  0000              add [eax],al
00002E65  0000              add [eax],al
00002E67  0000              add [eax],al
00002E69  0000              add [eax],al
00002E6B  0000              add [eax],al
00002E6D  0000              add [eax],al
00002E6F  0000              add [eax],al
00002E71  0000              add [eax],al
00002E73  0000              add [eax],al
00002E75  0000              add [eax],al
00002E77  0000              add [eax],al
00002E79  0000              add [eax],al
00002E7B  0000              add [eax],al
00002E7D  0000              add [eax],al
00002E7F  0000              add [eax],al
00002E81  0000              add [eax],al
00002E83  0000              add [eax],al
00002E85  0000              add [eax],al
00002E87  0000              add [eax],al
00002E89  0000              add [eax],al
00002E8B  0000              add [eax],al
00002E8D  0000              add [eax],al
00002E8F  0000              add [eax],al
00002E91  0000              add [eax],al
00002E93  0000              add [eax],al
00002E95  0000              add [eax],al
00002E97  0000              add [eax],al
00002E99  0000              add [eax],al
00002E9B  0000              add [eax],al
00002E9D  0000              add [eax],al
00002E9F  0000              add [eax],al
00002EA1  0000              add [eax],al
00002EA3  0000              add [eax],al
00002EA5  0000              add [eax],al
00002EA7  0000              add [eax],al
00002EA9  0000              add [eax],al
00002EAB  0000              add [eax],al
00002EAD  0000              add [eax],al
00002EAF  0000              add [eax],al
00002EB1  0000              add [eax],al
00002EB3  0000              add [eax],al
00002EB5  0000              add [eax],al
00002EB7  0000              add [eax],al
00002EB9  0000              add [eax],al
00002EBB  0000              add [eax],al
00002EBD  0000              add [eax],al
00002EBF  0000              add [eax],al
00002EC1  0000              add [eax],al
00002EC3  0000              add [eax],al
00002EC5  0000              add [eax],al
00002EC7  0000              add [eax],al
00002EC9  0000              add [eax],al
00002ECB  0000              add [eax],al
00002ECD  0000              add [eax],al
00002ECF  0000              add [eax],al
00002ED1  0000              add [eax],al
00002ED3  0000              add [eax],al
00002ED5  0000              add [eax],al
00002ED7  0000              add [eax],al
00002ED9  0000              add [eax],al
00002EDB  0000              add [eax],al
00002EDD  0000              add [eax],al
00002EDF  0000              add [eax],al
00002EE1  0000              add [eax],al
00002EE3  0000              add [eax],al
00002EE5  0000              add [eax],al
00002EE7  0000              add [eax],al
00002EE9  0000              add [eax],al
00002EEB  0000              add [eax],al
00002EED  0000              add [eax],al
00002EEF  0000              add [eax],al
00002EF1  0000              add [eax],al
00002EF3  0000              add [eax],al
00002EF5  0000              add [eax],al
00002EF7  0000              add [eax],al
00002EF9  0000              add [eax],al
00002EFB  0000              add [eax],al
00002EFD  0000              add [eax],al
00002EFF  0000              add [eax],al
00002F01  0000              add [eax],al
00002F03  0000              add [eax],al
00002F05  0000              add [eax],al
00002F07  0000              add [eax],al
00002F09  0000              add [eax],al
00002F0B  0000              add [eax],al
00002F0D  0000              add [eax],al
00002F0F  0000              add [eax],al
00002F11  0000              add [eax],al
00002F13  0000              add [eax],al
00002F15  0000              add [eax],al
00002F17  0000              add [eax],al
00002F19  0000              add [eax],al
00002F1B  0000              add [eax],al
00002F1D  0000              add [eax],al
00002F1F  0000              add [eax],al
00002F21  0000              add [eax],al
00002F23  0000              add [eax],al
00002F25  0000              add [eax],al
00002F27  0000              add [eax],al
00002F29  0000              add [eax],al
00002F2B  0000              add [eax],al
00002F2D  0000              add [eax],al
00002F2F  0000              add [eax],al
00002F31  0000              add [eax],al
00002F33  0000              add [eax],al
00002F35  0000              add [eax],al
00002F37  0000              add [eax],al
00002F39  0000              add [eax],al
00002F3B  0000              add [eax],al
00002F3D  0000              add [eax],al
00002F3F  0000              add [eax],al
00002F41  0000              add [eax],al
00002F43  0000              add [eax],al
00002F45  0000              add [eax],al
00002F47  0000              add [eax],al
00002F49  0000              add [eax],al
00002F4B  0000              add [eax],al
00002F4D  0000              add [eax],al
00002F4F  0000              add [eax],al
00002F51  0000              add [eax],al
00002F53  0000              add [eax],al
00002F55  0000              add [eax],al
00002F57  0000              add [eax],al
00002F59  0000              add [eax],al
00002F5B  0000              add [eax],al
00002F5D  0000              add [eax],al
00002F5F  0000              add [eax],al
00002F61  0000              add [eax],al
00002F63  0000              add [eax],al
00002F65  0000              add [eax],al
00002F67  0000              add [eax],al
00002F69  0000              add [eax],al
00002F6B  0000              add [eax],al
00002F6D  0000              add [eax],al
00002F6F  0000              add [eax],al
00002F71  0000              add [eax],al
00002F73  0000              add [eax],al
00002F75  0000              add [eax],al
00002F77  0000              add [eax],al
00002F79  0000              add [eax],al
00002F7B  0000              add [eax],al
00002F7D  0000              add [eax],al
00002F7F  0000              add [eax],al
00002F81  0000              add [eax],al
00002F83  0000              add [eax],al
00002F85  0000              add [eax],al
00002F87  0000              add [eax],al
00002F89  0000              add [eax],al
00002F8B  0000              add [eax],al
00002F8D  0000              add [eax],al
00002F8F  0000              add [eax],al
00002F91  0000              add [eax],al
00002F93  0000              add [eax],al
00002F95  0000              add [eax],al
00002F97  0000              add [eax],al
00002F99  0000              add [eax],al
00002F9B  0000              add [eax],al
00002F9D  0000              add [eax],al
00002F9F  0000              add [eax],al
00002FA1  0000              add [eax],al
00002FA3  0000              add [eax],al
00002FA5  0000              add [eax],al
00002FA7  0000              add [eax],al
00002FA9  0000              add [eax],al
00002FAB  0000              add [eax],al
00002FAD  0000              add [eax],al
00002FAF  0000              add [eax],al
00002FB1  0000              add [eax],al
00002FB3  0000              add [eax],al
00002FB5  0000              add [eax],al
00002FB7  0000              add [eax],al
00002FB9  0000              add [eax],al
00002FBB  0000              add [eax],al
00002FBD  0000              add [eax],al
00002FBF  0000              add [eax],al
00002FC1  0000              add [eax],al
00002FC3  0000              add [eax],al
00002FC5  0000              add [eax],al
00002FC7  0000              add [eax],al
00002FC9  0000              add [eax],al
00002FCB  0000              add [eax],al
00002FCD  0000              add [eax],al
00002FCF  0000              add [eax],al
00002FD1  0000              add [eax],al
00002FD3  0000              add [eax],al
00002FD5  0000              add [eax],al
00002FD7  0000              add [eax],al
00002FD9  0000              add [eax],al
00002FDB  0000              add [eax],al
00002FDD  0000              add [eax],al
00002FDF  0000              add [eax],al
00002FE1  0000              add [eax],al
00002FE3  0000              add [eax],al
00002FE5  0000              add [eax],al
00002FE7  0000              add [eax],al
00002FE9  0000              add [eax],al
00002FEB  0000              add [eax],al
00002FED  0000              add [eax],al
00002FEF  0000              add [eax],al
00002FF1  0000              add [eax],al
00002FF3  0000              add [eax],al
00002FF5  0000              add [eax],al
00002FF7  0000              add [eax],al
00002FF9  0000              add [eax],al
00002FFB  0000              add [eax],al
00002FFD  0000              add [eax],al
00002FFF  0001              add [ecx],al
00003001  0000              add [eax],al
00003003  00FD              add ch,bh
00003005  4F                dec edi
00003006  52                push edx
00003007  E421              in al,0x21
00003009  0000              add [eax],al
0000300B  001400            add [eax+eax],dl
0000300E  0000              add [eax],al
00003010  0000              add [eax],al
00003012  0000              add [eax],al
00003014  017A52            add [edx+0x52],edi
00003017  0001              add [ecx],al
00003019  7C08              jl 0x3023
0000301B  011B              add [ebx],ebx
0000301D  0C04              or al,0x4
0000301F  0488              add al,0x88
00003021  0100              add [eax],eax
00003023  0020              add [eax],ah
00003025  0000              add [eax],al
00003027  001C00            add [eax+eax],bl
0000302A  0000              add [eax],al
0000302C  31E0              xor eax,esp
0000302E  FF                db 0xff
0000302F  FF                db 0xff
00003030  3801              cmp [ecx],al
00003032  0000              add [eax],al
00003034  00410E            add [ecx+0xe],al
00003037  088502420D05      or [ebp+0x50d4202],al
0000303D  47                inc edi
0000303E  830303            add dword [ebx],byte +0x3
00003041  2D01C5C30C        sub eax,0xcc3c501
00003046  0404              add al,0x4
00003048  1000              adc [eax],al
0000304A  0000              add [eax],al
0000304C  40                inc eax
0000304D  0000              add [eax],al
0000304F  00C6              add dh,al
00003051  EF                out dx,eax
00003052  FF                db 0xff
00003053  FF0400            inc dword [eax+eax]
00003056  0000              add [eax],al
00003058  0000              add [eax],al
0000305A  0000              add [eax],al
0000305C  2000              and [eax],al
0000305E  0000              add [eax],al
00003060  54                push esp
00003061  0000              add [eax],al
00003063  0031              add [ecx],dh
00003065  E1FF              loope 0x3066
00003067  FF                db 0xff
00003068  DA00              fiadd dword [eax]
0000306A  0000              add [eax],al
0000306C  00410E            add [ecx+0xe],al
0000306F  088502420D05      or [ebp+0x50d4202],al
00003075  44                inc esp
00003076  830302            add dword [ebx],byte +0x2
00003079  D2C5              rol ch,cl
0000307B  C3                ret
0000307C  0C04              or al,0x4
0000307E  0400              add al,0x0
00003080  2000              and [eax],al
00003082  0000              add [eax],al
00003084  7800              js 0x3086
00003086  0000              add [eax],al
00003088  E7E1              out 0xe1,eax
0000308A  FF                db 0xff
0000308B  FF8E00000000      dec dword [esi+0x0]
00003091  41                inc ecx
00003092  0E                push cs
00003093  088502420D05      or [ebp+0x50d4202],al
00003099  44                inc esp
0000309A  830302            add dword [ebx],byte +0x2
0000309D  86C5              xchg ch,al
0000309F  C3                ret
000030A0  0C04              or al,0x4
000030A2  0400              add al,0x0
000030A4  1000              adc [eax],al
000030A6  0000              add [eax],al
000030A8  9C                pushf
000030A9  0000              add [eax],al
000030AB  006EEF            add [esi-0x11],ch
000030AE  FF                db 0xff
000030AF  FF0400            inc dword [eax+eax]
000030B2  0000              add [eax],al
000030B4  0000              add [eax],al
000030B6  0000              add [eax],al
000030B8  1C00              sbb al,0x0
000030BA  0000              add [eax],al
000030BC  B000              mov al,0x0
000030BE  0000              add [eax],al
000030C0  5E                pop esi
000030C1  EF                out dx,eax
000030C2  FF                db 0xff
000030C3  FF19              call far [ecx]
000030C5  0000              add [eax],al
000030C7  0000              add [eax],al
000030C9  41                inc ecx
000030CA  0E                push cs
000030CB  088502420D05      or [ebp+0x50d4202],al
000030D1  55                push ebp
000030D2  C50C04            lds ecx,[esp+eax]
000030D5  0400              add al,0x0
000030D7  0020              add [eax],ah
000030D9  0000              add [eax],al
000030DB  00D0              add al,dl
000030DD  0000              add [eax],al
000030DF  001E              add [esi],bl
000030E1  E2FF              loop 0x30e2
000030E3  FF6800            jmp far [eax+0x0]
000030E6  0000              add [eax],al
000030E8  00410E            add [ecx+0xe],al
000030EB  088502420D05      or [ebp+0x50d4202],al
000030F1  44                inc esp
000030F2  830302            add dword [ebx],byte +0x2
000030F5  60                pusha
000030F6  C5                db 0xc5
000030F7  C3                ret
000030F8  0C04              or al,0x4
000030FA  0400              add al,0x0
000030FC  2000              and [eax],al
000030FE  0000              add [eax],al
00003100  F4                hlt
00003101  0000              add [eax],al
00003103  0062E2            add [edx-0x1e],ah
00003106  FF                db 0xff
00003107  FF                db 0xff
00003108  FE00              inc byte [eax]
0000310A  0000              add [eax],al
0000310C  00410E            add [ecx+0xe],al
0000310F  088502420D05      or [ebp+0x50d4202],al
00003115  44                inc esp
00003116  830302            add dword [ebx],byte +0x2
00003119  F6C5C3            test ch,0xc3
0000311C  0C04              or al,0x4
0000311E  0400              add al,0x0
00003120  1000              adc [eax],al
00003122  0000              add [eax],al
00003124  1801              sbb [ecx],al
00003126  0000              add [eax],al
00003128  0FEFFF            pxor mm7,mm7
0000312B  FF0400            inc dword [eax+eax]
0000312E  0000              add [eax],al
00003130  0000              add [eax],al
00003132  0000              add [eax],al
00003134  2000              and [eax],al
00003136  0000              add [eax],al
00003138  2C01              sub al,0x1
0000313A  0000              add [eax],al
0000313C  66E3FF            o16 jecxz 0x313e
0000313F  FF7700            push dword [edi+0x0]
00003142  0000              add [eax],al
00003144  00410E            add [ecx+0xe],al
00003147  088502420D05      or [ebp+0x50d4202],al
0000314D  44                inc esp
0000314E  830302            add dword [ebx],byte +0x2
00003151  6F                outsd
00003152  C5                db 0xc5
00003153  C3                ret
00003154  0C04              or al,0x4
00003156  0400              add al,0x0
00003158  2000              and [eax],al
0000315A  0000              add [eax],al
0000315C  50                push eax
0000315D  0100              add [eax],eax
0000315F  00B9E3FFFF60      add [ecx+0x60ffffe3],bh
00003165  0000              add [eax],al
00003167  0000              add [eax],al
00003169  41                inc ecx
0000316A  0E                push cs
0000316B  088502420D05      or [ebp+0x50d4202],al
00003171  44                inc esp
00003172  830302            add dword [ebx],byte +0x2
00003175  58                pop eax
00003176  C5                db 0xc5
00003177  C3                ret
00003178  0C04              or al,0x4
0000317A  0400              add al,0x0
0000317C  2800              sub [eax],al
0000317E  0000              add [eax],al
00003180  7401              jz 0x3183
00003182  0000              add [eax],al
00003184  F5                cmc
00003185  E3FF              jecxz 0x3186
00003187  FF8F00000000      dec dword [edi+0x0]
0000318D  41                inc ecx
0000318E  0E                push cs
0000318F  088502420D05      or [ebp+0x50d4202],al
00003195  46                inc esi
00003196  8703              xchg [ebx],eax
00003198  860483            xchg [ebx+eax*4],al
0000319B  050282C341        add eax,0x41c38202
000031A0  C641C741          mov byte [ecx-0x39],0x41
000031A4  C50C04            lds ecx,[esp+eax]
000031A7  0420              add al,0x20
000031A9  0000              add [eax],al
000031AB  00A001000058      add [eax+0x58000001],ah
000031B1  E4FF              in al,0xff
000031B3  FF7500            push dword [ebp+0x0]
000031B6  0000              add [eax],al
000031B8  00410E            add [ecx+0xe],al
000031BB  088502420D05      or [ebp+0x50d4202],al
000031C1  44                inc esp
000031C2  830302            add dword [ebx],byte +0x2
000031C5  6D                insd
000031C6  C5                db 0xc5
000031C7  C3                ret
000031C8  0C04              or al,0x4
000031CA  0400              add al,0x0
000031CC  2000              and [eax],al
000031CE  0000              add [eax],al
000031D0  C401              les eax,[ecx]
000031D2  0000              add [eax],al
000031D4  A9E4FFFF38        test eax,0x38ffffe4
000031D9  0000              add [eax],al
000031DB  0000              add [eax],al
000031DD  41                inc ecx
000031DE  0E                push cs
000031DF  088502420D05      or [ebp+0x50d4202],al
000031E5  44                inc esp
000031E6  830370            add dword [ebx],byte +0x70
000031E9  C5                db 0xc5
000031EA  C3                ret
000031EB  0C04              or al,0x4
000031ED  0400              add al,0x0
000031EF  0020              add [eax],ah
000031F1  0000              add [eax],al
000031F3  00E8              add al,ch
000031F5  0100              add [eax],eax
000031F7  00BDE4FFFF3B      add [ebp+0x3bffffe4],bh
000031FD  0000              add [eax],al
000031FF  0000              add [eax],al
00003201  41                inc ecx
00003202  0E                push cs
00003203  088502420D05      or [ebp+0x50d4202],al
00003209  44                inc esp
0000320A  830373            add dword [ebx],byte +0x73
0000320D  C5                db 0xc5
0000320E  C3                ret
0000320F  0C04              or al,0x4
00003211  0400              add al,0x0
00003213  0020              add [eax],ah
00003215  0000              add [eax],al
00003217  000C02            add [edx+eax],cl
0000321A  0000              add [eax],al
0000321C  D4E4              aam 0xe4
0000321E  FF                db 0xff
0000321F  FF                db 0xff
00003220  3800              cmp [eax],al
00003222  0000              add [eax],al
00003224  00410E            add [ecx+0xe],al
00003227  088502420D05      or [ebp+0x50d4202],al
0000322D  44                inc esp
0000322E  830370            add dword [ebx],byte +0x70
00003231  C5                db 0xc5
00003232  C3                ret
00003233  0C04              or al,0x4
00003235  0400              add al,0x0
00003237  0020              add [eax],ah
00003239  0000              add [eax],al
0000323B  0030              add [eax],dh
0000323D  0200              add al,[eax]
0000323F  00E8              add al,ch
00003241  E4FF              in al,0xff
00003243  FF                db 0xff
00003244  3B00              cmp eax,[eax]
00003246  0000              add [eax],al
00003248  00410E            add [ecx+0xe],al
0000324B  088502420D05      or [ebp+0x50d4202],al
00003251  44                inc esp
00003252  830373            add dword [ebx],byte +0x73
00003255  C5                db 0xc5
00003256  C3                ret
00003257  0C04              or al,0x4
00003259  0400              add al,0x0
0000325B  001C00            add [eax+eax],bl
0000325E  0000              add [eax],al
00003260  54                push esp
00003261  0200              add al,[eax]
00003263  00FF              add bh,bh
00003265  E4FF              in al,0xff
00003267  FF5200            call [edx+0x0]
0000326A  0000              add [eax],al
0000326C  00410E            add [ecx+0xe],al
0000326F  088502420D05      or [ebp+0x50d4202],al
00003275  024EC5            add cl,[esi-0x3b]
00003278  0C04              or al,0x4
0000327A  0400              add al,0x0
0000327C  2000              and [eax],al
0000327E  0000              add [eax],al
00003280  7402              jz 0x3284
00003282  0000              add [eax],al
00003284  31E5              xor ebp,esp
00003286  FF                db 0xff
00003287  FF5700            call [edi+0x0]
0000328A  0000              add [eax],al
0000328C  00410E            add [ecx+0xe],al
0000328F  088502420D05      or [ebp+0x50d4202],al
00003295  44                inc esp
00003296  830302            add dword [ebx],byte +0x2
00003299  4F                dec edi
0000329A  C5                db 0xc5
0000329B  C3                ret
0000329C  0C04              or al,0x4
0000329E  0400              add al,0x0
000032A0  1C00              sbb al,0x0
000032A2  0000              add [eax],al
000032A4  98                cwde
000032A5  0200              add al,[eax]
000032A7  0064E5FF          add [ebp-0x1],ah
000032AB  FF7000            push dword [eax+0x0]
000032AE  0000              add [eax],al
000032B0  00410E            add [ecx+0xe],al
000032B3  088502420D05      or [ebp+0x50d4202],al
000032B9  026CC50C          add ch,[ebp+eax*8+0xc]
000032BD  0404              add al,0x4
000032BF  0020              add [eax],ah
000032C1  0000              add [eax],al
000032C3  00B8020000B4      add [eax-0x4bfffffe],bh
000032C9  E5FF              in eax,0xff
000032CB  FF4F00            dec dword [edi+0x0]
000032CE  0000              add [eax],al
000032D0  00410E            add [ecx+0xe],al
000032D3  088502420D05      or [ebp+0x50d4202],al
000032D9  44                inc esp
000032DA  830302            add dword [ebx],byte +0x2
000032DD  47                inc edi
000032DE  C5                db 0xc5
000032DF  C3                ret
000032E0  0C04              or al,0x4
000032E2  0400              add al,0x0
000032E4  1C00              sbb al,0x0
000032E6  0000              add [eax],al
000032E8  DC02              fadd qword [edx]
000032EA  0000              add [eax],al
000032EC  DF                db 0xdf
000032ED  E5FF              in eax,0xff
000032EF  FF20              jmp [eax]
000032F1  0000              add [eax],al
000032F3  0000              add [eax],al
000032F5  41                inc ecx
000032F6  0E                push cs
000032F7  088502420D05      or [ebp+0x50d4202],al
000032FD  5C                pop esp
000032FE  C50C04            lds ecx,[esp+eax]
00003301  0400              add al,0x0
00003303  0020              add [eax],ah
00003305  0000              add [eax],al
00003307  00FC              add ah,bh
00003309  0200              add al,[eax]
0000330B  00DF              add bh,bl
0000330D  E5FF              in eax,0xff
0000330F  FF4300            inc dword [ebx+0x0]
00003312  0000              add [eax],al
00003314  00410E            add [ecx+0xe],al
00003317  088502420D05      or [ebp+0x50d4202],al
0000331D  44                inc esp
0000331E  83037B            add dword [ebx],byte +0x7b
00003321  C5                db 0xc5
00003322  C3                ret
00003323  0C04              or al,0x4
00003325  0400              add al,0x0
00003327  001C00            add [eax+eax],bl
0000332A  0000              add [eax],al
0000332C  2003              and [ebx],al
0000332E  0000              add [eax],al
00003330  FE                db 0xfe
00003331  E5FF              in eax,0xff
00003333  FF6500            jmp [ebp+0x0]
00003336  0000              add [eax],al
00003338  00410E            add [ecx+0xe],al
0000333B  088502420D05      or [ebp+0x50d4202],al
00003341  0261C5            add ah,[ecx-0x3b]
00003344  0C04              or al,0x4
00003346  0400              add al,0x0
00003348  2000              and [eax],al
0000334A  0000              add [eax],al
0000334C  40                inc eax
0000334D  0300              add eax,[eax]
0000334F  0043E6            add [ebx-0x1a],al
00003352  FF                db 0xff
00003353  FF740000          push dword [eax+eax+0x0]
00003357  0000              add [eax],al
00003359  41                inc ecx
0000335A  0E                push cs
0000335B  088502420D05      or [ebp+0x50d4202],al
00003361  44                inc esp
00003362  830302            add dword [ebx],byte +0x2
00003365  6C                insb
00003366  C5                db 0xc5
00003367  C3                ret
00003368  0C04              or al,0x4
0000336A  0400              add al,0x0
0000336C  2000              and [eax],al
0000336E  0000              add [eax],al
00003370  640300            add eax,[fs:eax]
00003373  0048E8            add [eax-0x18],cl
00003376  FF                db 0xff
00003377  FF                db 0xff
00003378  DA00              fiadd dword [eax]
0000337A  0000              add [eax],al
0000337C  00410E            add [ecx+0xe],al
0000337F  088502420D05      or [ebp+0x50d4202],al
00003385  44                inc esp
00003386  830302            add dword [ebx],byte +0x2
00003389  D2C5              rol ch,cl
0000338B  C3                ret
0000338C  0C04              or al,0x4
0000338E  0400              add al,0x0
00003390  1C00              sbb al,0x0
00003392  0000              add [eax],al
00003394  8803              mov [ebx],al
00003396  0000              add [eax],al
00003398  10E9              adc cl,ch
0000339A  FF                db 0xff
0000339B  FF                db 0xff
0000339C  3F                aas
0000339D  0000              add [eax],al
0000339F  0000              add [eax],al
000033A1  41                inc ecx
000033A2  0E                push cs
000033A3  088502420D05      or [ebp+0x50d4202],al
000033A9  7BC5              jpo 0x3370
000033AB  0C04              or al,0x4
000033AD  0400              add al,0x0
000033AF  001C00            add [eax+eax],bl
000033B2  0000              add [eax],al
000033B4  A803              test al,0x3
000033B6  0000              add [eax],al
000033B8  2F                das
000033B9  E9FFFF8600        jmp 0x8733bd
000033BE  0000              add [eax],al
000033C0  00410E            add [ecx+0xe],al
000033C3  088502420D05      or [ebp+0x50d4202],al
000033C9  0282C50C0404      add al,[edx+0x4040cc5]
000033CF  001C00            add [eax+eax],bl
000033D2  0000              add [eax],al
000033D4  C8030000          enter 0x3,0x0
000033D8  95                xchg eax,ebp
000033D9  E9FFFF3800        jmp 0x3933dd
000033DE  0000              add [eax],al
000033E0  00410E            add [ecx+0xe],al
000033E3  088502420D05      or [ebp+0x50d4202],al
000033E9  74C5              jz 0x33b0
000033EB  0C04              or al,0x4
000033ED  0400              add al,0x0
000033EF  002400            add [eax+eax],ah
000033F2  0000              add [eax],al
000033F4  E8030000AD        call 0xad0033fc
000033F9  E9FFFF9400        jmp 0x9533fd
000033FE  0000              add [eax],al
00003400  00410E            add [ecx+0xe],al
00003403  088502420D05      or [ebp+0x50d4202],al
00003409  45                inc ebp
0000340A  8603              xchg [ebx],al
0000340C  83040289          add dword [edx+eax],byte -0x77
00003410  C3                ret
00003411  41                inc ecx
00003412  C641C50C          mov byte [ecx-0x3b],0xc
00003416  0404              add al,0x4
00003418  1C00              sbb al,0x0
0000341A  0000              add [eax],al
0000341C  100400            adc [eax+eax],al
0000341F  0019              add [ecx],bl
00003421  EAFFFF65000000    jmp 0x0:0x65ffff
00003428  00410E            add [ecx+0xe],al
0000342B  088502420D05      or [ebp+0x50d4202],al
00003431  0261C5            add ah,[ecx-0x3b]
00003434  0C04              or al,0x4
00003436  0400              add al,0x0
00003438  2000              and [eax],al
0000343A  0000              add [eax],al
0000343C  300400            xor [eax+eax],al
0000343F  005EEA            add [esi-0x16],bl
00003442  FF                db 0xff
00003443  FF                db 0xff
00003444  3900              cmp [eax],eax
00003446  0000              add [eax],al
00003448  00410E            add [ecx+0xe],al
0000344B  088502420D05      or [ebp+0x50d4202],al
00003451  44                inc esp
00003452  830371            add dword [ebx],byte +0x71
00003455  C5                db 0xc5
00003456  C3                ret
00003457  0C04              or al,0x4
00003459  0400              add al,0x0
0000345B  0020              add [eax],ah
0000345D  0000              add [eax],al
0000345F  00540400          add [esp+eax+0x0],dl
00003463  0073EA            add [ebx-0x16],dh
00003466  FF                db 0xff
00003467  FF                db 0xff
00003468  3D00000000        cmp eax,0x0
0000346D  41                inc ecx
0000346E  0E                push cs
0000346F  088502420D05      or [ebp+0x50d4202],al
00003475  44                inc esp
00003476  830375            add dword [ebx],byte +0x75
00003479  C5                db 0xc5
0000347A  C3                ret
0000347B  0C04              or al,0x4
0000347D  0400              add al,0x0
0000347F  0020              add [eax],ah
00003481  0000              add [eax],al
00003483  007804            add [eax+0x4],bh
00003486  0000              add [eax],al
00003488  8CEA              mov edx,gs
0000348A  FF                db 0xff
0000348B  FF840000000041    inc dword [eax+eax+0x41000000]
00003492  0E                push cs
00003493  088502420D05      or [ebp+0x50d4202],al
00003499  44                inc esp
0000349A  830302            add dword [ebx],byte +0x2
0000349D  7CC5              jl 0x3464
0000349F  C3                ret
000034A0  0C04              or al,0x4
000034A2  0400              add al,0x0
000034A4  1C00              sbb al,0x0
000034A6  0000              add [eax],al
000034A8  9C                pushf
000034A9  0400              add al,0x0
000034AB  00EC              add ah,ch
000034AD  EAFFFF35000000    jmp 0x0:0x35ffff
000034B4  00410E            add [ecx+0xe],al
000034B7  088502420D05      or [ebp+0x50d4202],al
000034BD  71C5              jno 0x3484
000034BF  0C04              or al,0x4
000034C1  0400              add al,0x0
000034C3  001C00            add [eax+eax],bl
000034C6  0000              add [eax],al
000034C8  BC0400001A        mov esp,0x1a000004
000034CD  EBFF              jmp short 0x34ce
000034CF  FF30              push dword [eax]
000034D1  0000              add [eax],al
000034D3  0000              add [eax],al
000034D5  41                inc ecx
000034D6  0E                push cs
000034D7  088502420D05      or [ebp+0x50d4202],al
000034DD  6C                insb
000034DE  C50C04            lds ecx,[esp+eax]
000034E1  0400              add al,0x0
000034E3  0000              add [eax],al
000034E5  0000              add [eax],al
000034E7  0000              add [eax],al
000034E9  0000              add [eax],al
000034EB  0000              add [eax],al
000034ED  0000              add [eax],al
000034EF  0000              add [eax],al
000034F1  0000              add [eax],al
000034F3  0000              add [eax],al
000034F5  0000              add [eax],al
000034F7  0000              add [eax],al
000034F9  0000              add [eax],al
000034FB  0000              add [eax],al
000034FD  0000              add [eax],al
000034FF  0000              add [eax],al
00003501  0000              add [eax],al
00003503  0000              add [eax],al
00003505  0000              add [eax],al
00003507  0000              add [eax],al
00003509  0000              add [eax],al
0000350B  0000              add [eax],al
0000350D  0000              add [eax],al
0000350F  0000              add [eax],al
00003511  0000              add [eax],al
00003513  0000              add [eax],al
00003515  0000              add [eax],al
00003517  0000              add [eax],al
00003519  0000              add [eax],al
0000351B  0000              add [eax],al
0000351D  0000              add [eax],al
0000351F  0000              add [eax],al
00003521  0000              add [eax],al
00003523  0000              add [eax],al
00003525  0000              add [eax],al
00003527  0000              add [eax],al
00003529  0000              add [eax],al
0000352B  0000              add [eax],al
0000352D  0000              add [eax],al
0000352F  0000              add [eax],al
00003531  0000              add [eax],al
00003533  0000              add [eax],al
00003535  0000              add [eax],al
00003537  0000              add [eax],al
00003539  0000              add [eax],al
0000353B  0000              add [eax],al
0000353D  0000              add [eax],al
0000353F  0000              add [eax],al
00003541  0000              add [eax],al
00003543  0000              add [eax],al
00003545  0000              add [eax],al
00003547  0000              add [eax],al
00003549  0000              add [eax],al
0000354B  0000              add [eax],al
0000354D  0000              add [eax],al
0000354F  0000              add [eax],al
00003551  0000              add [eax],al
00003553  0000              add [eax],al
00003555  0000              add [eax],al
00003557  0000              add [eax],al
00003559  0000              add [eax],al
0000355B  0000              add [eax],al
0000355D  0000              add [eax],al
0000355F  0000              add [eax],al
00003561  0000              add [eax],al
00003563  0000              add [eax],al
00003565  0000              add [eax],al
00003567  0000              add [eax],al
00003569  0000              add [eax],al
0000356B  0000              add [eax],al
0000356D  0000              add [eax],al
0000356F  0000              add [eax],al
00003571  0000              add [eax],al
00003573  0000              add [eax],al
00003575  0000              add [eax],al
00003577  0000              add [eax],al
00003579  0000              add [eax],al
0000357B  0000              add [eax],al
0000357D  0000              add [eax],al
0000357F  0000              add [eax],al
00003581  0000              add [eax],al
00003583  0000              add [eax],al
00003585  0000              add [eax],al
00003587  0000              add [eax],al
00003589  0000              add [eax],al
0000358B  0000              add [eax],al
0000358D  0000              add [eax],al
0000358F  0000              add [eax],al
00003591  0000              add [eax],al
00003593  0000              add [eax],al
00003595  0000              add [eax],al
00003597  0000              add [eax],al
00003599  0000              add [eax],al
0000359B  0000              add [eax],al
0000359D  0000              add [eax],al
0000359F  0000              add [eax],al
000035A1  0000              add [eax],al
000035A3  0000              add [eax],al
000035A5  0000              add [eax],al
000035A7  0000              add [eax],al
000035A9  0000              add [eax],al
000035AB  0000              add [eax],al
000035AD  0000              add [eax],al
000035AF  0000              add [eax],al
000035B1  0000              add [eax],al
000035B3  0000              add [eax],al
000035B5  0000              add [eax],al
000035B7  0000              add [eax],al
000035B9  0000              add [eax],al
000035BB  0000              add [eax],al
000035BD  0000              add [eax],al
000035BF  0000              add [eax],al
000035C1  0000              add [eax],al
000035C3  0000              add [eax],al
000035C5  0000              add [eax],al
000035C7  0000              add [eax],al
000035C9  0000              add [eax],al
000035CB  0000              add [eax],al
000035CD  0000              add [eax],al
000035CF  0000              add [eax],al
000035D1  0000              add [eax],al
000035D3  0000              add [eax],al
000035D5  0000              add [eax],al
000035D7  0000              add [eax],al
000035D9  0000              add [eax],al
000035DB  0000              add [eax],al
000035DD  0000              add [eax],al
000035DF  0000              add [eax],al
000035E1  0000              add [eax],al
000035E3  0000              add [eax],al
000035E5  0000              add [eax],al
000035E7  0000              add [eax],al
000035E9  0000              add [eax],al
000035EB  0000              add [eax],al
000035ED  0000              add [eax],al
000035EF  0000              add [eax],al
000035F1  0000              add [eax],al
000035F3  0000              add [eax],al
000035F5  0000              add [eax],al
000035F7  0000              add [eax],al
000035F9  0000              add [eax],al
000035FB  0000              add [eax],al
000035FD  0000              add [eax],al
000035FF  0000              add [eax],al
00003601  0000              add [eax],al
00003603  0000              add [eax],al
00003605  0000              add [eax],al
00003607  0000              add [eax],al
00003609  0000              add [eax],al
0000360B  0000              add [eax],al
0000360D  0000              add [eax],al
0000360F  0000              add [eax],al
00003611  0000              add [eax],al
00003613  0000              add [eax],al
00003615  0000              add [eax],al
00003617  0000              add [eax],al
00003619  0000              add [eax],al
0000361B  0000              add [eax],al
0000361D  0000              add [eax],al
0000361F  0000              add [eax],al
00003621  0000              add [eax],al
00003623  0000              add [eax],al
00003625  0000              add [eax],al
00003627  0000              add [eax],al
00003629  0000              add [eax],al
0000362B  0000              add [eax],al
0000362D  0000              add [eax],al
0000362F  0000              add [eax],al
00003631  0000              add [eax],al
00003633  0000              add [eax],al
00003635  0000              add [eax],al
00003637  0000              add [eax],al
00003639  0000              add [eax],al
0000363B  0000              add [eax],al
0000363D  0000              add [eax],al
0000363F  0000              add [eax],al
00003641  0000              add [eax],al
00003643  0000              add [eax],al
00003645  0000              add [eax],al
00003647  0000              add [eax],al
00003649  0000              add [eax],al
0000364B  0000              add [eax],al
0000364D  0000              add [eax],al
0000364F  0000              add [eax],al
00003651  0000              add [eax],al
00003653  0000              add [eax],al
00003655  0000              add [eax],al
00003657  0000              add [eax],al
00003659  0000              add [eax],al
0000365B  0000              add [eax],al
0000365D  0000              add [eax],al
0000365F  0000              add [eax],al
00003661  0000              add [eax],al
00003663  0000              add [eax],al
00003665  0000              add [eax],al
00003667  0000              add [eax],al
00003669  0000              add [eax],al
0000366B  0000              add [eax],al
0000366D  0000              add [eax],al
0000366F  0000              add [eax],al
00003671  0000              add [eax],al
00003673  0000              add [eax],al
00003675  0000              add [eax],al
00003677  0000              add [eax],al
00003679  0000              add [eax],al
0000367B  0000              add [eax],al
0000367D  0000              add [eax],al
0000367F  0000              add [eax],al
00003681  0000              add [eax],al
00003683  0000              add [eax],al
00003685  0000              add [eax],al
00003687  0000              add [eax],al
00003689  0000              add [eax],al
0000368B  0000              add [eax],al
0000368D  0000              add [eax],al
0000368F  0000              add [eax],al
00003691  0000              add [eax],al
00003693  0000              add [eax],al
00003695  0000              add [eax],al
00003697  0000              add [eax],al
00003699  0000              add [eax],al
0000369B  0000              add [eax],al
0000369D  0000              add [eax],al
0000369F  0000              add [eax],al
000036A1  0000              add [eax],al
000036A3  0000              add [eax],al
000036A5  0000              add [eax],al
000036A7  0000              add [eax],al
000036A9  0000              add [eax],al
000036AB  0000              add [eax],al
000036AD  0000              add [eax],al
000036AF  0000              add [eax],al
000036B1  0000              add [eax],al
000036B3  0000              add [eax],al
000036B5  0000              add [eax],al
000036B7  0000              add [eax],al
000036B9  0000              add [eax],al
000036BB  0000              add [eax],al
000036BD  0000              add [eax],al
000036BF  0000              add [eax],al
000036C1  0000              add [eax],al
000036C3  0000              add [eax],al
000036C5  0000              add [eax],al
000036C7  0000              add [eax],al
000036C9  0000              add [eax],al
000036CB  0000              add [eax],al
000036CD  0000              add [eax],al
000036CF  0000              add [eax],al
000036D1  0000              add [eax],al
000036D3  0000              add [eax],al
000036D5  0000              add [eax],al
000036D7  0000              add [eax],al
000036D9  0000              add [eax],al
000036DB  0000              add [eax],al
000036DD  0000              add [eax],al
000036DF  0000              add [eax],al
000036E1  0000              add [eax],al
000036E3  0000              add [eax],al
000036E5  0000              add [eax],al
000036E7  0000              add [eax],al
000036E9  0000              add [eax],al
000036EB  0000              add [eax],al
000036ED  0000              add [eax],al
000036EF  0000              add [eax],al
000036F1  0000              add [eax],al
000036F3  0000              add [eax],al
000036F5  0000              add [eax],al
000036F7  0000              add [eax],al
000036F9  0000              add [eax],al
000036FB  0000              add [eax],al
000036FD  0000              add [eax],al
000036FF  0000              add [eax],al
00003701  0000              add [eax],al
00003703  0000              add [eax],al
00003705  0000              add [eax],al
00003707  0000              add [eax],al
00003709  0000              add [eax],al
0000370B  0000              add [eax],al
0000370D  0000              add [eax],al
0000370F  0000              add [eax],al
00003711  0000              add [eax],al
00003713  0000              add [eax],al
00003715  0000              add [eax],al
00003717  0000              add [eax],al
00003719  0000              add [eax],al
0000371B  0000              add [eax],al
0000371D  0000              add [eax],al
0000371F  0000              add [eax],al
00003721  0000              add [eax],al
00003723  0000              add [eax],al
00003725  0000              add [eax],al
00003727  0000              add [eax],al
00003729  0000              add [eax],al
0000372B  0000              add [eax],al
0000372D  0000              add [eax],al
0000372F  0000              add [eax],al
00003731  0000              add [eax],al
00003733  0000              add [eax],al
00003735  0000              add [eax],al
00003737  0000              add [eax],al
00003739  0000              add [eax],al
0000373B  0000              add [eax],al
0000373D  0000              add [eax],al
0000373F  0000              add [eax],al
00003741  0000              add [eax],al
00003743  0000              add [eax],al
00003745  0000              add [eax],al
00003747  0000              add [eax],al
00003749  0000              add [eax],al
0000374B  0000              add [eax],al
0000374D  0000              add [eax],al
0000374F  0000              add [eax],al
00003751  0000              add [eax],al
00003753  0000              add [eax],al
00003755  0000              add [eax],al
00003757  0000              add [eax],al
00003759  0000              add [eax],al
0000375B  0000              add [eax],al
0000375D  0000              add [eax],al
0000375F  0000              add [eax],al
00003761  0000              add [eax],al
00003763  0000              add [eax],al
00003765  0000              add [eax],al
00003767  0000              add [eax],al
00003769  0000              add [eax],al
0000376B  0000              add [eax],al
0000376D  0000              add [eax],al
0000376F  0000              add [eax],al
00003771  0000              add [eax],al
00003773  0000              add [eax],al
00003775  0000              add [eax],al
00003777  0000              add [eax],al
00003779  0000              add [eax],al
0000377B  0000              add [eax],al
0000377D  0000              add [eax],al
0000377F  0000              add [eax],al
00003781  0000              add [eax],al
00003783  0000              add [eax],al
00003785  0000              add [eax],al
00003787  0000              add [eax],al
00003789  0000              add [eax],al
0000378B  0000              add [eax],al
0000378D  0000              add [eax],al
0000378F  0000              add [eax],al
00003791  0000              add [eax],al
00003793  0000              add [eax],al
00003795  0000              add [eax],al
00003797  0000              add [eax],al
00003799  0000              add [eax],al
0000379B  0000              add [eax],al
0000379D  0000              add [eax],al
0000379F  0000              add [eax],al
000037A1  0000              add [eax],al
000037A3  0000              add [eax],al
000037A5  0000              add [eax],al
000037A7  0000              add [eax],al
000037A9  0000              add [eax],al
000037AB  0000              add [eax],al
000037AD  0000              add [eax],al
000037AF  0000              add [eax],al
000037B1  0000              add [eax],al
000037B3  0000              add [eax],al
000037B5  0000              add [eax],al
000037B7  0000              add [eax],al
000037B9  0000              add [eax],al
000037BB  0000              add [eax],al
000037BD  0000              add [eax],al
000037BF  0000              add [eax],al
000037C1  0000              add [eax],al
000037C3  0000              add [eax],al
000037C5  0000              add [eax],al
000037C7  0000              add [eax],al
000037C9  0000              add [eax],al
000037CB  0000              add [eax],al
000037CD  0000              add [eax],al
000037CF  0000              add [eax],al
000037D1  0000              add [eax],al
000037D3  0000              add [eax],al
000037D5  0000              add [eax],al
000037D7  0000              add [eax],al
000037D9  0000              add [eax],al
000037DB  0000              add [eax],al
000037DD  0000              add [eax],al
000037DF  0000              add [eax],al
000037E1  0000              add [eax],al
000037E3  0000              add [eax],al
000037E5  0000              add [eax],al
000037E7  0000              add [eax],al
000037E9  0000              add [eax],al
000037EB  0000              add [eax],al
000037ED  0000              add [eax],al
000037EF  0000              add [eax],al
000037F1  0000              add [eax],al
000037F3  0000              add [eax],al
000037F5  0000              add [eax],al
000037F7  0000              add [eax],al
000037F9  0000              add [eax],al
000037FB  0000              add [eax],al
000037FD  0000              add [eax],al
000037FF  0000              add [eax],al
00003801  0000              add [eax],al
00003803  0000              add [eax],al
00003805  0000              add [eax],al
00003807  0000              add [eax],al
00003809  0000              add [eax],al
0000380B  0000              add [eax],al
0000380D  0000              add [eax],al
0000380F  0000              add [eax],al
00003811  0000              add [eax],al
00003813  0000              add [eax],al
00003815  0000              add [eax],al
00003817  0000              add [eax],al
00003819  0000              add [eax],al
0000381B  0000              add [eax],al
0000381D  0000              add [eax],al
0000381F  0000              add [eax],al
00003821  0000              add [eax],al
00003823  0000              add [eax],al
00003825  0000              add [eax],al
00003827  0000              add [eax],al
00003829  0000              add [eax],al
0000382B  0000              add [eax],al
0000382D  0000              add [eax],al
0000382F  0000              add [eax],al
00003831  0000              add [eax],al
00003833  0000              add [eax],al
00003835  0000              add [eax],al
00003837  0000              add [eax],al
00003839  0000              add [eax],al
0000383B  0000              add [eax],al
0000383D  0000              add [eax],al
0000383F  0000              add [eax],al
00003841  0000              add [eax],al
00003843  0000              add [eax],al
00003845  0000              add [eax],al
00003847  0000              add [eax],al
00003849  0000              add [eax],al
0000384B  0000              add [eax],al
0000384D  0000              add [eax],al
0000384F  0000              add [eax],al
00003851  0000              add [eax],al
00003853  0000              add [eax],al
00003855  0000              add [eax],al
00003857  0000              add [eax],al
00003859  0000              add [eax],al
0000385B  0000              add [eax],al
0000385D  0000              add [eax],al
0000385F  0000              add [eax],al
00003861  0000              add [eax],al
00003863  0000              add [eax],al
00003865  0000              add [eax],al
00003867  0000              add [eax],al
00003869  0000              add [eax],al
0000386B  0000              add [eax],al
0000386D  0000              add [eax],al
0000386F  0000              add [eax],al
00003871  0000              add [eax],al
00003873  0000              add [eax],al
00003875  0000              add [eax],al
00003877  0000              add [eax],al
00003879  0000              add [eax],al
0000387B  0000              add [eax],al
0000387D  0000              add [eax],al
0000387F  0000              add [eax],al
00003881  0000              add [eax],al
00003883  0000              add [eax],al
00003885  0000              add [eax],al
00003887  0000              add [eax],al
00003889  0000              add [eax],al
0000388B  0000              add [eax],al
0000388D  0000              add [eax],al
0000388F  0000              add [eax],al
00003891  0000              add [eax],al
00003893  0000              add [eax],al
00003895  0000              add [eax],al
00003897  0000              add [eax],al
00003899  0000              add [eax],al
0000389B  0000              add [eax],al
0000389D  0000              add [eax],al
0000389F  0000              add [eax],al
000038A1  0000              add [eax],al
000038A3  0000              add [eax],al
000038A5  0000              add [eax],al
000038A7  0000              add [eax],al
000038A9  0000              add [eax],al
000038AB  0000              add [eax],al
000038AD  0000              add [eax],al
000038AF  0000              add [eax],al
000038B1  0000              add [eax],al
000038B3  0000              add [eax],al
000038B5  0000              add [eax],al
000038B7  0000              add [eax],al
000038B9  0000              add [eax],al
000038BB  0000              add [eax],al
000038BD  0000              add [eax],al
000038BF  0000              add [eax],al
000038C1  0000              add [eax],al
000038C3  0000              add [eax],al
000038C5  0000              add [eax],al
000038C7  0000              add [eax],al
000038C9  0000              add [eax],al
000038CB  0000              add [eax],al
000038CD  0000              add [eax],al
000038CF  0000              add [eax],al
000038D1  0000              add [eax],al
000038D3  0000              add [eax],al
000038D5  0000              add [eax],al
000038D7  0000              add [eax],al
000038D9  0000              add [eax],al
000038DB  0000              add [eax],al
000038DD  0000              add [eax],al
000038DF  0000              add [eax],al
000038E1  0000              add [eax],al
000038E3  0000              add [eax],al
000038E5  0000              add [eax],al
000038E7  0000              add [eax],al
000038E9  0000              add [eax],al
000038EB  0000              add [eax],al
000038ED  0000              add [eax],al
000038EF  0000              add [eax],al
000038F1  0000              add [eax],al
000038F3  0000              add [eax],al
000038F5  0000              add [eax],al
000038F7  0000              add [eax],al
000038F9  0000              add [eax],al
000038FB  0000              add [eax],al
000038FD  0000              add [eax],al
000038FF  0000              add [eax],al
00003901  0000              add [eax],al
00003903  0000              add [eax],al
00003905  0000              add [eax],al
00003907  0000              add [eax],al
00003909  0000              add [eax],al
0000390B  0000              add [eax],al
0000390D  0000              add [eax],al
0000390F  0000              add [eax],al
00003911  0000              add [eax],al
00003913  0000              add [eax],al
00003915  0000              add [eax],al
00003917  0000              add [eax],al
00003919  0000              add [eax],al
0000391B  0000              add [eax],al
0000391D  0000              add [eax],al
0000391F  0000              add [eax],al
00003921  0000              add [eax],al
00003923  0000              add [eax],al
00003925  0000              add [eax],al
00003927  0000              add [eax],al
00003929  0000              add [eax],al
0000392B  0000              add [eax],al
0000392D  0000              add [eax],al
0000392F  0000              add [eax],al
00003931  0000              add [eax],al
00003933  0000              add [eax],al
00003935  0000              add [eax],al
00003937  0000              add [eax],al
00003939  0000              add [eax],al
0000393B  0000              add [eax],al
0000393D  0000              add [eax],al
0000393F  0000              add [eax],al
00003941  0000              add [eax],al
00003943  0000              add [eax],al
00003945  0000              add [eax],al
00003947  0000              add [eax],al
00003949  0000              add [eax],al
0000394B  0000              add [eax],al
0000394D  0000              add [eax],al
0000394F  0000              add [eax],al
00003951  0000              add [eax],al
00003953  0000              add [eax],al
00003955  0000              add [eax],al
00003957  0000              add [eax],al
00003959  0000              add [eax],al
0000395B  0000              add [eax],al
0000395D  0000              add [eax],al
0000395F  0000              add [eax],al
00003961  0000              add [eax],al
00003963  0000              add [eax],al
00003965  0000              add [eax],al
00003967  0000              add [eax],al
00003969  0000              add [eax],al
0000396B  0000              add [eax],al
0000396D  0000              add [eax],al
0000396F  0000              add [eax],al
00003971  0000              add [eax],al
00003973  0000              add [eax],al
00003975  0000              add [eax],al
00003977  0000              add [eax],al
00003979  0000              add [eax],al
0000397B  0000              add [eax],al
0000397D  0000              add [eax],al
0000397F  0000              add [eax],al
00003981  0000              add [eax],al
00003983  0000              add [eax],al
00003985  0000              add [eax],al
00003987  0000              add [eax],al
00003989  0000              add [eax],al
0000398B  0000              add [eax],al
0000398D  0000              add [eax],al
0000398F  0000              add [eax],al
00003991  0000              add [eax],al
00003993  0000              add [eax],al
00003995  0000              add [eax],al
00003997  0000              add [eax],al
00003999  0000              add [eax],al
0000399B  0000              add [eax],al
0000399D  0000              add [eax],al
0000399F  0000              add [eax],al
000039A1  0000              add [eax],al
000039A3  0000              add [eax],al
000039A5  0000              add [eax],al
000039A7  0000              add [eax],al
000039A9  0000              add [eax],al
000039AB  0000              add [eax],al
000039AD  0000              add [eax],al
000039AF  0000              add [eax],al
000039B1  0000              add [eax],al
000039B3  0000              add [eax],al
000039B5  0000              add [eax],al
000039B7  0000              add [eax],al
000039B9  0000              add [eax],al
000039BB  0000              add [eax],al
000039BD  0000              add [eax],al
000039BF  0000              add [eax],al
000039C1  0000              add [eax],al
000039C3  0000              add [eax],al
000039C5  0000              add [eax],al
000039C7  0000              add [eax],al
000039C9  0000              add [eax],al
000039CB  0000              add [eax],al
000039CD  0000              add [eax],al
000039CF  0000              add [eax],al
000039D1  0000              add [eax],al
000039D3  0000              add [eax],al
000039D5  0000              add [eax],al
000039D7  0000              add [eax],al
000039D9  0000              add [eax],al
000039DB  0000              add [eax],al
000039DD  0000              add [eax],al
000039DF  0000              add [eax],al
000039E1  0000              add [eax],al
000039E3  0000              add [eax],al
000039E5  0000              add [eax],al
000039E7  0000              add [eax],al
000039E9  0000              add [eax],al
000039EB  0000              add [eax],al
000039ED  0000              add [eax],al
000039EF  0000              add [eax],al
000039F1  0000              add [eax],al
000039F3  0000              add [eax],al
000039F5  0000              add [eax],al
000039F7  0000              add [eax],al
000039F9  0000              add [eax],al
000039FB  0000              add [eax],al
000039FD  0000              add [eax],al
000039FF  0000              add [eax],al
00003A01  0000              add [eax],al
00003A03  0000              add [eax],al
00003A05  0000              add [eax],al
00003A07  0000              add [eax],al
00003A09  0000              add [eax],al
00003A0B  0000              add [eax],al
00003A0D  0000              add [eax],al
00003A0F  0000              add [eax],al
00003A11  0000              add [eax],al
00003A13  0000              add [eax],al
00003A15  0000              add [eax],al
00003A17  0000              add [eax],al
00003A19  0000              add [eax],al
00003A1B  0000              add [eax],al
00003A1D  0000              add [eax],al
00003A1F  0000              add [eax],al
00003A21  0000              add [eax],al
00003A23  0000              add [eax],al
00003A25  0000              add [eax],al
00003A27  0000              add [eax],al
00003A29  0000              add [eax],al
00003A2B  0000              add [eax],al
00003A2D  0000              add [eax],al
00003A2F  0000              add [eax],al
00003A31  0000              add [eax],al
00003A33  0000              add [eax],al
00003A35  0000              add [eax],al
00003A37  0000              add [eax],al
00003A39  0000              add [eax],al
00003A3B  0000              add [eax],al
00003A3D  0000              add [eax],al
00003A3F  0000              add [eax],al
00003A41  0000              add [eax],al
00003A43  0000              add [eax],al
00003A45  0000              add [eax],al
00003A47  0000              add [eax],al
00003A49  0000              add [eax],al
00003A4B  0000              add [eax],al
00003A4D  0000              add [eax],al
00003A4F  0000              add [eax],al
00003A51  0000              add [eax],al
00003A53  0000              add [eax],al
00003A55  0000              add [eax],al
00003A57  0000              add [eax],al
00003A59  0000              add [eax],al
00003A5B  0000              add [eax],al
00003A5D  0000              add [eax],al
00003A5F  0000              add [eax],al
00003A61  0000              add [eax],al
00003A63  0000              add [eax],al
00003A65  0000              add [eax],al
00003A67  0000              add [eax],al
00003A69  0000              add [eax],al
00003A6B  0000              add [eax],al
00003A6D  0000              add [eax],al
00003A6F  0000              add [eax],al
00003A71  0000              add [eax],al
00003A73  0000              add [eax],al
00003A75  0000              add [eax],al
00003A77  0000              add [eax],al
00003A79  0000              add [eax],al
00003A7B  0000              add [eax],al
00003A7D  0000              add [eax],al
00003A7F  0000              add [eax],al
00003A81  0000              add [eax],al
00003A83  0000              add [eax],al
00003A85  0000              add [eax],al
00003A87  0000              add [eax],al
00003A89  0000              add [eax],al
00003A8B  0000              add [eax],al
00003A8D  0000              add [eax],al
00003A8F  0000              add [eax],al
00003A91  0000              add [eax],al
00003A93  0000              add [eax],al
00003A95  0000              add [eax],al
00003A97  0000              add [eax],al
00003A99  0000              add [eax],al
00003A9B  0000              add [eax],al
00003A9D  0000              add [eax],al
00003A9F  0000              add [eax],al
00003AA1  0000              add [eax],al
00003AA3  0000              add [eax],al
00003AA5  0000              add [eax],al
00003AA7  0000              add [eax],al
00003AA9  0000              add [eax],al
00003AAB  0000              add [eax],al
00003AAD  0000              add [eax],al
00003AAF  0000              add [eax],al
00003AB1  0000              add [eax],al
00003AB3  0000              add [eax],al
00003AB5  0000              add [eax],al
00003AB7  0000              add [eax],al
00003AB9  0000              add [eax],al
00003ABB  0000              add [eax],al
00003ABD  0000              add [eax],al
00003ABF  0000              add [eax],al
00003AC1  0000              add [eax],al
00003AC3  0000              add [eax],al
00003AC5  0000              add [eax],al
00003AC7  0000              add [eax],al
00003AC9  0000              add [eax],al
00003ACB  0000              add [eax],al
00003ACD  0000              add [eax],al
00003ACF  0000              add [eax],al
00003AD1  0000              add [eax],al
00003AD3  0000              add [eax],al
00003AD5  0000              add [eax],al
00003AD7  0000              add [eax],al
00003AD9  0000              add [eax],al
00003ADB  0000              add [eax],al
00003ADD  0000              add [eax],al
00003ADF  0000              add [eax],al
00003AE1  0000              add [eax],al
00003AE3  0000              add [eax],al
00003AE5  0000              add [eax],al
00003AE7  0000              add [eax],al
00003AE9  0000              add [eax],al
00003AEB  0000              add [eax],al
00003AED  0000              add [eax],al
00003AEF  0000              add [eax],al
00003AF1  0000              add [eax],al
00003AF3  0000              add [eax],al
00003AF5  0000              add [eax],al
00003AF7  0000              add [eax],al
00003AF9  0000              add [eax],al
00003AFB  0000              add [eax],al
00003AFD  0000              add [eax],al
00003AFF  0000              add [eax],al
00003B01  0000              add [eax],al
00003B03  0000              add [eax],al
00003B05  0000              add [eax],al
00003B07  0000              add [eax],al
00003B09  0000              add [eax],al
00003B0B  0000              add [eax],al
00003B0D  0000              add [eax],al
00003B0F  0000              add [eax],al
00003B11  0000              add [eax],al
00003B13  0000              add [eax],al
00003B15  0000              add [eax],al
00003B17  0000              add [eax],al
00003B19  0000              add [eax],al
00003B1B  0000              add [eax],al
00003B1D  0000              add [eax],al
00003B1F  0000              add [eax],al
00003B21  0000              add [eax],al
00003B23  0000              add [eax],al
00003B25  0000              add [eax],al
00003B27  0000              add [eax],al
00003B29  0000              add [eax],al
00003B2B  0000              add [eax],al
00003B2D  0000              add [eax],al
00003B2F  0000              add [eax],al
00003B31  0000              add [eax],al
00003B33  0000              add [eax],al
00003B35  0000              add [eax],al
00003B37  0000              add [eax],al
00003B39  0000              add [eax],al
00003B3B  0000              add [eax],al
00003B3D  0000              add [eax],al
00003B3F  0000              add [eax],al
00003B41  0000              add [eax],al
00003B43  0000              add [eax],al
00003B45  0000              add [eax],al
00003B47  0000              add [eax],al
00003B49  0000              add [eax],al
00003B4B  0000              add [eax],al
00003B4D  0000              add [eax],al
00003B4F  0000              add [eax],al
00003B51  0000              add [eax],al
00003B53  0000              add [eax],al
00003B55  0000              add [eax],al
00003B57  0000              add [eax],al
00003B59  0000              add [eax],al
00003B5B  0000              add [eax],al
00003B5D  0000              add [eax],al
00003B5F  0000              add [eax],al
00003B61  0000              add [eax],al
00003B63  0000              add [eax],al
00003B65  0000              add [eax],al
00003B67  0000              add [eax],al
00003B69  0000              add [eax],al
00003B6B  0000              add [eax],al
00003B6D  0000              add [eax],al
00003B6F  0000              add [eax],al
00003B71  0000              add [eax],al
00003B73  0000              add [eax],al
00003B75  0000              add [eax],al
00003B77  0000              add [eax],al
00003B79  0000              add [eax],al
00003B7B  0000              add [eax],al
00003B7D  0000              add [eax],al
00003B7F  0000              add [eax],al
00003B81  0000              add [eax],al
00003B83  0000              add [eax],al
00003B85  0000              add [eax],al
00003B87  0000              add [eax],al
00003B89  0000              add [eax],al
00003B8B  0000              add [eax],al
00003B8D  0000              add [eax],al
00003B8F  0000              add [eax],al
00003B91  0000              add [eax],al
00003B93  0000              add [eax],al
00003B95  0000              add [eax],al
00003B97  0000              add [eax],al
00003B99  0000              add [eax],al
00003B9B  0000              add [eax],al
00003B9D  0000              add [eax],al
00003B9F  0000              add [eax],al
00003BA1  0000              add [eax],al
00003BA3  0000              add [eax],al
00003BA5  0000              add [eax],al
00003BA7  0000              add [eax],al
00003BA9  0000              add [eax],al
00003BAB  0000              add [eax],al
00003BAD  0000              add [eax],al
00003BAF  0000              add [eax],al
00003BB1  0000              add [eax],al
00003BB3  0000              add [eax],al
00003BB5  0000              add [eax],al
00003BB7  0000              add [eax],al
00003BB9  0000              add [eax],al
00003BBB  0000              add [eax],al
00003BBD  0000              add [eax],al
00003BBF  0000              add [eax],al
00003BC1  0000              add [eax],al
00003BC3  0000              add [eax],al
00003BC5  0000              add [eax],al
00003BC7  0000              add [eax],al
00003BC9  0000              add [eax],al
00003BCB  0000              add [eax],al
00003BCD  0000              add [eax],al
00003BCF  0000              add [eax],al
00003BD1  0000              add [eax],al
00003BD3  0000              add [eax],al
00003BD5  0000              add [eax],al
00003BD7  0000              add [eax],al
00003BD9  0000              add [eax],al
00003BDB  0000              add [eax],al
00003BDD  0000              add [eax],al
00003BDF  0000              add [eax],al
00003BE1  0000              add [eax],al
00003BE3  0000              add [eax],al
00003BE5  0000              add [eax],al
00003BE7  0000              add [eax],al
00003BE9  0000              add [eax],al
00003BEB  0000              add [eax],al
00003BED  0000              add [eax],al
00003BEF  0000              add [eax],al
00003BF1  0000              add [eax],al
00003BF3  0000              add [eax],al
00003BF5  0000              add [eax],al
00003BF7  0000              add [eax],al
00003BF9  0000              add [eax],al
00003BFB  0000              add [eax],al
00003BFD  0000              add [eax],al
00003BFF  0000              add [eax],al
00003C01  0000              add [eax],al
00003C03  0000              add [eax],al
00003C05  0000              add [eax],al
00003C07  0000              add [eax],al
00003C09  0000              add [eax],al
00003C0B  0000              add [eax],al
00003C0D  0000              add [eax],al
00003C0F  0000              add [eax],al
00003C11  0000              add [eax],al
00003C13  0000              add [eax],al
00003C15  0000              add [eax],al
00003C17  0000              add [eax],al
00003C19  0000              add [eax],al
00003C1B  0000              add [eax],al
00003C1D  0000              add [eax],al
00003C1F  0000              add [eax],al
00003C21  0000              add [eax],al
00003C23  0000              add [eax],al
00003C25  0000              add [eax],al
00003C27  0000              add [eax],al
00003C29  0000              add [eax],al
00003C2B  0000              add [eax],al
00003C2D  0000              add [eax],al
00003C2F  0000              add [eax],al
00003C31  0000              add [eax],al
00003C33  0000              add [eax],al
00003C35  0000              add [eax],al
00003C37  0000              add [eax],al
00003C39  0000              add [eax],al
00003C3B  0000              add [eax],al
00003C3D  0000              add [eax],al
00003C3F  0000              add [eax],al
00003C41  0000              add [eax],al
00003C43  0000              add [eax],al
00003C45  0000              add [eax],al
00003C47  0000              add [eax],al
00003C49  0000              add [eax],al
00003C4B  0000              add [eax],al
00003C4D  0000              add [eax],al
00003C4F  0000              add [eax],al
00003C51  0000              add [eax],al
00003C53  0000              add [eax],al
00003C55  0000              add [eax],al
00003C57  0000              add [eax],al
00003C59  0000              add [eax],al
00003C5B  0000              add [eax],al
00003C5D  0000              add [eax],al
00003C5F  0000              add [eax],al
00003C61  0000              add [eax],al
00003C63  0000              add [eax],al
00003C65  0000              add [eax],al
00003C67  0000              add [eax],al
00003C69  0000              add [eax],al
00003C6B  0000              add [eax],al
00003C6D  0000              add [eax],al
00003C6F  0000              add [eax],al
00003C71  0000              add [eax],al
00003C73  0000              add [eax],al
00003C75  0000              add [eax],al
00003C77  0000              add [eax],al
00003C79  0000              add [eax],al
00003C7B  0000              add [eax],al
00003C7D  0000              add [eax],al
00003C7F  0000              add [eax],al
00003C81  0000              add [eax],al
00003C83  0000              add [eax],al
00003C85  0000              add [eax],al
00003C87  0000              add [eax],al
00003C89  0000              add [eax],al
00003C8B  0000              add [eax],al
00003C8D  0000              add [eax],al
00003C8F  0000              add [eax],al
00003C91  0000              add [eax],al
00003C93  0000              add [eax],al
00003C95  0000              add [eax],al
00003C97  0000              add [eax],al
00003C99  0000              add [eax],al
00003C9B  0000              add [eax],al
00003C9D  0000              add [eax],al
00003C9F  0000              add [eax],al
00003CA1  0000              add [eax],al
00003CA3  0000              add [eax],al
00003CA5  0000              add [eax],al
00003CA7  0000              add [eax],al
00003CA9  0000              add [eax],al
00003CAB  0000              add [eax],al
00003CAD  0000              add [eax],al
00003CAF  0000              add [eax],al
00003CB1  0000              add [eax],al
00003CB3  0000              add [eax],al
00003CB5  0000              add [eax],al
00003CB7  0000              add [eax],al
00003CB9  0000              add [eax],al
00003CBB  0000              add [eax],al
00003CBD  0000              add [eax],al
00003CBF  0000              add [eax],al
00003CC1  0000              add [eax],al
00003CC3  0000              add [eax],al
00003CC5  0000              add [eax],al
00003CC7  0000              add [eax],al
00003CC9  0000              add [eax],al
00003CCB  0000              add [eax],al
00003CCD  0000              add [eax],al
00003CCF  0000              add [eax],al
00003CD1  0000              add [eax],al
00003CD3  0000              add [eax],al
00003CD5  0000              add [eax],al
00003CD7  0000              add [eax],al
00003CD9  0000              add [eax],al
00003CDB  0000              add [eax],al
00003CDD  0000              add [eax],al
00003CDF  0000              add [eax],al
00003CE1  0000              add [eax],al
00003CE3  0000              add [eax],al
00003CE5  0000              add [eax],al
00003CE7  0000              add [eax],al
00003CE9  0000              add [eax],al
00003CEB  0000              add [eax],al
00003CED  0000              add [eax],al
00003CEF  0000              add [eax],al
00003CF1  0000              add [eax],al
00003CF3  0000              add [eax],al
00003CF5  0000              add [eax],al
00003CF7  0000              add [eax],al
00003CF9  0000              add [eax],al
00003CFB  0000              add [eax],al
00003CFD  0000              add [eax],al
00003CFF  0000              add [eax],al
00003D01  0000              add [eax],al
00003D03  0000              add [eax],al
00003D05  0000              add [eax],al
00003D07  0000              add [eax],al
00003D09  0000              add [eax],al
00003D0B  0000              add [eax],al
00003D0D  0000              add [eax],al
00003D0F  0000              add [eax],al
00003D11  0000              add [eax],al
00003D13  0000              add [eax],al
00003D15  0000              add [eax],al
00003D17  0000              add [eax],al
00003D19  0000              add [eax],al
00003D1B  0000              add [eax],al
00003D1D  0000              add [eax],al
00003D1F  0000              add [eax],al
00003D21  0000              add [eax],al
00003D23  0000              add [eax],al
00003D25  0000              add [eax],al
00003D27  0000              add [eax],al
00003D29  0000              add [eax],al
00003D2B  0000              add [eax],al
00003D2D  0000              add [eax],al
00003D2F  0000              add [eax],al
00003D31  0000              add [eax],al
00003D33  0000              add [eax],al
00003D35  0000              add [eax],al
00003D37  0000              add [eax],al
00003D39  0000              add [eax],al
00003D3B  0000              add [eax],al
00003D3D  0000              add [eax],al
00003D3F  0000              add [eax],al
00003D41  0000              add [eax],al
00003D43  0000              add [eax],al
00003D45  0000              add [eax],al
00003D47  0000              add [eax],al
00003D49  0000              add [eax],al
00003D4B  0000              add [eax],al
00003D4D  0000              add [eax],al
00003D4F  0000              add [eax],al
00003D51  0000              add [eax],al
00003D53  0000              add [eax],al
00003D55  0000              add [eax],al
00003D57  0000              add [eax],al
00003D59  0000              add [eax],al
00003D5B  0000              add [eax],al
00003D5D  0000              add [eax],al
00003D5F  0000              add [eax],al
00003D61  0000              add [eax],al
00003D63  0000              add [eax],al
00003D65  0000              add [eax],al
00003D67  0000              add [eax],al
00003D69  0000              add [eax],al
00003D6B  0000              add [eax],al
00003D6D  0000              add [eax],al
00003D6F  0000              add [eax],al
00003D71  0000              add [eax],al
00003D73  0000              add [eax],al
00003D75  0000              add [eax],al
00003D77  0000              add [eax],al
00003D79  0000              add [eax],al
00003D7B  0000              add [eax],al
00003D7D  0000              add [eax],al
00003D7F  0000              add [eax],al
00003D81  0000              add [eax],al
00003D83  0000              add [eax],al
00003D85  0000              add [eax],al
00003D87  0000              add [eax],al
00003D89  0000              add [eax],al
00003D8B  0000              add [eax],al
00003D8D  0000              add [eax],al
00003D8F  0000              add [eax],al
00003D91  0000              add [eax],al
00003D93  0000              add [eax],al
00003D95  0000              add [eax],al
00003D97  0000              add [eax],al
00003D99  0000              add [eax],al
00003D9B  0000              add [eax],al
00003D9D  0000              add [eax],al
00003D9F  0000              add [eax],al
00003DA1  0000              add [eax],al
00003DA3  0000              add [eax],al
00003DA5  0000              add [eax],al
00003DA7  0000              add [eax],al
00003DA9  0000              add [eax],al
00003DAB  0000              add [eax],al
00003DAD  0000              add [eax],al
00003DAF  0000              add [eax],al
00003DB1  0000              add [eax],al
00003DB3  0000              add [eax],al
00003DB5  0000              add [eax],al
00003DB7  0000              add [eax],al
00003DB9  0000              add [eax],al
00003DBB  0000              add [eax],al
00003DBD  0000              add [eax],al
00003DBF  0000              add [eax],al
00003DC1  0000              add [eax],al
00003DC3  0000              add [eax],al
00003DC5  0000              add [eax],al
00003DC7  0000              add [eax],al
00003DC9  0000              add [eax],al
00003DCB  0000              add [eax],al
00003DCD  0000              add [eax],al
00003DCF  0000              add [eax],al
00003DD1  0000              add [eax],al
00003DD3  0000              add [eax],al
00003DD5  0000              add [eax],al
00003DD7  0000              add [eax],al
00003DD9  0000              add [eax],al
00003DDB  0000              add [eax],al
00003DDD  0000              add [eax],al
00003DDF  0000              add [eax],al
00003DE1  0000              add [eax],al
00003DE3  0000              add [eax],al
00003DE5  0000              add [eax],al
00003DE7  0000              add [eax],al
00003DE9  0000              add [eax],al
00003DEB  0000              add [eax],al
00003DED  0000              add [eax],al
00003DEF  0000              add [eax],al
00003DF1  0000              add [eax],al
00003DF3  0000              add [eax],al
00003DF5  0000              add [eax],al
00003DF7  0000              add [eax],al
00003DF9  0000              add [eax],al
00003DFB  0000              add [eax],al
00003DFD  0000              add [eax],al
00003DFF  0000              add [eax],al
00003E01  0000              add [eax],al
00003E03  0000              add [eax],al
00003E05  0000              add [eax],al
00003E07  0000              add [eax],al
00003E09  0000              add [eax],al
00003E0B  0000              add [eax],al
00003E0D  0000              add [eax],al
00003E0F  0000              add [eax],al
00003E11  0000              add [eax],al
00003E13  0000              add [eax],al
00003E15  0000              add [eax],al
00003E17  0000              add [eax],al
00003E19  0000              add [eax],al
00003E1B  0000              add [eax],al
00003E1D  0000              add [eax],al
00003E1F  0000              add [eax],al
00003E21  0000              add [eax],al
00003E23  0000              add [eax],al
00003E25  0000              add [eax],al
00003E27  0000              add [eax],al
00003E29  0000              add [eax],al
00003E2B  0000              add [eax],al
00003E2D  0000              add [eax],al
00003E2F  0000              add [eax],al
00003E31  0000              add [eax],al
00003E33  0000              add [eax],al
00003E35  0000              add [eax],al
00003E37  0000              add [eax],al
00003E39  0000              add [eax],al
00003E3B  0000              add [eax],al
00003E3D  0000              add [eax],al
00003E3F  0000              add [eax],al
00003E41  0000              add [eax],al
00003E43  0000              add [eax],al
00003E45  0000              add [eax],al
00003E47  0000              add [eax],al
00003E49  0000              add [eax],al
00003E4B  0000              add [eax],al
00003E4D  0000              add [eax],al
00003E4F  0000              add [eax],al
00003E51  0000              add [eax],al
00003E53  0000              add [eax],al
00003E55  0000              add [eax],al
00003E57  0000              add [eax],al
00003E59  0000              add [eax],al
00003E5B  0000              add [eax],al
00003E5D  0000              add [eax],al
00003E5F  0000              add [eax],al
00003E61  0000              add [eax],al
00003E63  0000              add [eax],al
00003E65  0000              add [eax],al
00003E67  0000              add [eax],al
00003E69  0000              add [eax],al
00003E6B  0000              add [eax],al
00003E6D  0000              add [eax],al
00003E6F  0000              add [eax],al
00003E71  0000              add [eax],al
00003E73  0000              add [eax],al
00003E75  0000              add [eax],al
00003E77  0000              add [eax],al
00003E79  0000              add [eax],al
00003E7B  0000              add [eax],al
00003E7D  0000              add [eax],al
00003E7F  0000              add [eax],al
00003E81  0000              add [eax],al
00003E83  0000              add [eax],al
00003E85  0000              add [eax],al
00003E87  0000              add [eax],al
00003E89  0000              add [eax],al
00003E8B  0000              add [eax],al
00003E8D  0000              add [eax],al
00003E8F  0000              add [eax],al
00003E91  0000              add [eax],al
00003E93  0000              add [eax],al
00003E95  0000              add [eax],al
00003E97  0000              add [eax],al
00003E99  0000              add [eax],al
00003E9B  0000              add [eax],al
00003E9D  0000              add [eax],al
00003E9F  0000              add [eax],al
00003EA1  0000              add [eax],al
00003EA3  0000              add [eax],al
00003EA5  0000              add [eax],al
00003EA7  0000              add [eax],al
00003EA9  0000              add [eax],al
00003EAB  0000              add [eax],al
00003EAD  0000              add [eax],al
00003EAF  0000              add [eax],al
00003EB1  0000              add [eax],al
00003EB3  0000              add [eax],al
00003EB5  0000              add [eax],al
00003EB7  0000              add [eax],al
00003EB9  0000              add [eax],al
00003EBB  0000              add [eax],al
00003EBD  0000              add [eax],al
00003EBF  0000              add [eax],al
00003EC1  0000              add [eax],al
00003EC3  0000              add [eax],al
00003EC5  0000              add [eax],al
00003EC7  0000              add [eax],al
00003EC9  0000              add [eax],al
00003ECB  0000              add [eax],al
00003ECD  0000              add [eax],al
00003ECF  0000              add [eax],al
00003ED1  0000              add [eax],al
00003ED3  0000              add [eax],al
00003ED5  0000              add [eax],al
00003ED7  0000              add [eax],al
00003ED9  0000              add [eax],al
00003EDB  0000              add [eax],al
00003EDD  0000              add [eax],al
00003EDF  0000              add [eax],al
00003EE1  0000              add [eax],al
00003EE3  0000              add [eax],al
00003EE5  0000              add [eax],al
00003EE7  0000              add [eax],al
00003EE9  0000              add [eax],al
00003EEB  0000              add [eax],al
00003EED  0000              add [eax],al
00003EEF  0000              add [eax],al
00003EF1  0000              add [eax],al
00003EF3  0000              add [eax],al
00003EF5  0000              add [eax],al
00003EF7  0000              add [eax],al
00003EF9  0000              add [eax],al
00003EFB  0000              add [eax],al
00003EFD  0000              add [eax],al
00003EFF  0000              add [eax],al
00003F01  0000              add [eax],al
00003F03  0000              add [eax],al
00003F05  0000              add [eax],al
00003F07  0000              add [eax],al
00003F09  0000              add [eax],al
00003F0B  0000              add [eax],al
00003F0D  0000              add [eax],al
00003F0F  0000              add [eax],al
00003F11  0000              add [eax],al
00003F13  0000              add [eax],al
00003F15  0000              add [eax],al
00003F17  0000              add [eax],al
00003F19  0000              add [eax],al
00003F1B  0000              add [eax],al
00003F1D  0000              add [eax],al
00003F1F  0000              add [eax],al
00003F21  0000              add [eax],al
00003F23  0000              add [eax],al
00003F25  0000              add [eax],al
00003F27  0000              add [eax],al
00003F29  0000              add [eax],al
00003F2B  0000              add [eax],al
00003F2D  0000              add [eax],al
00003F2F  0000              add [eax],al
00003F31  0000              add [eax],al
00003F33  0000              add [eax],al
00003F35  0000              add [eax],al
00003F37  0000              add [eax],al
00003F39  0000              add [eax],al
00003F3B  0000              add [eax],al
00003F3D  0000              add [eax],al
00003F3F  0000              add [eax],al
00003F41  0000              add [eax],al
00003F43  0000              add [eax],al
00003F45  0000              add [eax],al
00003F47  0000              add [eax],al
00003F49  0000              add [eax],al
00003F4B  0000              add [eax],al
00003F4D  0000              add [eax],al
00003F4F  0000              add [eax],al
00003F51  0000              add [eax],al
00003F53  0000              add [eax],al
00003F55  0000              add [eax],al
00003F57  0000              add [eax],al
00003F59  0000              add [eax],al
00003F5B  0000              add [eax],al
00003F5D  0000              add [eax],al
00003F5F  0000              add [eax],al
00003F61  0000              add [eax],al
00003F63  0000              add [eax],al
00003F65  0000              add [eax],al
00003F67  0000              add [eax],al
00003F69  0000              add [eax],al
00003F6B  0000              add [eax],al
00003F6D  0000              add [eax],al
00003F6F  0000              add [eax],al
00003F71  0000              add [eax],al
00003F73  0000              add [eax],al
00003F75  0000              add [eax],al
00003F77  0000              add [eax],al
00003F79  0000              add [eax],al
00003F7B  0000              add [eax],al
00003F7D  0000              add [eax],al
00003F7F  0000              add [eax],al
00003F81  0000              add [eax],al
00003F83  0000              add [eax],al
00003F85  0000              add [eax],al
00003F87  0000              add [eax],al
00003F89  0000              add [eax],al
00003F8B  0000              add [eax],al
00003F8D  0000              add [eax],al
00003F8F  0000              add [eax],al
00003F91  0000              add [eax],al
00003F93  0000              add [eax],al
00003F95  0000              add [eax],al
00003F97  0000              add [eax],al
00003F99  0000              add [eax],al
00003F9B  0000              add [eax],al
00003F9D  0000              add [eax],al
00003F9F  0000              add [eax],al
00003FA1  0000              add [eax],al
00003FA3  0000              add [eax],al
00003FA5  0000              add [eax],al
00003FA7  0000              add [eax],al
00003FA9  0000              add [eax],al
00003FAB  0000              add [eax],al
00003FAD  0000              add [eax],al
00003FAF  0000              add [eax],al
00003FB1  0000              add [eax],al
00003FB3  0000              add [eax],al
00003FB5  0000              add [eax],al
00003FB7  0000              add [eax],al
00003FB9  0000              add [eax],al
00003FBB  0000              add [eax],al
00003FBD  0000              add [eax],al
00003FBF  0000              add [eax],al
00003FC1  0000              add [eax],al
00003FC3  0000              add [eax],al
00003FC5  0000              add [eax],al
00003FC7  0000              add [eax],al
00003FC9  0000              add [eax],al
00003FCB  0000              add [eax],al
00003FCD  0000              add [eax],al
00003FCF  0000              add [eax],al
00003FD1  0000              add [eax],al
00003FD3  0000              add [eax],al
00003FD5  0000              add [eax],al
00003FD7  0000              add [eax],al
00003FD9  0000              add [eax],al
00003FDB  0000              add [eax],al
00003FDD  0000              add [eax],al
00003FDF  0000              add [eax],al
00003FE1  0000              add [eax],al
00003FE3  0000              add [eax],al
00003FE5  0000              add [eax],al
00003FE7  0000              add [eax],al
00003FE9  0000              add [eax],al
00003FEB  0000              add [eax],al
00003FED  0000              add [eax],al
00003FEF  0000              add [eax],al
00003FF1  0000              add [eax],al
00003FF3  0000              add [eax],al
00003FF5  0000              add [eax],al
00003FF7  0000              add [eax],al
00003FF9  0000              add [eax],al
00003FFB  0000              add [eax],al
00003FFD  0000              add [eax],al
00003FFF  0000              add [eax],al
00004001  800B00            or byte [ebx],0x0
00004004  100A              adc [edx],cl
00004006  1000              adc [eax],al
00004008  1D0A10002A        sbb eax,0x2a00100a
0000400D  0A10              or dl,[eax]
0000400F  0037              add [edi],dh
00004011  0A10              or dl,[eax]
00004013  00440A10          add [edx+ecx+0x10],al
00004017  00510A            add [ecx+0xa],dl
0000401A  1000              adc [eax],al
0000401C  5E                pop esi
0000401D  0A10              or dl,[eax]
0000401F  006B0A            add [ebx+0xa],ch
00004022  1000              adc [eax],al
00004024  780A              js 0x4030
00004026  1000              adc [eax],al
00004028  7E0A              jng 0x4034
0000402A  1000              adc [eax],al
0000402C  8B0A              mov ecx,[edx]
0000402E  1000              adc [eax],al
00004030  98                cwde
00004031  0A10              or dl,[eax]
00004033  00A50A1000B2      add [ebp-0x4dffeff6],ah
00004039  0A10              or dl,[eax]
0000403B  00BF0A1000C5      add [edi-0x3affeff6],bh
00004041  0A10              or dl,[eax]
00004043  00D2              add dl,dl
00004045  0A10              or dl,[eax]
00004047  00DF              add bh,bl
00004049  0A10              or dl,[eax]
0000404B  00EC              add ah,ch
0000404D  0A10              or dl,[eax]
0000404F  00F9              add cl,bh
00004051  0A10              or dl,[eax]
00004053  0006              add [esi],al
00004055  0B10              or edx,[eax]
00004057  0013              add [ebx],dl
00004059  0B10              or edx,[eax]
0000405B  0020              add [eax],ah
0000405D  0B10              or edx,[eax]
0000405F  002D0B10003A      add [dword 0x3a00100b],ch
00004065  0B10              or edx,[eax]
00004067  00470B            add [edi+0xb],al
0000406A  1000              adc [eax],al
0000406C  54                push esp
0000406D  0B10              or edx,[eax]
0000406F  00610B            add [ecx+0xb],ah
00004072  1000              adc [eax],al
00004074  6E                outsb
00004075  0B10              or edx,[eax]
00004077  007B0B            add [ebx+0xb],bh
0000407A  1000              adc [eax],al
0000407C  880B              mov [ebx],cl
0000407E  1000              adc [eax],al
00004080  95                xchg eax,ebp
00004081  0B10              or edx,[eax]
00004083  00A20B100000      add [edx+0x100b],ah
00004089  0000              add [eax],al
0000408B  0000              add [eax],al
0000408D  0000              add [eax],al
0000408F  0000              add [eax],al
00004091  0000              add [eax],al
00004093  004743            add [edi+0x43],al
00004096  43                inc ebx
00004097  3A20              cmp ah,[eax]
00004099  28474E            sub [edi+0x4e],al
0000409C  55                push ebp
0000409D  2920              sub [eax],esp
0000409F  31342E            xor [esi+ebp],esi
000040A2  322E              xor ch,[esi]
000040A4  3120              xor [eax],esp
000040A6  3230              xor dh,[eax]
000040A8  323430            xor dh,[eax+esi]
000040AB  3931              cmp [ecx],esi
000040AD  3000              xor [eax],al
000040AF  0000              add [eax],al
000040B1  0000              add [eax],al
000040B3  0000              add [eax],al
000040B5  0000              add [eax],al
000040B7  0000              add [eax],al
000040B9  0000              add [eax],al
000040BB  0000              add [eax],al
000040BD  0000              add [eax],al
000040BF  0001              add [ecx],al
000040C1  0000              add [eax],al
000040C3  0000              add [eax],al
000040C5  0000              add [eax],al
000040C7  0000              add [eax],al
000040C9  0000              add [eax],al
000040CB  000400            add [eax+eax],al
000040CE  F1                int1
000040CF  FF0F              dec dword [edi]
000040D1  0000              add [eax],al
000040D3  0000              add [eax],al
000040D5  2010              and [eax],dl
000040D7  000400            add [eax+eax],al
000040DA  0000              add [eax],al
000040DC  0100              add [eax],eax
000040DE  06                push es
000040DF  002400            add [eax+eax],ah
000040E2  0000              add [eax],al
000040E4  0420              add al,0x20
000040E6  1000              adc [eax],al
000040E8  0400              add al,0x0
000040EA  0000              add [eax],al
000040EC  0100              add [eax],eax
000040EE  06                push es
000040EF  0031              add [ecx],dh
000040F1  0000              add [eax],al
000040F3  0000              add [eax],al
000040F5  0010              add [eax],dl
000040F7  0030              add [eax],dh
000040F9  0000              add [eax],al
000040FB  0001              add [ecx],al
000040FD  0001              add [ecx],al
000040FF  003F              add [edi],bh
00004101  0000              add [eax],al
00004103  0000              add [eax],al
00004105  0000              add [eax],al
00004107  0000              add [eax],al
00004109  0000              add [eax],al
0000410B  000400            add [eax+eax],al
0000410E  F1                int1
0000410F  FF4C0000          dec dword [eax+eax+0x0]
00004113  0000              add [eax],al
00004115  1000              adc [eax],al
00004117  0000              add [eax],al
00004119  0000              add [eax],al
0000411B  0000              add [eax],al
0000411D  00F1              add cl,dh
0000411F  FF5E00            call far [esi+0x0]
00004122  0000              add [eax],al
00004124  004010            add [eax+0x10],al
00004127  0000              add [eax],al
00004129  0000              add [eax],al
0000412B  0000              add [eax],al
0000412D  000A              add [edx],cl
0000412F  006B00            add [ebx+0x0],ch
00004132  0000              add [eax],al
00004134  0000              add [eax],al
00004136  0000              add [eax],al
00004138  0000              add [eax],al
0000413A  0000              add [eax],al
0000413C  0400              add al,0x0
0000413E  F1                int1
0000413F  FF7500            push dword [ebp+0x0]
00004142  0000              add [eax],al
00004144  0000              add [eax],al
00004146  0000              add [eax],al
00004148  0000              add [eax],al
0000414A  0000              add [eax],al
0000414C  0400              add al,0x0
0000414E  F1                int1
0000414F  FF                db 0xff
00004150  7D00              jnl 0x4152
00004152  0000              add [eax],al
00004154  0000              add [eax],al
00004156  0000              add [eax],al
00004158  0000              add [eax],al
0000415A  0000              add [eax],al
0000415C  0400              add al,0x0
0000415E  F1                int1
0000415F  FF8900000000      dec dword [ecx+0x0]
00004165  0000              add [eax],al
00004167  0000              add [eax],al
00004169  0000              add [eax],al
0000416B  000400            add [eax+eax],al
0000416E  F1                int1
0000416F  FF9C0000007E04    call far [eax+eax+0x47e0000]
00004176  1000              adc [eax],al
00004178  0000              add [eax],al
0000417A  0000              add [eax],al
0000417C  0000              add [eax],al
0000417E  0100              add [eax],eax
00004180  AE                scasb
00004181  0000              add [eax],al
00004183  008904100000      add [ecx+0x1004],cl
00004189  0000              add [eax],al
0000418B  0000              add [eax],al
0000418D  0001              add [ecx],al
0000418F  00C0              add al,al
00004191  0000              add [eax],al
00004193  0000              add [eax],al
00004195  0000              add [eax],al
00004197  0000              add [eax],al
00004199  0000              add [eax],al
0000419B  000400            add [eax+eax],al
0000419E  F1                int1
0000419F  FFD0              call eax
000041A1  0000              add [eax],al
000041A3  0000              add [eax],al
000041A5  0000              add [eax],al
000041A7  0000              add [eax],al
000041A9  0000              add [eax],al
000041AB  000400            add [eax+eax],al
000041AE  F1                int1
000041AF  FFE1              jmp ecx
000041B1  0000              add [eax],al
000041B3  0000              add [eax],al
000041B5  3010              xor [eax],dl
000041B7  000400            add [eax+eax],al
000041BA  0000              add [eax],al
000041BC  0100              add [eax],eax
000041BE  0800              or [eax],al
000041C0  E800000000        call 0x41c5
000041C5  0000              add [eax],al
000041C7  0000              add [eax],al
000041C9  0000              add [eax],al
000041CB  000400            add [eax+eax],al
000041CE  F1                int1
000041CF  FF                db 0xff
000041D0  F8                clc
000041D1  0000              add [eax],al
000041D3  0038              add [eax],bh
000041D5  50                push eax
000041D6  1000              adc [eax],al
000041D8  0400              add al,0x0
000041DA  0000              add [eax],al
000041DC  0100              add [eax],eax
000041DE  0A00              or al,[eax]
000041E0  0C01              or al,0x1
000041E2  0000              add [eax],al
000041E4  0000              add [eax],al
000041E6  0000              add [eax],al
000041E8  0000              add [eax],al
000041EA  0000              add [eax],al
000041EC  0400              add al,0x0
000041EE  F1                int1
000041EF  FF1C01            call far [ecx+eax]
000041F2  0000              add [eax],al
000041F4  0000              add [eax],al
000041F6  0000              add [eax],al
000041F8  0000              add [eax],al
000041FA  0000              add [eax],al
000041FC  0400              add al,0x0
000041FE  F1                int1
000041FF  FF2401            jmp [ecx+eax]
00004202  0000              add [eax],al
00004204  0820              or [eax],ah
00004206  1000              adc [eax],al
00004208  0400              add al,0x0
0000420A  0000              add [eax],al
0000420C  0100              add [eax],eax
0000420E  06                push es
0000420F  003501000040      add [dword 0x40000001],dh
00004215  50                push eax
00004216  1000              adc [eax],al
00004218  0008              add [eax],cl
0000421A  0000              add [eax],al
0000421C  0100              add [eax],eax
0000421E  0A00              or al,[eax]
00004220  3D01000040        cmp eax,0x40000001
00004225  58                pop eax
00004226  1000              adc [eax],al
00004228  06                push es
00004229  0000              add [eax],al
0000422B  0001              add [ecx],al
0000422D  000A              add [edx],cl
0000422F  004601            add [esi+0x1],al
00004232  0000              add [eax],al
00004234  60                pusha
00004235  58                pop eax
00004236  1000              adc [eax],al
00004238  2100              and [eax],eax
0000423A  0000              add [eax],al
0000423C  0100              add [eax],eax
0000423E  0A00              or al,[eax]
00004240  52                push edx
00004241  0100              add [eax],eax
00004243  0000              add [eax],al
00004245  0000              add [eax],al
00004247  0000              add [eax],al
00004249  0000              add [eax],al
0000424B  000400            add [eax+eax],al
0000424E  F1                int1
0000424F  FF6E01            jmp far [esi+0x1]
00004252  0000              add [eax],al
00004254  100A              adc [edx],cl
00004256  1000              adc [eax],al
00004258  0000              add [eax],al
0000425A  0000              add [eax],al
0000425C  0000              add [eax],al
0000425E  0100              add [eax],eax
00004260  7901              jns 0x4263
00004262  0000              add [eax],al
00004264  1D0A100000        sbb eax,0x100a
00004269  0000              add [eax],al
0000426B  0000              add [eax],al
0000426D  0001              add [ecx],al
0000426F  00840100002A0A    add [ecx+eax+0xa2a0000],al
00004276  1000              adc [eax],al
00004278  0000              add [eax],al
0000427A  0000              add [eax],al
0000427C  0000              add [eax],al
0000427E  0100              add [eax],eax
00004280  8F01              pop dword [ecx]
00004282  0000              add [eax],al
00004284  37                aaa
00004285  0A10              or dl,[eax]
00004287  0000              add [eax],al
00004289  0000              add [eax],al
0000428B  0000              add [eax],al
0000428D  0001              add [ecx],al
0000428F  009A01000044      add [edx+0x44000001],bl
00004295  0A10              or dl,[eax]
00004297  0000              add [eax],al
00004299  0000              add [eax],al
0000429B  0000              add [eax],al
0000429D  0001              add [ecx],al
0000429F  00A501000051      add [ebp+0x51000001],ah
000042A5  0A10              or dl,[eax]
000042A7  0000              add [eax],al
000042A9  0000              add [eax],al
000042AB  0000              add [eax],al
000042AD  0001              add [ecx],al
000042AF  00B00100005E      add [eax+0x5e000001],dh
000042B5  0A10              or dl,[eax]
000042B7  0000              add [eax],al
000042B9  0000              add [eax],al
000042BB  0000              add [eax],al
000042BD  0001              add [ecx],al
000042BF  00BB0100006B      add [ebx+0x6b000001],bh
000042C5  0A10              or dl,[eax]
000042C7  0000              add [eax],al
000042C9  0000              add [eax],al
000042CB  0000              add [eax],al
000042CD  0001              add [ecx],al
000042CF  00C6              add dh,al
000042D1  0100              add [eax],eax
000042D3  00780A            add [eax+0xa],bh
000042D6  1000              adc [eax],al
000042D8  0000              add [eax],al
000042DA  0000              add [eax],al
000042DC  0000              add [eax],al
000042DE  0100              add [eax],eax
000042E0  D101              rol dword [ecx],1
000042E2  0000              add [eax],al
000042E4  7E0A              jng 0x42f0
000042E6  1000              adc [eax],al
000042E8  0000              add [eax],al
000042EA  0000              add [eax],al
000042EC  0000              add [eax],al
000042EE  0100              add [eax],eax
000042F0  DC01              fadd qword [ecx]
000042F2  0000              add [eax],al
000042F4  8B0A              mov ecx,[edx]
000042F6  1000              adc [eax],al
000042F8  0000              add [eax],al
000042FA  0000              add [eax],al
000042FC  0000              add [eax],al
000042FE  0100              add [eax],eax
00004300  E801000098        call 0x98004306
00004305  0A10              or dl,[eax]
00004307  0000              add [eax],al
00004309  0000              add [eax],al
0000430B  0000              add [eax],al
0000430D  0001              add [ecx],al
0000430F  00F4              add ah,dh
00004311  0100              add [eax],eax
00004313  00A50A100000      add [ebp+0x100a],ah
00004319  0000              add [eax],al
0000431B  0000              add [eax],al
0000431D  0001              add [ecx],al
0000431F  0000              add [eax],al
00004321  0200              add al,[eax]
00004323  00B20A100000      add [edx+0x100a],dh
00004329  0000              add [eax],al
0000432B  0000              add [eax],al
0000432D  0001              add [ecx],al
0000432F  000C02            add [edx+eax],cl
00004332  0000              add [eax],al
00004334  BF0A100000        mov edi,0x100a
00004339  0000              add [eax],al
0000433B  0000              add [eax],al
0000433D  0001              add [ecx],al
0000433F  0018              add [eax],bl
00004341  0200              add al,[eax]
00004343  00C5              add ch,al
00004345  0A10              or dl,[eax]
00004347  0000              add [eax],al
00004349  0000              add [eax],al
0000434B  0000              add [eax],al
0000434D  0001              add [ecx],al
0000434F  002402            add [edx+eax],ah
00004352  0000              add [eax],al
00004354  D20A              ror byte [edx],cl
00004356  1000              adc [eax],al
00004358  0000              add [eax],al
0000435A  0000              add [eax],al
0000435C  0000              add [eax],al
0000435E  0100              add [eax],eax
00004360  3002              xor [edx],al
00004362  0000              add [eax],al
00004364  DF0A              fisttp word [edx]
00004366  1000              adc [eax],al
00004368  0000              add [eax],al
0000436A  0000              add [eax],al
0000436C  0000              add [eax],al
0000436E  0100              add [eax],eax
00004370  3C02              cmp al,0x2
00004372  0000              add [eax],al
00004374  EC                in al,dx
00004375  0A10              or dl,[eax]
00004377  0000              add [eax],al
00004379  0000              add [eax],al
0000437B  0000              add [eax],al
0000437D  0001              add [ecx],al
0000437F  004802            add [eax+0x2],cl
00004382  0000              add [eax],al
00004384  F9                stc
00004385  0A10              or dl,[eax]
00004387  0000              add [eax],al
00004389  0000              add [eax],al
0000438B  0000              add [eax],al
0000438D  0001              add [ecx],al
0000438F  00540200          add [edx+eax+0x0],dl
00004393  0006              add [esi],al
00004395  0B10              or edx,[eax]
00004397  0000              add [eax],al
00004399  0000              add [eax],al
0000439B  0000              add [eax],al
0000439D  0001              add [ecx],al
0000439F  006002            add [eax+0x2],ah
000043A2  0000              add [eax],al
000043A4  130B              adc ecx,[ebx]
000043A6  1000              adc [eax],al
000043A8  0000              add [eax],al
000043AA  0000              add [eax],al
000043AC  0000              add [eax],al
000043AE  0100              add [eax],eax
000043B0  6C                insb
000043B1  0200              add al,[eax]
000043B3  0020              add [eax],ah
000043B5  0B10              or edx,[eax]
000043B7  0000              add [eax],al
000043B9  0000              add [eax],al
000043BB  0000              add [eax],al
000043BD  0001              add [ecx],al
000043BF  007802            add [eax+0x2],bh
000043C2  0000              add [eax],al
000043C4  2D0B100000        sub eax,0x100b
000043C9  0000              add [eax],al
000043CB  0000              add [eax],al
000043CD  0001              add [ecx],al
000043CF  00840200003A0B    add [edx+eax+0xb3a0000],al
000043D6  1000              adc [eax],al
000043D8  0000              add [eax],al
000043DA  0000              add [eax],al
000043DC  0000              add [eax],al
000043DE  0100              add [eax],eax
000043E0  90                nop
000043E1  0200              add al,[eax]
000043E3  00470B            add [edi+0xb],al
000043E6  1000              adc [eax],al
000043E8  0000              add [eax],al
000043EA  0000              add [eax],al
000043EC  0000              add [eax],al
000043EE  0100              add [eax],eax
000043F0  9C                pushf
000043F1  0200              add al,[eax]
000043F3  00540B10          add [ebx+ecx+0x10],dl
000043F7  0000              add [eax],al
000043F9  0000              add [eax],al
000043FB  0000              add [eax],al
000043FD  0001              add [ecx],al
000043FF  00A802000061      add [eax+0x61000002],ch
00004405  0B10              or edx,[eax]
00004407  0000              add [eax],al
00004409  0000              add [eax],al
0000440B  0000              add [eax],al
0000440D  0001              add [ecx],al
0000440F  00B40200006E0B    add [edx+eax+0xb6e0000],dh
00004416  1000              adc [eax],al
00004418  0000              add [eax],al
0000441A  0000              add [eax],al
0000441C  0000              add [eax],al
0000441E  0100              add [eax],eax
00004420  C00200            rol byte [edx],byte 0x0
00004423  007B0B            add [ebx+0xb],bh
00004426  1000              adc [eax],al
00004428  0000              add [eax],al
0000442A  0000              add [eax],al
0000442C  0000              add [eax],al
0000442E  0100              add [eax],eax
00004430  CC                int3
00004431  0200              add al,[eax]
00004433  00880B100000      add [eax+0x100b],cl
00004439  0000              add [eax],al
0000443B  0000              add [eax],al
0000443D  0001              add [ecx],al
0000443F  00D8              add al,bl
00004441  0200              add al,[eax]
00004443  00950B100000      add [ebp+0x100b],dl
00004449  0000              add [eax],al
0000444B  0000              add [eax],al
0000444D  0001              add [ecx],al
0000444F  00E4              add ah,ah
00004451  0200              add al,[eax]
00004453  00A20B100000      add [edx+0x100b],ah
00004459  0000              add [eax],al
0000445B  0000              add [eax],al
0000445D  0001              add [ecx],al
0000445F  0029              add [ecx],ch
00004461  0100              add [eax],eax
00004463  0021              add [ecx],ah
00004465  0000              add [eax],al
00004467  0000              add [eax],al
00004469  0000              add [eax],al
0000446B  0000              add [eax],al
0000446D  00F1              add cl,dh
0000446F  FFF0              push eax
00004471  0200              add al,[eax]
00004473  0000              add [eax],al
00004475  0000              add [eax],al
00004477  0000              add [eax],al
00004479  0000              add [eax],al
0000447B  000400            add [eax+eax],al
0000447E  F1                int1
0000447F  FF0B              dec dword [ebx]
00004481  0300              add eax,[eax]
00004483  0000              add [eax],al
00004485  0000              add [eax],al
00004487  0000              add [eax],al
00004489  0000              add [eax],al
0000448B  000400            add [eax+eax],al
0000448E  F1                int1
0000448F  FF22              jmp [edx]
00004491  0300              add eax,[eax]
00004493  0000              add [eax],al
00004495  0000              add [eax],al
00004497  0000              add [eax],al
00004499  0000              add [eax],al
0000449B  000400            add [eax+eax],al
0000449E  F1                int1
0000449F  FF17              call [edi]
000044A1  0300              add eax,[eax]
000044A3  0000              add [eax],al
000044A5  0000              add [eax],al
000044A7  0000              add [eax],al
000044A9  0000              add [eax],al
000044AB  000400            add [eax+eax],al
000044AE  F1                int1
000044AF  FF4303            inc dword [ebx+0x3]
000044B2  0000              add [eax],al
000044B4  0000              add [eax],al
000044B6  0000              add [eax],al
000044B8  0000              add [eax],al
000044BA  0000              add [eax],al
000044BC  0400              add al,0x0
000044BE  F1                int1
000044BF  FF                db 0xff
000044C0  F8                clc
000044C1  0000              add [eax],al
000044C3  0000              add [eax],al
000044C5  801200            adc byte [edx],0x0
000044C8  0400              add al,0x0
000044CA  0000              add [eax],al
000044CC  0100              add [eax],eax
000044CE  0A00              or al,[eax]
000044D0  4E                dec esi
000044D1  0300              add eax,[eax]
000044D3  0000              add [eax],al
000044D5  0000              add [eax],al
000044D7  0000              add [eax],al
000044D9  0000              add [eax],al
000044DB  000400            add [eax+eax],al
000044DE  F1                int1
000044DF  FF6303            jmp [ebx+0x3]
000044E2  0000              add [eax],al
000044E4  DC0F              fmul qword [edi]
000044E6  1000              adc [eax],al
000044E8  0000              add [eax],al
000044EA  0000              add [eax],al
000044EC  0000              add [eax],al
000044EE  0100              add [eax],eax
000044F0  7003              jo 0x44f5
000044F2  0000              add [eax],al
000044F4  0000              add [eax],al
000044F6  0000              add [eax],al
000044F8  0000              add [eax],al
000044FA  0000              add [eax],al
000044FC  0400              add al,0x0
000044FE  F1                int1
000044FF  FF00              inc dword [eax]
00004501  0000              add [eax],al
00004503  0000              add [eax],al
00004505  0000              add [eax],al
00004507  0000              add [eax],al
00004509  0000              add [eax],al
0000450B  000400            add [eax+eax],al
0000450E  F1                int1
0000450F  FF                db 0xff
00004510  7903              jns 0x4515
00004512  0000              add [eax],al
00004514  8830              mov [eax],dh
00004516  1000              adc [eax],al
00004518  0000              add [eax],al
0000451A  0000              add [eax],al
0000451C  0100              add [eax],eax
0000451E  0900              or [eax],eax
00004520  8F03              pop dword [ebx]
00004522  0000              add [eax],al
00004524  1A10              sbb dl,[eax]
00004526  1000              adc [eax],al
00004528  0000              add [eax],al
0000452A  0000              add [eax],al
0000452C  1202              adc al,[edx]
0000452E  0300              add eax,[eax]
00004530  A5                movsd
00004531  0300              add eax,[eax]
00004533  009B04100000      add [ebx+0x1004],bl
00004539  0000              add [eax],al
0000453B  0010              add [eax],dl
0000453D  0001              add [ecx],al
0000453F  00A903000066      add [ecx+0x66000003],ch
00004545  0310              add edx,[eax]
00004547  00FE              add dh,bh
00004549  0000              add [eax],al
0000454B  0012              add [edx],dl
0000454D  0001              add [ecx],al
0000454F  00BC030000390E    add [ebx+eax+0xe390000],bh
00004556  1000              adc [eax],al
00004558  650000            add [gs:eax],al
0000455B  0012              add [edx],dl
0000455D  0001              add [ecx],al
0000455F  00D8              add al,bl
00004561  0300              add eax,[eax]
00004563  00E7              add bh,ah
00004565  0C10              or al,0x10
00004567  008600000012      add [esi+0x12000000],al
0000456D  0001              add [ecx],al
0000456F  00E8              add al,ch
00004571  0300              add eax,[eax]
00004573  0095011000DA      add [ebp-0x25ffefff],dl
00004579  0000              add [eax],al
0000457B  0012              add [edx],dl
0000457D  0001              add [ecx],al
0000457F  0002              add [edx],al
00004581  0400              add al,0x0
00004583  00D0              add al,dl
00004585  0F1000            movups xmm0,oword [eax]
00004588  0000              add [eax],al
0000458A  0000              add [eax],al
0000458C  1000              adc [eax],al
0000458E  0100              add [eax],eax
00004590  0A0400            or al,[eax+eax]
00004593  00140F            add [edi+ecx],dl
00004596  1000              adc [eax],al
00004598  8400              test [eax],al
0000459A  0000              add [eax],al
0000459C  1200              adc al,[eax]
0000459E  0100              add [eax],eax
000045A0  130400            adc eax,[eax+eax]
000045A3  00A204100077      add [edx+0x77001004],ah
000045A9  0000              add [eax],al
000045AB  0012              add [edx],dl
000045AD  0001              add [ecx],al
000045AF  0027              add [edi],ah
000045B1  0400              add al,0x0
000045B3  0000              add [eax],al
000045B5  7010              jo 0x45c7
000045B7  0000              add [eax],al
000045B9  1000              adc [eax],al
000045BB  0011              add [ecx],dl
000045BD  000A              add [edx],cl
000045BF  0038              add [eax],bh
000045C1  0400              add al,0x0
000045C3  002E              add [esi],ch
000045C5  0910              or [eax],edx
000045C7  006500            add [ebp+0x0],ah
000045CA  0000              add [eax],al
000045CC  1200              adc al,[eax]
000045CE  0100              add [eax],eax
000045D0  53                push ebx
000045D1  0400              add al,0x0
000045D3  00E6              add dh,ah
000045D5  0F1000            movups xmm0,oword [eax]
000045D8  3000              xor [eax],al
000045DA  0000              add [eax],al
000045DC  1200              adc al,[eax]
000045DE  0100              add [eax],eax
000045E0  5F                pop edi
000045E1  0400              add al,0x0
000045E3  00F0              add al,dh
000045E5  06                push es
000045E6  1000              adc [eax],al
000045E8  3800              cmp [eax],al
000045EA  0000              add [eax],al
000045EC  1200              adc al,[eax]
000045EE  0100              add [eax],eax
000045F0  CA0400            retf 0x4
000045F3  0000              add [eax],al
000045F5  50                push eax
000045F6  1000              adc [eax],al
000045F8  2800              sub [eax],al
000045FA  0000              add [eax],al
000045FC  1100              adc [eax],eax
000045FE  0A00              or al,[eax]
00004600  7B04              jpo 0x4606
00004602  0000              add [eax],al
00004604  37                aaa
00004605  1010              adc [eax],dl
00004607  0000              add [eax],al
00004609  0000              add [eax],al
0000460B  0012              add [edx],dl
0000460D  020500910400      add al,[dword 0x49100]
00004613  000C08            add [eax+ecx],cl
00004616  1000              adc [eax],al
00004618  7000              jo 0x461a
0000461A  0000              add [eax],al
0000461C  1200              adc al,[eax]
0000461E  0100              add [eax],eax
00004620  A804              test al,0x4
00004622  0000              add [eax],al
00004624  7D06              jnl 0x462c
00004626  1000              adc [eax],al
00004628  3800              cmp [eax],al
0000462A  0000              add [eax],al
0000462C  1200              adc al,[eax]
0000462E  0100              add [eax],eax
00004630  C3                ret
00004631  0400              add al,0x0
00004633  006F02            add [edi+0x2],ch
00004636  1000              adc [eax],al
00004638  8E00              mov es,[eax]
0000463A  0000              add [eax],al
0000463C  1200              adc al,[eax]
0000463E  0100              add [eax],eax
00004640  CE                into
00004641  0400              add al,0x0
00004643  00980F100035      add [eax+0x3500100f],bl
00004649  0000              add [eax],al
0000464B  0012              add [edx],dl
0000464D  0001              add [ecx],al
0000464F  00D6              add dh,dl
00004651  0400              add al,0x0
00004653  00B00B100000      add [eax+0x100b],dh
00004659  0000              add [eax],al
0000465B  0010              add [eax],dl
0000465D  0001              add [ecx],al
0000465F  00E3              add bl,ah
00004661  0400              add al,0x0
00004663  009309100074      add [ebx+0x74001009],dl
00004669  0000              add [eax],al
0000466B  0012              add [edx],dl
0000466D  0001              add [ecx],al
0000466F  00EC              add ah,ch
00004671  0400              add al,0x0
00004673  001E              add [esi],bl
00004675  1010              adc [eax],dl
00004677  0019              add [ecx],bl
00004679  0000              add [eax],al
0000467B  0022              add [edx],ah
0000467D  000400            add [eax+eax],al
00004680  FF0400            inc dword [eax+eax]
00004683  0028              add [eax],ch
00004685  07                pop es
00004686  1000              adc [eax],al
00004688  3B00              cmp eax,[eax]
0000468A  0000              add [eax],al
0000468C  1200              adc al,[eax]
0000468E  0100              add [eax],eax
00004690  220500007C08      and al,[dword 0x87c0000]
00004696  1000              adc [eax],al
00004698  4F                dec edi
00004699  0000              add [eax],al
0000469B  0012              add [edx],dl
0000469D  0001              add [ecx],al
0000469F  0039              add [ecx],bh
000046A1  050000EB08        add eax,0x8eb0000
000046A6  1000              adc [eax],al
000046A8  43                inc ebx
000046A9  0000              add [eax],al
000046AB  0012              add [edx],dl
000046AD  0001              add [ecx],al
000046AF  005105            add [ecx+0x5],dl
000046B2  0000              add [eax],al
000046B4  D7                xlatb
000046B5  0E                push cs
000046B6  1000              adc [eax],al
000046B8  3D00000012        cmp eax,0x12000000
000046BD  0001              add [ecx],al
000046BF  006A05            add [edx+0x5],ch
000046C2  0000              add [eax],al
000046C4  A00C100000        mov al,[0x100c]
000046C9  0000              add [eax],al
000046CB  0010              add [eax],dl
000046CD  0001              add [ecx],al
000046CF  007C0500          add [ebp+eax+0x0],bh
000046D3  00A80C10003F      add [eax+0x3f00100c],ch
000046D9  0000              add [eax],al
000046DB  0012              add [edx],dl
000046DD  0001              add [ecx],al
000046DF  009605000000      add [esi+0x5],dl
000046E5  801000            adc byte [eax],0x0
000046E8  0000              add [eax],al
000046EA  0200              add al,[eax]
000046EC  1100              adc [eax],eax
000046EE  0A00              or al,[eax]
000046F0  A105000000        mov eax,[0x5]
000046F5  60                pusha
000046F6  1000              adc [eax],al
000046F8  0010              add [eax],dl
000046FA  0000              add [eax],al
000046FC  1100              adc [eax],eax
000046FE  0A00              or al,[eax]
00004700  B705              mov bh,0x5
00004702  0000              add [eax],al
00004704  1E                push ds
00004705  1010              adc [eax],dl
00004707  0019              add [ecx],bl
00004709  0000              add [eax],al
0000470B  0022              add [edx],ah
0000470D  000400            add [eax+eax],al
00004710  CA0500            retf 0x5
00004713  00A50D100094      add [ebp-0x6bffeff3],ah
00004719  0000              add [eax],al
0000471B  0012              add [edx],dl
0000471D  0001              add [ecx],al
0000471F  00DD              add ch,bl
00004721  0500006D0D        add eax,0xd6d0000
00004726  1000              adc [eax],al
00004728  3800              cmp [eax],al
0000472A  0000              add [eax],al
0000472C  1200              adc al,[eax]
0000472E  0100              add [eax],eax
00004730  F20500001610      repne add eax,0x10160000
00004736  1000              adc [eax],al
00004738  0000              add [eax],al
0000473A  0000              add [eax],al
0000473C  1202              adc al,[edx]
0000473E  0200              add al,[eax]
00004740  0806              or [esi],al
00004742  0000              add [eax],al
00004744  90                nop
00004745  0410              add al,0x10
00004747  0000              add [eax],al
00004749  0000              add [eax],al
0000474B  0010              add [eax],dl
0000474D  0001              add [ecx],al
0000474F  000D060000CB      add [dword 0xcb000006],cl
00004755  0810              or [eax],dl
00004757  0020              add [eax],ah
00004759  0000              add [eax],al
0000475B  0012              add [edx],dl
0000475D  0001              add [ecx],al
0000475F  0020              add [eax],ah
00004761  06                push es
00004762  0000              add [eax],al
00004764  9E                sahf
00004765  0E                push cs
00004766  1000              adc [eax],al
00004768  3900              cmp [eax],eax
0000476A  0000              add [eax],al
0000476C  1200              adc al,[eax]
0000476E  0100              add [eax],eax
00004770  3506000028        xor eax,0x28000006
00004775  50                push eax
00004776  1000              adc [eax],al
00004778  06                push es
00004779  0000              add [eax],al
0000477B  0011              add [ecx],dl
0000477D  000A              add [edx],cl
0000477F  003D06000070      add [dword 0x70000006],bh
00004785  0410              add al,0x10
00004787  0000              add [eax],al
00004789  0000              add [eax],al
0000478B  0010              add [eax],dl
0000478D  0001              add [ecx],al
0000478F  004A06            add [edx+0x6],cl
00004792  0000              add [eax],al
00004794  190510006000      sbb [dword 0x600010],eax
0000479A  0000              add [eax],al
0000479C  1200              adc al,[eax]
0000479E  0100              add [eax],eax
000047A0  60                pusha
000047A1  06                push es
000047A2  0000              add [eax],al
000047A4  B507              mov ch,0x7
000047A6  1000              adc [eax],al
000047A8  57                push edi
000047A9  0000              add [eax],al
000047AB  0012              add [edx],dl
000047AD  0001              add [ecx],al
000047AF  007806            add [eax+0x6],bh
000047B2  0000              add [eax],al
000047B4  3000              xor [eax],al
000047B6  1000              adc [eax],al
000047B8  0000              add [eax],al
000047BA  0000              add [eax],al
000047BC  1000              adc [eax],al
000047BE  0100              add [eax],eax
000047C0  7F06              jg 0x47c8
000047C2  0000              add [eax],al
000047C4  FE02              inc byte [edx]
000047C6  1000              adc [eax],al
000047C8  6800000012        push dword 0x12000000
000047CD  0001              add [ecx],al
000047CF  00A3060000FE      add [ebx-0x1fffffa],ah
000047D5  0210              add dl,[eax]
000047D7  006800            add [eax+0x0],ch
000047DA  0000              add [eax],al
000047DC  1200              adc al,[eax]
000047DE  0100              add [eax],eax
000047E0  C7060000B506      mov dword [esi],0x6b50000
000047E6  1000              adc [eax],al
000047E8  3B00              cmp eax,[eax]
000047EA  0000              add [eax],al
000047EC  1200              adc al,[eax]
000047EE  0100              add [eax],eax
000047F0  E906000004        jmp 0x40047fb
000047F5  3010              xor [eax],dl
000047F7  0000              add [eax],al
000047F9  0000              add [eax],al
000047FB  0010              add [eax],dl
000047FD  0008              add [eax],cl
000047FF  00F8              add al,bh
00004801  06                push es
00004802  0000              add [eax],al
00004804  7905              jns 0x480b
00004806  1000              adc [eax],al
00004808  8F00              pop dword [eax]
0000480A  0000              add [eax],al
0000480C  1200              adc al,[eax]
0000480E  0100              add [eax],eax
00004810  0907              or [edi],eax
00004812  0000              add [eax],al
00004814  3450              xor al,0x50
00004816  1000              adc [eax],al
00004818  0400              add al,0x0
0000481A  0000              add [eax],al
0000481C  1100              adc [eax],eax
0000481E  0A00              or al,[eax]
00004820  17                pop ss
00004821  07                pop es
00004822  0000              add [eax],al
00004824  5D                pop ebp
00004825  0010              add [eax],dl
00004827  0038              add [eax],bh
00004829  0100              add [eax],eax
0000482B  0012              add [edx],dl
0000482D  0001              add [ecx],al
0000482F  001D07000063      add [dword 0x63000007],bl
00004835  07                pop es
00004836  1000              adc [eax],al
00004838  52                push edx
00004839  0000              add [eax],al
0000483B  0012              add [edx],dl
0000483D  0001              add [ecx],al
0000483F  0032              add [edx],dh
00004841  07                pop es
00004842  0000              add [eax],al
00004844  BC0B1000DA        mov esp,0xda00100b
00004849  0000              add [eax],al
0000484B  0012              add [edx],dl
0000484D  0001              add [ecx],al
0000484F  004507            add [ebp+0x7],al
00004852  0000              add [eax],al
00004854  0806              or [esi],al
00004856  1000              adc [eax],al
00004858  7500              jnz 0x485a
0000485A  0000              add [eax],al
0000485C  1200              adc al,[eax]
0000485E  0100              add [eax],eax
00004860  6607              o16 pop es
00004862  0000              add [eax],al
00004864  305010            xor [eax+0x10],dl
00004867  000400            add [eax+eax],al
0000486A  0000              add [eax],al
0000486C  1100              adc [eax],eax
0000486E  0A00              or al,[eax]
00004870  006D75            add [ebp+0x75],ch
00004873  6C                insb
00004874  7469              jz 0x48df
00004876  626F6F            bound ebp,[edi+0x6f]
00004879  742E              jz 0x48a9
0000487B  637070            arpl [eax+0x70],si
0000487E  005F5A            add [edi+0x5a],bl
00004881  4C                dec esp
00004882  31354D554C54      xor [dword 0x544c554d],esi
00004888  49                dec ecx
00004889  42                inc edx
0000488A  4F                dec edi
0000488B  4F                dec edi
0000488C  54                push esp
0000488D  5F                pop edi
0000488E  46                inc esi
0000488F  4C                dec esp
00004890  41                inc ecx
00004891  47                inc edi
00004892  53                push ebx
00004893  005F5A            add [edi+0x5a],bl
00004896  4C                dec esp
00004897  384348            cmp [ebx+0x48],al
0000489A  45                inc ebp
0000489B  43                inc ebx
0000489C  4B                dec ebx
0000489D  53                push ebx
0000489E  55                push ebp
0000489F  4D                dec ebp
000048A0  005F5A            add [edi+0x5a],bl
000048A3  4C                dec esp
000048A4  396D62            cmp [ebp+0x62],ebp
000048A7  5F                pop edi
000048A8  6865616465        push dword 0x65646165
000048AD  7200              jc 0x48af
000048AF  7372              jnc 0x4923
000048B1  632F              arpl [edi],bp
000048B3  6C                insb
000048B4  6F                outsd
000048B5  61                popa
000048B6  6465722E          gs jc 0x48e8
000048BA  7300              jnc 0x48bc
000048BC  4B                dec ebx
000048BD  45                inc ebp
000048BE  52                push edx
000048BF  4E                dec esi
000048C0  45                inc ebp
000048C1  4C                dec esp
000048C2  5F                pop edi
000048C3  53                push ebx
000048C4  54                push esp
000048C5  41                inc ecx
000048C6  43                inc ebx
000048C7  4B                dec ebx
000048C8  5F                pop edi
000048C9  53                push ebx
000048CA  49                dec ecx
000048CB  5A                pop edx
000048CC  45                inc ebp
000048CD  006B65            add [ebx+0x65],ch
000048D0  726E              jc 0x4940
000048D2  656C              gs insb
000048D4  5F                pop edi
000048D5  7374              jnc 0x494b
000048D7  61                popa
000048D8  636B00            arpl [ebx+0x0],bp
000048DB  6B6D6169          imul ebp,[ebp+0x61],byte +0x69
000048DF  6E                outsb
000048E0  2E637070          arpl [cs:eax+0x70],si
000048E4  006764            add [edi+0x64],ah
000048E7  742E              jz 0x4917
000048E9  637070            arpl [eax+0x70],si
000048EC  007072            add [eax+0x72],dh
000048EF  6F                outsd
000048F0  636573            arpl [ebp+0x73],sp
000048F3  732E              jnc 0x4923
000048F5  637070            arpl [eax+0x70],si
000048F8  007372            add [ebx+0x72],dh
000048FB  632F              arpl [edi],bp
000048FD  63616C            arpl [ecx+0x6c],sp
00004900  6C                insb
00004901  5F                pop edi
00004902  7072              jo 0x4976
00004904  6F                outsd
00004905  636573            arpl [ebp+0x73],sp
00004908  732E              jnc 0x4938
0000490A  7300              jnc 0x490c
0000490C  63616C            arpl [ecx+0x6c],sp
0000490F  6C                insb
00004910  5F                pop edi
00004911  7072              jo 0x4985
00004913  6F                outsd
00004914  636573            arpl [ebp+0x73],sp
00004917  732E              jnc 0x4947
00004919  6C                insb
0000491A  6F                outsd
0000491B  6F                outsd
0000491C  7000              jo 0x491e
0000491E  63616C            arpl [ecx+0x6c],sp
00004921  6C                insb
00004922  5F                pop edi
00004923  7072              jo 0x4997
00004925  6F                outsd
00004926  636573            arpl [ebp+0x73],sp
00004929  732E              jnc 0x4959
0000492B  63616C            arpl [ecx+0x6c],sp
0000492E  6C                insb
0000492F  007372            add [ebx+0x72],dh
00004932  632F              arpl [edi],bp
00004934  6F                outsd
00004935  7574              jnz 0x49ab
00004937  7075              jo 0x49ae
00004939  742F              jz 0x496a
0000493B  696F2E73006672    imul ebp,[edi+0x2e],dword 0x72660073
00004942  61                popa
00004943  6D                insd
00004944  655F              gs pop edi
00004946  627566            bound esi,[ebp+0x66]
00004949  6665722E          gs o16 jc 0x497b
0000494D  637070            arpl [eax+0x70],si
00004950  005F5A            add [edi+0x5a],bl
00004953  4C                dec esp
00004954  326662            xor ah,[esi+0x62]
00004957  007365            add [ebx+0x65],dh
0000495A  7269              jc 0x49c5
0000495C  61                popa
0000495D  6C                insb
0000495E  5F                pop edi
0000495F  706F              jo 0x49d0
00004961  7274              jc 0x49d7
00004963  2E637070          arpl [cs:eax+0x70],si
00004967  005F5A            add [edi+0x5a],bl
0000496A  4C                dec esp
0000496B  313463            xor [ebx],esi
0000496E  6F                outsd
0000496F  6E                outsb
00004970  666967757265      imul sp,[edi+0x75],word 0x6572
00004976  645F              fs pop edi
00004978  636F6D            arpl [edi+0x6d],bp
0000497B  006578            add [ebp+0x78],ah
0000497E  5F                pop edi
0000497F  68616E646C        push dword 0x6c646e61
00004984  657273            gs jc 0x49fa
00004987  2E637070          arpl [cs:eax+0x70],si
0000498B  006964            add [ecx+0x64],ch
0000498E  742E              jz 0x49be
00004990  637070            arpl [eax+0x70],si
00004993  005F5A            add [edi+0x5a],bl
00004996  4C                dec esp
00004997  3131              xor [ecx],esi
00004999  49                dec ecx
0000499A  44                inc esp
0000499B  54                push esp
0000499C  5F                pop edi
0000499D  45                inc ebp
0000499E  4E                dec esi
0000499F  54                push esp
000049A0  52                push edx
000049A1  49                dec ecx
000049A2  45                inc ebp
000049A3  53                push ebx
000049A4  005F5A            add [edi+0x5a],bl
000049A7  4C                dec esp
000049A8  336964            xor ebp,[ecx+0x64]
000049AB  7400              jz 0x49ad
000049AD  5F                pop edi
000049AE  5A                pop edx
000049AF  4C                dec esp
000049B0  3469              xor al,0x69
000049B2  647472            fs jz 0x4a27
000049B5  005F5A            add [edi+0x5a],bl
000049B8  4C                dec esp
000049B9  37                aaa
000049BA  7665              jna 0x4a21
000049BC  63746F72          arpl [edi+ebp*2+0x72],si
000049C0  7300              jnc 0x49c2
000049C2  7372              jnc 0x4a36
000049C4  632F              arpl [edi],bp
000049C6  696E7465727275    imul ebp,[esi+0x74],dword 0x75727265
000049CD  7074              jo 0x4a43
000049CF  732F              jnc 0x4a00
000049D1  696E7465727275    imul ebp,[esi+0x74],dword 0x75727265
000049D8  7074              jo 0x4a4e
000049DA  732E              jnc 0x4a0a
000049DC  7300              jnc 0x49de
000049DE  6973725F737475    imul esi,[ebx+0x72],dword 0x7574735f
000049E5  625F30            bound ebx,[edi+0x30]
000049E8  006973            add [ecx+0x73],ch
000049EB  725F              jc 0x4a4c
000049ED  7374              jnc 0x4a63
000049EF  7562              jnz 0x4a53
000049F1  5F                pop edi
000049F2  3100              xor [eax],eax
000049F4  6973725F737475    imul esi,[ebx+0x72],dword 0x7574735f
000049FB  625F32            bound ebx,[edi+0x32]
000049FE  006973            add [ecx+0x73],ch
00004A01  725F              jc 0x4a62
00004A03  7374              jnc 0x4a79
00004A05  7562              jnz 0x4a69
00004A07  5F                pop edi
00004A08  3300              xor eax,[eax]
00004A0A  6973725F737475    imul esi,[ebx+0x72],dword 0x7574735f
00004A11  625F34            bound ebx,[edi+0x34]
00004A14  006973            add [ecx+0x73],ch
00004A17  725F              jc 0x4a78
00004A19  7374              jnc 0x4a8f
00004A1B  7562              jnz 0x4a7f
00004A1D  5F                pop edi
00004A1E  3500697372        xor eax,0x72736900
00004A23  5F                pop edi
00004A24  7374              jnc 0x4a9a
00004A26  7562              jnz 0x4a8a
00004A28  5F                pop edi
00004A29  36006973          add [ss:ecx+0x73],ch
00004A2D  725F              jc 0x4a8e
00004A2F  7374              jnc 0x4aa5
00004A31  7562              jnz 0x4a95
00004A33  5F                pop edi
00004A34  37                aaa
00004A35  006973            add [ecx+0x73],ch
00004A38  725F              jc 0x4a99
00004A3A  7374              jnc 0x4ab0
00004A3C  7562              jnz 0x4aa0
00004A3E  5F                pop edi
00004A3F  3800              cmp [eax],al
00004A41  6973725F737475    imul esi,[ebx+0x72],dword 0x7574735f
00004A48  625F39            bound ebx,[edi+0x39]
00004A4B  006973            add [ecx+0x73],ch
00004A4E  725F              jc 0x4aaf
00004A50  7374              jnc 0x4ac6
00004A52  7562              jnz 0x4ab6
00004A54  5F                pop edi
00004A55  3130              xor [eax],esi
00004A57  006973            add [ecx+0x73],ch
00004A5A  725F              jc 0x4abb
00004A5C  7374              jnc 0x4ad2
00004A5E  7562              jnz 0x4ac2
00004A60  5F                pop edi
00004A61  3131              xor [ecx],esi
00004A63  006973            add [ecx+0x73],ch
00004A66  725F              jc 0x4ac7
00004A68  7374              jnc 0x4ade
00004A6A  7562              jnz 0x4ace
00004A6C  5F                pop edi
00004A6D  3132              xor [edx],esi
00004A6F  006973            add [ecx+0x73],ch
00004A72  725F              jc 0x4ad3
00004A74  7374              jnc 0x4aea
00004A76  7562              jnz 0x4ada
00004A78  5F                pop edi
00004A79  3133              xor [ebx],esi
00004A7B  006973            add [ecx+0x73],ch
00004A7E  725F              jc 0x4adf
00004A80  7374              jnc 0x4af6
00004A82  7562              jnz 0x4ae6
00004A84  5F                pop edi
00004A85  313400            xor [eax+eax],esi
00004A88  6973725F737475    imul esi,[ebx+0x72],dword 0x7574735f
00004A8F  625F31            bound ebx,[edi+0x31]
00004A92  3500697372        xor eax,0x72736900
00004A97  5F                pop edi
00004A98  7374              jnc 0x4b0e
00004A9A  7562              jnz 0x4afe
00004A9C  5F                pop edi
00004A9D  3136              xor [esi],esi
00004A9F  006973            add [ecx+0x73],ch
00004AA2  725F              jc 0x4b03
00004AA4  7374              jnc 0x4b1a
00004AA6  7562              jnz 0x4b0a
00004AA8  5F                pop edi
00004AA9  3137              xor [edi],esi
00004AAB  006973            add [ecx+0x73],ch
00004AAE  725F              jc 0x4b0f
00004AB0  7374              jnc 0x4b26
00004AB2  7562              jnz 0x4b16
00004AB4  5F                pop edi
00004AB5  3138              xor [eax],edi
00004AB7  006973            add [ecx+0x73],ch
00004ABA  725F              jc 0x4b1b
00004ABC  7374              jnc 0x4b32
00004ABE  7562              jnz 0x4b22
00004AC0  5F                pop edi
00004AC1  3139              xor [ecx],edi
00004AC3  006973            add [ecx+0x73],ch
00004AC6  725F              jc 0x4b27
00004AC8  7374              jnc 0x4b3e
00004ACA  7562              jnz 0x4b2e
00004ACC  5F                pop edi
00004ACD  3230              xor dh,[eax]
00004ACF  006973            add [ecx+0x73],ch
00004AD2  725F              jc 0x4b33
00004AD4  7374              jnc 0x4b4a
00004AD6  7562              jnz 0x4b3a
00004AD8  5F                pop edi
00004AD9  3231              xor dh,[ecx]
00004ADB  006973            add [ecx+0x73],ch
00004ADE  725F              jc 0x4b3f
00004AE0  7374              jnc 0x4b56
00004AE2  7562              jnz 0x4b46
00004AE4  5F                pop edi
00004AE5  3232              xor dh,[edx]
00004AE7  006973            add [ecx+0x73],ch
00004AEA  725F              jc 0x4b4b
00004AEC  7374              jnc 0x4b62
00004AEE  7562              jnz 0x4b52
00004AF0  5F                pop edi
00004AF1  3233              xor dh,[ebx]
00004AF3  006973            add [ecx+0x73],ch
00004AF6  725F              jc 0x4b57
00004AF8  7374              jnc 0x4b6e
00004AFA  7562              jnz 0x4b5e
00004AFC  5F                pop edi
00004AFD  323400            xor dh,[eax+eax]
00004B00  6973725F737475    imul esi,[ebx+0x72],dword 0x7574735f
00004B07  625F32            bound ebx,[edi+0x32]
00004B0A  3500697372        xor eax,0x72736900
00004B0F  5F                pop edi
00004B10  7374              jnc 0x4b86
00004B12  7562              jnz 0x4b76
00004B14  5F                pop edi
00004B15  3236              xor dh,[esi]
00004B17  006973            add [ecx+0x73],ch
00004B1A  725F              jc 0x4b7b
00004B1C  7374              jnc 0x4b92
00004B1E  7562              jnz 0x4b82
00004B20  5F                pop edi
00004B21  3237              xor dh,[edi]
00004B23  006973            add [ecx+0x73],ch
00004B26  725F              jc 0x4b87
00004B28  7374              jnc 0x4b9e
00004B2A  7562              jnz 0x4b8e
00004B2C  5F                pop edi
00004B2D  3238              xor bh,[eax]
00004B2F  006973            add [ecx+0x73],ch
00004B32  725F              jc 0x4b93
00004B34  7374              jnc 0x4baa
00004B36  7562              jnz 0x4b9a
00004B38  5F                pop edi
00004B39  3239              xor bh,[ecx]
00004B3B  006973            add [ecx+0x73],ch
00004B3E  725F              jc 0x4b9f
00004B40  7374              jnc 0x4bb6
00004B42  7562              jnz 0x4ba6
00004B44  5F                pop edi
00004B45  3330              xor esi,[eax]
00004B47  006973            add [ecx+0x73],ch
00004B4A  725F              jc 0x4bab
00004B4C  7374              jnc 0x4bc2
00004B4E  7562              jnz 0x4bb2
00004B50  5F                pop edi
00004B51  3331              xor esi,[ecx]
00004B53  006973            add [ecx+0x73],ch
00004B56  725F              jc 0x4bb7
00004B58  7374              jnc 0x4bce
00004B5A  7562              jnz 0x4bbe
00004B5C  5F                pop edi
00004B5D  3332              xor esi,[edx]
00004B5F  007372            add [ebx+0x72],dh
00004B62  632F              arpl [edi],bp
00004B64  7061              jo 0x4bc7
00004B66  67696E672F656E61  imul ebp,[bp+0x67],dword 0x616e652f
00004B6E  626C655F          bound ebp,[ebp+0x5f]
00004B72  7061              jo 0x4bd5
00004B74  67696E672E730069  imul ebp,[bp+0x67],dword 0x6900732e
00004B7C  6E                outsb
00004B7D  69745F6B65726E65  imul esi,[edi+ebx*2+0x6b],dword 0x656e7265
00004B85  6C                insb
00004B86  5F                pop edi
00004B87  7061              jo 0x4bea
00004B89  67696E672E637070  imul ebp,[bp+0x67],dword 0x7070632e
00004B91  007372            add [ebx+0x72],dh
00004B94  632F              arpl [edi],bp
00004B96  7061              jo 0x4bf9
00004B98  67696E672F6C6F61  imul ebp,[bp+0x67],dword 0x616f6c2f
00004BA0  645F              fs pop edi
00004BA2  7061              jo 0x4c05
00004BA4  67655F            gs pop edi
00004BA7  6469726563746F72  imul esi,[fs:edx+0x65],dword 0x726f7463
00004BAF  792E              jns 0x4bdf
00004BB1  7300              jnc 0x4bb3
00004BB3  7374              jnc 0x4c29
00004BB5  7269              jc 0x4c20
00004BB7  6E                outsb
00004BB8  672E637070        arpl [cs:bx+si+0x70],si
00004BBD  007372            add [ebx+0x72],dh
00004BC0  632F              arpl [edi],bp
00004BC2  7374              jnc 0x4c38
00004BC4  646C              fs insb
00004BC6  69622F6D656D63    imul esp,[edx+0x2f],dword 0x636d656d
00004BCD  6F                outsd
00004BCE  7079              jo 0x4c49
00004BD0  2E7300            cs jnc 0x4bd3
00004BD3  6D                insd
00004BD4  656D              gs insd
00004BD6  636F70            arpl [edi+0x70],bp
00004BD9  792E              jns 0x4c09
00004BDB  6C                insb
00004BDC  6F                outsd
00004BDD  6F                outsd
00004BDE  7000              jo 0x4be0
00004BE0  6D                insd
00004BE1  61                popa
00004BE2  7468              jz 0x4c4c
00004BE4  2E637070          arpl [cs:eax+0x70],si
00004BE8  005F47            add [edi+0x47],bl
00004BEB  4C                dec esp
00004BEC  4F                dec edi
00004BED  42                inc edx
00004BEE  41                inc ecx
00004BEF  4C                dec esp
00004BF0  5F                pop edi
00004BF1  4F                dec edi
00004BF2  46                inc esi
00004BF3  46                inc esi
00004BF4  53                push ebx
00004BF5  45                inc ebp
00004BF6  54                push esp
00004BF7  5F                pop edi
00004BF8  54                push esp
00004BF9  41                inc ecx
00004BFA  42                inc edx
00004BFB  4C                dec esp
00004BFC  45                inc ebp
00004BFD  5F                pop edi
00004BFE  005F5F            add [edi+0x5f],bl
00004C01  7838              js 0x4c3b
00004C03  362E6765745F      gs jz 0x4c68
00004C09  7063              jo 0x4c6e
00004C0B  5F                pop edi
00004C0C  7468              jz 0x4c76
00004C0E  756E              jnz 0x4c7e
00004C10  6B2E63            imul ebp,[esi],byte +0x63
00004C13  7800              js 0x4c15
00004C15  696E62005F5A4E    imul ebp,[esi+0x62],dword 0x4e5a5f00
00004C1C  37                aaa
00004C1D  7072              jo 0x4c91
00004C1F  6F                outsd
00004C20  636573            arpl [ebp+0x73],sp
00004C23  7334              jnc 0x4c59
00004C25  63616C            arpl [ecx+0x6c],sp
00004C28  6C                insb
00004C29  45                inc ebp
00004C2A  7600              jna 0x4c2c
00004C2C  5F                pop edi
00004C2D  5A                pop edx
00004C2E  3230              xor dh,[eax]
00004C30  6865785F74        push dword 0x745f7865
00004C35  6F                outsd
00004C36  5F                pop edi
00004C37  636861            arpl [eax+0x61],bp
00004C3A  725F              jc 0x4c9b
00004C3C  61                popa
00004C3D  7272              jc 0x4cb1
00004C3F  61                popa
00004C40  795F              jns 0x4ca1
00004C42  3332              xor esi,[edx]
00004C44  6D                insd
00004C45  50                push eax
00004C46  6300              arpl [eax],ax
00004C48  5F                pop edi
00004C49  5A                pop edx
00004C4A  386765            cmp [edi+0x65],ah
00004C4D  745F              jz 0x4cae
00004C4F  7061              jo 0x4cb2
00004C51  676550            gs push eax
00004C54  6D                insd
00004C55  6D                insd
00004C56  7400              jz 0x4c58
00004C58  5F                pop edi
00004C59  5A                pop edx
00004C5A  3137              xor [edi],esi
00004C5C  637265            arpl [edx+0x65],si
00004C5F  61                popa
00004C60  7465              jz 0x4cc7
00004C62  5F                pop edi
00004C63  64657363          gs jnc 0x4cca
00004C67  7269              jc 0x4cd2
00004C69  7074              jo 0x4cdf
00004C6B  6F                outsd
00004C6C  7269              jc 0x4cd7
00004C6E  6D                insd
00004C6F  6D                insd
00004C70  7400              jz 0x4c72
00004C72  6D                insd
00004C73  656D              gs insd
00004C75  636F70            arpl [edi+0x70],bp
00004C78  7900              jns 0x4c7a
00004C7A  5F                pop edi
00004C7B  5A                pop edx
00004C7C  336C6F67          xor ebp,[edi+ebp*2+0x67]
00004C80  50                push eax
00004C81  6300              arpl [eax],ax
00004C83  5F                pop edi
00004C84  5A                pop edx
00004C85  313466            xor [esi],esi
00004C88  625F6D            bound ebx,[edi+0x6d]
00004C8B  6F                outsd
00004C8C  7665              jna 0x4cf3
00004C8E  5F                pop edi
00004C8F  637572            arpl [ebp+0x72],si
00004C92  736F              jnc 0x4d03
00004C94  7274              jc 0x4d0a
00004C96  006669            add [esi+0x69],ah
00004C99  7273              jc 0x4d0e
00004C9B  745F              jz 0x4cfc
00004C9D  7061              jo 0x4d00
00004C9F  67655F            gs pop edi
00004CA2  7461              jz 0x4d05
00004CA4  626C6500          bound ebp,[ebp+0x0]
00004CA8  5F                pop edi
00004CA9  5A                pop edx
00004CAA  3138              xor [eax],edi
00004CAC  6964745F7365745F  imul esp,[esp+esi*2+0x5f],dword 0x5f746573
00004CB4  64657363          gs jnc 0x4d1b
00004CB8  7269              jc 0x4d23
00004CBA  7074              jo 0x4d30
00004CBC  6F                outsd
00004CBD  7268              jc 0x4d27
00004CBF  50                push eax
00004CC0  7668              jna 0x4d2a
00004CC2  005F5A            add [edi+0x5a],bl
00004CC5  37                aaa
00004CC6  6C                insb
00004CC7  6F                outsd
00004CC8  675F              pop edi
00004CCA  7477              jz 0x4d43
00004CCC  6F                outsd
00004CCD  6D                insd
00004CCE  005F5A            add [edi+0x5a],bl
00004CD1  3232              xor dh,[edx]
00004CD3  7365              jnc 0x4d3a
00004CD5  7269              jc 0x4d40
00004CD7  61                popa
00004CD8  6C                insb
00004CD9  5F                pop edi
00004CDA  636F6E            arpl [edi+0x6e],bp
00004CDD  666967757265      imul sp,[edi+0x75],word 0x6572
00004CE3  5F                pop edi
00004CE4  6D                insd
00004CE5  6F                outsd
00004CE6  64656D            gs insd
00004CE9  7400              jz 0x4ceb
00004CEB  5F                pop edi
00004CEC  5F                pop edi
00004CED  7838              js 0x4d27
00004CEF  362E6765745F      gs jz 0x4d54
00004CF5  7063              jo 0x4d5a
00004CF7  5F                pop edi
00004CF8  7468              jz 0x4d62
00004CFA  756E              jnz 0x4d6a
00004CFC  6B2E61            imul ebp,[esi],byte +0x61
00004CFF  7800              js 0x4d01
00004D01  5F                pop edi
00004D02  5A                pop edx
00004D03  3136              xor [esi],esi
00004D05  7365              jnc 0x4d6c
00004D07  7269              jc 0x4d72
00004D09  61                popa
00004D0A  6C                insb
00004D0B  5F                pop edi
00004D0C  636F6E            arpl [edi+0x6e],bp
00004D0F  666967757265      imul sp,[edi+0x75],word 0x6572
00004D15  7474              jz 0x4d8b
00004D17  005F5A            add [edi+0x5a],bl
00004D1A  3231              xor dh,[ecx]
00004D1C  7365              jnc 0x4d83
00004D1E  7269              jc 0x4d89
00004D20  61                popa
00004D21  6C                insb
00004D22  5F                pop edi
00004D23  636F6E            arpl [edi+0x6e],bp
00004D26  666967757265      imul sp,[edi+0x75],word 0x6572
00004D2C  5F                pop edi
00004D2D  6C                insb
00004D2E  696E6574006372    imul ebp,[esi+0x65],dword 0x72630074
00004D35  6561              gs popa
00004D37  7465              jz 0x4d9e
00004D39  5F                pop edi
00004D3A  67647400          fs jz 0x4d3e
00004D3E  5F                pop edi
00004D3F  5A                pop edx
00004D40  336C6F67          xor ebp,[edi+ebp*2+0x67]
00004D44  6D                insd
00004D45  00656E            add [ebp+0x6e],ah
00004D48  61                popa
00004D49  626C6550          bound ebp,[ebp+0x50]
00004D4D  61                popa
00004D4E  67696E6700696474  imul ebp,[bp+0x67],dword 0x74646900
00004D56  5F                pop edi
00004D57  696E6974005F5A    imul ebp,[esi+0x69],dword 0x5a5f0074
00004D5E  4E                dec esi
00004D5F  37                aaa
00004D60  7072              jo 0x4dd4
00004D62  6F                outsd
00004D63  636573            arpl [ebp+0x73],sp
00004D66  7355              jnc 0x4dbd
00004D68  745F              jz 0x4dc9
00004D6A  43                inc ebx
00004D6B  314576            xor [ebp+0x76],eax
00004D6E  005F5A            add [edi+0x5a],bl
00004D71  3239              xor bh,[ecx]
00004D73  7365              jnc 0x4dda
00004D75  7269              jc 0x4de0
00004D77  61                popa
00004D78  6C                insb
00004D79  5F                pop edi
00004D7A  69735F7472616E    imul esi,[ebx+0x5f],dword 0x6e617274
00004D81  736D              jnc 0x4df0
00004D83  69745F6669666F5F  imul esi,[edi+ebx*2+0x66],dword 0x5f6f6669
00004D8B  656D              gs insd
00004D8D  7074              jo 0x4e03
00004D8F  7974              jns 0x4e05
00004D91  00746573          add [ebp+0x73],dh
00004D95  745F              jz 0x4df6
00004D97  657863            gs js 0x4dfd
00004D9A  657074            gs jo 0x4e11
00004D9D  696F6E5F68616E    imul ebp,[edi+0x6e],dword 0x6e61685f
00004DA4  646C              fs insb
00004DA6  657200            gs jc 0x4da9
00004DA9  756E              jnz 0x4e19
00004DAB  696D706C656D65    imul ebp,[ebp+0x70],dword 0x656d656c
00004DB2  6E                outsb
00004DB3  7465              jz 0x4e1a
00004DB5  645F              fs pop edi
00004DB7  696E7465727275    imul ebp,[esi+0x74],dword 0x75727265
00004DBE  7074              jo 0x4e34
00004DC0  005F5A            add [edi+0x5a],bl
00004DC3  3139              xor [ecx],edi
00004DC5  7365              jnc 0x4e2c
00004DC7  7269              jc 0x4e32
00004DC9  61                popa
00004DCA  6C                insb
00004DCB  5F                pop edi
00004DCC  7772              ja 0x4e40
00004DCE  6974655F6865785F  imul esi,[ebp+0x5f],dword 0x5f786568
00004DD6  3332              xor esi,[edx]
00004DD8  6D                insd
00004DD9  006C6F61          add [edi+ebp*2+0x61],ch
00004DDD  6450              fs push eax
00004DDF  61                popa
00004DE0  676544            gs inc esp
00004DE3  69726563746F72    imul esi,[edx+0x65],dword 0x726f7463
00004DEA  7900              jns 0x4dec
00004DEC  5F                pop edi
00004DED  5A                pop edx
00004DEE  3139              xor [ecx],edi
00004DF0  696E69745F7061    imul ebp,[esi+0x69],dword 0x61705f74
00004DF7  67655F            gs pop edi
00004DFA  6469726563746F72  imul esi,[fs:edx+0x65],dword 0x726f7463
00004E02  7950              jns 0x4e54
00004E04  6D                insd
00004E05  006D65            add [ebp+0x65],ch
00004E08  6D                insd
00004E09  6F                outsd
00004E0A  7279              jc 0x4e85
00004E0C  5F                pop edi
00004E0D  6D                insd
00004E0E  61                popa
00004E0F  7000              jo 0x4e11
00004E11  6B65726E          imul esp,[ebp+0x72],byte +0x6e
00004E15  656C              gs insb
00004E17  5F                pop edi
00004E18  7061              jo 0x4e7b
00004E1A  67655F            gs pop edi
00004E1D  6469726563746F72  imul esi,[fs:edx+0x65],dword 0x726f7463
00004E25  7900              jns 0x4e27
00004E27  5F                pop edi
00004E28  5A                pop edx
00004E29  4E                dec esi
00004E2A  37                aaa
00004E2B  7072              jo 0x4e9f
00004E2D  6F                outsd
00004E2E  636573            arpl [ebp+0x73],sp
00004E31  7355              jnc 0x4e88
00004E33  745F              jz 0x4e94
00004E35  43                inc ebx
00004E36  324576            xor al,[ebp+0x76]
00004E39  005F5A            add [edi+0x5a],bl
00004E3C  3133              xor [ebx],esi
00004E3E  6765745F          gs jz 0x4ea1
00004E42  667265            o16 jc 0x4eaa
00004E45  655F              gs pop edi
00004E47  7061              jo 0x4eaa
00004E49  67657600          gs jna 0x4e4d
00004E4D  5F                pop edi
00004E4E  5A                pop edx
00004E4F  3135696E6974      xor [dword 0x74696e69],esi
00004E55  5F                pop edi
00004E56  6D                insd
00004E57  656D              gs insd
00004E59  6F                outsd
00004E5A  7279              jc 0x4ed5
00004E5C  5F                pop edi
00004E5D  6D                insd
00004E5E  61                popa
00004E5F  7076              jo 0x4ed7
00004E61  005F5F            add [edi+0x5f],bl
00004E64  7838              js 0x4e9e
00004E66  362E6765745F      gs jz 0x4ecb
00004E6C  7063              jo 0x4ed1
00004E6E  5F                pop edi
00004E6F  7468              jz 0x4ed9
00004E71  756E              jnz 0x4ee1
00004E73  6B2E62            imul ebp,[esi],byte +0x62
00004E76  7800              js 0x4e78
00004E78  6F                outsd
00004E79  7574              jnz 0x4eef
00004E7B  6200              bound eax,[eax]
00004E7D  7061              jo 0x4ee0
00004E7F  67655F            gs pop edi
00004E82  6661              popaw
00004E84  756C              jnz 0x4ef2
00004E86  745F              jz 0x4ee7
00004E88  68616E646C        push dword 0x6c646e61
00004E8D  657200            gs jc 0x4e90
00004E90  5F                pop edi
00004E91  5A                pop edx
00004E92  313566625F77      xor [dword 0x775f6266],esi
00004E98  7269              jc 0x4f03
00004E9A  7465              jz 0x4f01
00004E9C  5F                pop edi
00004E9D  6865785F33        push dword 0x335f7865
00004EA2  326D00            xor ch,[ebp+0x0]
00004EA5  6764745F          fs jz 0x4f08
00004EA9  7074              jo 0x4f1f
00004EAB  7200              jc 0x4ead
00004EAD  63616C            arpl [ecx+0x6c],sp
00004EB0  6C                insb
00004EB1  5F                pop edi
00004EB2  7072              jo 0x4f26
00004EB4  6F                outsd
00004EB5  636573            arpl [ebp+0x73],sp
00004EB8  7300              jnc 0x4eba
00004EBA  5F                pop edi
00004EBB  5A                pop edx
00004EBC  3133              xor [ebx],esi
00004EBE  66625F77          bound bx,[edi+0x77]
00004EC2  7269              jc 0x4f2d
00004EC4  7465              jz 0x4f2b
00004EC6  5F                pop edi
00004EC7  63656C            arpl [ebp+0x6c],sp
00004ECA  6C                insb
00004ECB  6A63              push byte +0x63
00004ECD  6868005F5A        push dword 0x5a5f0068
00004ED2  3137              xor [edi],esi
00004ED4  7365              jnc 0x4f3b
00004ED6  7269              jc 0x4f41
00004ED8  61                popa
00004ED9  6C                insb
00004EDA  5F                pop edi
00004EDB  7772              ja 0x4f4f
00004EDD  6974655F62797465  imul esi,[ebp+0x5f],dword 0x65747962
00004EE5  7463              jz 0x4f4a
00004EE7  006C6F61          add [edi+ebp*2+0x61],ch
00004EEB  64657200          gs jc 0x4eef
00004EEF  5F                pop edi
00004EF0  5A                pop edx
00004EF1  4E                dec esi
00004EF2  37                aaa
00004EF3  7072              jo 0x4f67
00004EF5  6F                outsd
00004EF6  636573            arpl [ebp+0x73],sp
00004EF9  7343              jnc 0x4f3e
00004EFB  314550            xor [ebp+0x50],eax
00004EFE  3138              xor [eax],edi
00004F00  6D                insd
00004F01  756C              jnz 0x4f6f
00004F03  7469              jz 0x4f6e
00004F05  626F6F            bound ebp,[edi+0x6f]
00004F08  745F              jz 0x4f69
00004F0A  6D                insd
00004F0B  6F                outsd
00004F0C  645F              fs pop edi
00004F0E  6C                insb
00004F0F  697374005F5A4E    imul esi,[ebx+0x74],dword 0x4e5a5f00
00004F16  37                aaa
00004F17  7072              jo 0x4f8b
00004F19  6F                outsd
00004F1A  636573            arpl [ebp+0x73],sp
00004F1D  7343              jnc 0x4f62
00004F1F  324550            xor al,[ebp+0x50]
00004F22  3138              xor [eax],edi
00004F24  6D                insd
00004F25  756C              jnz 0x4f93
00004F27  7469              jz 0x4f92
00004F29  626F6F            bound ebp,[edi+0x6f]
00004F2C  745F              jz 0x4f8d
00004F2E  6D                insd
00004F2F  6F                outsd
00004F30  645F              fs pop edi
00004F32  6C                insb
00004F33  697374005F5A32    imul esi,[ebx+0x74],dword 0x325a5f00
00004F3A  387365            cmp [ebx+0x65],dh
00004F3D  7269              jc 0x4fa8
00004F3F  61                popa
00004F40  6C                insb
00004F41  5F                pop edi
00004F42  636F6E            arpl [edi+0x6e],bp
00004F45  666967757265      imul sp,[edi+0x75],word 0x6572
00004F4B  5F                pop edi
00004F4C  6669666F5F62      imul sp,[esi+0x6f],word 0x625f
00004F52  7566              jnz 0x4fba
00004F54  66657274          gs o16 jc 0x4fcc
00004F58  006973            add [ecx+0x73],ch
00004F5B  725F              jc 0x4fbc
00004F5D  7374              jnc 0x4fd3
00004F5F  7562              jnz 0x4fc3
00004F61  5F                pop edi
00004F62  7461              jz 0x4fc5
00004F64  626C6500          bound ebp,[ebp+0x0]
00004F68  5F                pop edi
00004F69  5A                pop edx
00004F6A  386662            cmp [esi+0x62],ah
00004F6D  5F                pop edi
00004F6E  7772              ja 0x4fe2
00004F70  69746550636A6868  imul esi,[ebp+0x50],dword 0x68686a63
00004F78  006C6173          add [ecx+0x73],ch
00004F7C  745F              jz 0x4fdd
00004F7E  706F              jo 0x4fef
00004F80  7369              jnc 0x4feb
00004F82  7469              jz 0x4fed
00004F84  6F                outsd
00004F85  6E                outsb
00004F86  006B6D            add [ebx+0x6d],ch
00004F89  61                popa
00004F8A  696E005F5A3132    imul ebp,[esi+0x0],dword 0x32315a5f
00004F91  7365              jnc 0x4ff8
00004F93  7269              jc 0x4ffe
00004F95  61                popa
00004F96  6C                insb
00004F97  5F                pop edi
00004F98  7772              ja 0x500c
00004F9A  6974657450636A00  imul esi,[ebp+0x74],dword 0x6a6350
00004FA2  696E69745F6B65    imul ebp,[esi+0x69],dword 0x656b5f74
00004FA9  726E              jc 0x5019
00004FAB  656C              gs insb
00004FAD  5F                pop edi
00004FAE  7061              jo 0x5011
00004FB0  67696E67005F5A32  imul ebp,[bp+0x67],dword 0x325a5f00
00004FB8  367365            ss jnc 0x5020
00004FBB  7269              jc 0x5026
00004FBD  61                popa
00004FBE  6C                insb
00004FBF  5F                pop edi
00004FC0  636F6E            arpl [edi+0x6e],bp
00004FC3  666967757265      imul sp,[edi+0x75],word 0x6572
00004FC9  5F                pop edi
00004FCA  626175            bound esp,[ecx+0x75]
00004FCD  645F              fs pop edi
00004FCF  7261              jc 0x5032
00004FD1  7465              jz 0x5038
00004FD3  7474              jz 0x5049
00004FD5  005F5A            add [edi+0x5a],bl
00004FD8  4E                dec esi
00004FD9  37                aaa
00004FDA  7072              jo 0x504e
00004FDC  6F                outsd
00004FDD  636573            arpl [ebp+0x73],sp
00004FE0  7333              jnc 0x5015
00004FE2  6964734500002E73  imul esp,[ebx+esi*2+0x45],dword 0x732e0000
00004FEA  796D              jns 0x5059
00004FEC  7461              jz 0x504f
00004FEE  6200              bound eax,[eax]
00004FF0  2E7374            cs jnc 0x5067
00004FF3  7274              jc 0x5069
00004FF5  61                popa
00004FF6  6200              bound eax,[eax]
00004FF8  2E7368            cs jnc 0x5063
00004FFB  7374              jnc 0x5071
00004FFD  7274              jc 0x5073
00004FFF  61                popa
00005000  6200              bound eax,[eax]
00005002  2E7465            cs jz 0x506a
00005005  7874              js 0x507b
00005007  002E              add [esi],ch
00005009  7465              jz 0x5070
0000500B  7874              js 0x5081
0000500D  2E5F              cs pop edi
0000500F  5F                pop edi
00005010  7838              js 0x504a
00005012  362E6765745F      gs jz 0x5077
00005018  7063              jo 0x507d
0000501A  5F                pop edi
0000501B  7468              jz 0x5085
0000501D  756E              jnz 0x508d
0000501F  6B2E62            imul ebp,[esi],byte +0x62
00005022  7800              js 0x5024
00005024  2E7465            cs jz 0x508c
00005027  7874              js 0x509d
00005029  2E5F              cs pop edi
0000502B  5F                pop edi
0000502C  7838              js 0x5066
0000502E  362E6765745F      gs jz 0x5093
00005034  7063              jo 0x5099
00005036  5F                pop edi
00005037  7468              jz 0x50a1
00005039  756E              jnz 0x50a9
0000503B  6B2E63            imul ebp,[esi],byte +0x63
0000503E  7800              js 0x5040
00005040  2E7465            cs jz 0x50a8
00005043  7874              js 0x50b9
00005045  2E5F              cs pop edi
00005047  5A                pop edx
00005048  4E                dec esi
00005049  37                aaa
0000504A  7072              jo 0x50be
0000504C  6F                outsd
0000504D  636573            arpl [ebp+0x73],sp
00005050  7355              jnc 0x50a7
00005052  745F              jz 0x50b3
00005054  43                inc ebx
00005055  324576            xor al,[ebp+0x76]
00005058  002E              add [esi],ch
0000505A  7465              jz 0x50c1
0000505C  7874              js 0x50d2
0000505E  2E5F              cs pop edi
00005060  5F                pop edi
00005061  7838              js 0x509b
00005063  362E6765745F      gs jz 0x50c8
00005069  7063              jo 0x50ce
0000506B  5F                pop edi
0000506C  7468              jz 0x50d6
0000506E  756E              jnz 0x50de
00005070  6B2E61            imul ebp,[esi],byte +0x61
00005073  7800              js 0x5075
00005075  2E726F            cs jc 0x50e7
00005078  6461              fs popa
0000507A  7461              jz 0x50dd
0000507C  002E              add [esi],ch
0000507E  65685F667261      gs push dword 0x6172665f
00005084  6D                insd
00005085  65002E            add [gs:esi],ch
00005088  6461              fs popa
0000508A  7461              jz 0x50ed
0000508C  002E              add [esi],ch
0000508E  676F              a16 outsd
00005090  742E              jz 0x50c0
00005092  706C              jo 0x5100
00005094  7400              jz 0x5096
00005096  2E627373          bound esi,[cs:ebx+0x73]
0000509A  002E              add [esi],ch
0000509C  636F6D            arpl [edi+0x6d],bp
0000509F  6D                insd
000050A0  656E              gs outsb
000050A2  7400              jz 0x50a4
000050A4  0000              add [eax],al
000050A6  0000              add [eax],al
000050A8  0000              add [eax],al
000050AA  0000              add [eax],al
000050AC  0000              add [eax],al
000050AE  0000              add [eax],al
000050B0  0000              add [eax],al
000050B2  0000              add [eax],al
000050B4  0000              add [eax],al
000050B6  0000              add [eax],al
000050B8  0000              add [eax],al
000050BA  0000              add [eax],al
000050BC  0000              add [eax],al
000050BE  0000              add [eax],al
000050C0  0000              add [eax],al
000050C2  0000              add [eax],al
000050C4  0000              add [eax],al
000050C6  0000              add [eax],al
000050C8  0000              add [eax],al
000050CA  0000              add [eax],al
000050CC  1B00              sbb eax,[eax]
000050CE  0000              add [eax],al
000050D0  0100              add [eax],eax
000050D2  0000              add [eax],al
000050D4  06                push es
000050D5  0000              add [eax],al
000050D7  0000              add [eax],al
000050D9  0010              add [eax],dl
000050DB  0000              add [eax],al
000050DD  1000              adc [eax],al
000050DF  0016              add [esi],dl
000050E1  1000              adc [eax],al
000050E3  0000              add [eax],al
000050E5  0000              add [eax],al
000050E7  0000              add [eax],al
000050E9  0000              add [eax],al
000050EB  0010              add [eax],dl
000050ED  0000              add [eax],al
000050EF  0000              add [eax],al
000050F1  0000              add [eax],al
000050F3  0021              add [ecx],ah
000050F5  0000              add [eax],al
000050F7  0001              add [ecx],al
000050F9  0000              add [eax],al
000050FB  0006              add [esi],al
000050FD  0000              add [eax],al
000050FF  0016              add [esi],dl
00005101  1010              adc [eax],dl
00005103  0016              add [esi],dl
00005105  2000              and [eax],al
00005107  000400            add [eax+eax],al
0000510A  0000              add [eax],al
0000510C  0000              add [eax],al
0000510E  0000              add [eax],al
00005110  0000              add [eax],al
00005112  0000              add [eax],al
00005114  0100              add [eax],eax
00005116  0000              add [eax],al
00005118  0000              add [eax],al
0000511A  0000              add [eax],al
0000511C  3D00000001        cmp eax,0x1000000
00005121  0000              add [eax],al
00005123  0006              add [esi],al
00005125  0000              add [eax],al
00005127  001A              add [edx],bl
00005129  1010              adc [eax],dl
0000512B  001A              add [edx],bl
0000512D  2000              and [eax],al
0000512F  000400            add [eax+eax],al
00005132  0000              add [eax],al
00005134  0000              add [eax],al
00005136  0000              add [eax],al
00005138  0000              add [eax],al
0000513A  0000              add [eax],al
0000513C  0100              add [eax],eax
0000513E  0000              add [eax],al
00005140  0000              add [eax],al
00005142  0000              add [eax],al
00005144  59                pop ecx
00005145  0000              add [eax],al
00005147  0001              add [ecx],al
00005149  0000              add [eax],al
0000514B  0006              add [esi],al
0000514D  0000              add [eax],al
0000514F  001E              add [esi],bl
00005151  1010              adc [eax],dl
00005153  001E              add [esi],bl
00005155  2000              and [eax],al
00005157  0019              add [ecx],bl
00005159  0000              add [eax],al
0000515B  0000              add [eax],al
0000515D  0000              add [eax],al
0000515F  0000              add [eax],al
00005161  0000              add [eax],al
00005163  0002              add [edx],al
00005165  0000              add [eax],al
00005167  0000              add [eax],al
00005169  0000              add [eax],al
0000516B  007200            add [edx+0x0],dh
0000516E  0000              add [eax],al
00005170  0100              add [eax],eax
00005172  0000              add [eax],al
00005174  06                push es
00005175  0000              add [eax],al
00005177  0037              add [edi],dh
00005179  1010              adc [eax],dl
0000517B  0037              add [edi],dh
0000517D  2000              and [eax],al
0000517F  000400            add [eax+eax],al
00005182  0000              add [eax],al
00005184  0000              add [eax],al
00005186  0000              add [eax],al
00005188  0000              add [eax],al
0000518A  0000              add [eax],al
0000518C  0100              add [eax],eax
0000518E  0000              add [eax],al
00005190  0000              add [eax],al
00005192  0000              add [eax],al
00005194  8E00              mov es,[eax]
00005196  0000              add [eax],al
00005198  0100              add [eax],eax
0000519A  0000              add [eax],al
0000519C  0200              add al,[eax]
0000519E  0000              add [eax],al
000051A0  0020              add [eax],ah
000051A2  1000              adc [eax],al
000051A4  0030              add [eax],dh
000051A6  0000              add [eax],al
000051A8  0C00              or al,0x0
000051AA  0000              add [eax],al
000051AC  0000              add [eax],al
000051AE  0000              add [eax],al
000051B0  0000              add [eax],al
000051B2  0000              add [eax],al
000051B4  0400              add al,0x0
000051B6  0000              add [eax],al
000051B8  0000              add [eax],al
000051BA  0000              add [eax],al
000051BC  96                xchg eax,esi
000051BD  0000              add [eax],al
000051BF  0001              add [ecx],al
000051C1  0000              add [eax],al
000051C3  0002              add [edx],al
000051C5  0000              add [eax],al
000051C7  000C20            add [eax],cl
000051CA  1000              adc [eax],al
000051CC  0C30              or al,0x30
000051CE  0000              add [eax],al
000051D0  D80400            fadd dword [eax+eax]
000051D3  0000              add [eax],al
000051D5  0000              add [eax],al
000051D7  0000              add [eax],al
000051D9  0000              add [eax],al
000051DB  000400            add [eax+eax],al
000051DE  0000              add [eax],al
000051E0  0000              add [eax],al
000051E2  0000              add [eax],al
000051E4  A000000001        mov al,[0x1000000]
000051E9  0000              add [eax],al
000051EB  0003              add [ebx],al
000051ED  0000              add [eax],al
000051EF  0000              add [eax],al
000051F1  3010              xor [eax],dl
000051F3  0000              add [eax],al
000051F5  40                inc eax
000051F6  0000              add [eax],al
000051F8  8800              mov [eax],al
000051FA  0000              add [eax],al
000051FC  0000              add [eax],al
000051FE  0000              add [eax],al
00005200  0000              add [eax],al
00005202  0000              add [eax],al
00005204  0400              add al,0x0
00005206  0000              add [eax],al
00005208  0000              add [eax],al
0000520A  0000              add [eax],al
0000520C  A6                cmpsb
0000520D  0000              add [eax],al
0000520F  0001              add [ecx],al
00005211  0000              add [eax],al
00005213  0003              add [ebx],al
00005215  0000              add [eax],al
00005217  008830100088      add [eax-0x77ffefd0],cl
0000521D  40                inc eax
0000521E  0000              add [eax],al
00005220  0C00              or al,0x0
00005222  0000              add [eax],al
00005224  0000              add [eax],al
00005226  0000              add [eax],al
00005228  0000              add [eax],al
0000522A  0000              add [eax],al
0000522C  0400              add al,0x0
0000522E  0000              add [eax],al
00005230  0400              add al,0x0
00005232  0000              add [eax],al
00005234  AF                scasd
00005235  0000              add [eax],al
00005237  0008              add [eax],cl
00005239  0000              add [eax],al
0000523B  0003              add [ebx],al
0000523D  0000              add [eax],al
0000523F  0000              add [eax],al
00005241  40                inc eax
00005242  1000              adc [eax],al
00005244  94                xchg eax,esp
00005245  40                inc eax
00005246  0000              add [eax],al
00005248  0440              add al,0x40
0000524A  0200              add al,[eax]
0000524C  0000              add [eax],al
0000524E  0000              add [eax],al
00005250  0000              add [eax],al
00005252  0000              add [eax],al
00005254  0010              add [eax],dl
00005256  0000              add [eax],al
00005258  0000              add [eax],al
0000525A  0000              add [eax],al
0000525C  B400              mov ah,0x0
0000525E  0000              add [eax],al
00005260  0100              add [eax],eax
00005262  0000              add [eax],al
00005264  3000              xor [eax],al
00005266  0000              add [eax],al
00005268  0000              add [eax],al
0000526A  0000              add [eax],al
0000526C  94                xchg eax,esp
0000526D  40                inc eax
0000526E  0000              add [eax],al
00005270  1B00              sbb eax,[eax]
00005272  0000              add [eax],al
00005274  0000              add [eax],al
00005276  0000              add [eax],al
00005278  0000              add [eax],al
0000527A  0000              add [eax],al
0000527C  0100              add [eax],eax
0000527E  0000              add [eax],al
00005280  0100              add [eax],eax
00005282  0000              add [eax],al
00005284  0100              add [eax],eax
00005286  0000              add [eax],al
00005288  0200              add al,[eax]
0000528A  0000              add [eax],al
0000528C  0000              add [eax],al
0000528E  0000              add [eax],al
00005290  0000              add [eax],al
00005292  0000              add [eax],al
00005294  B040              mov al,0x40
00005296  0000              add [eax],al
00005298  C00700            rol byte [edi],byte 0x0
0000529B  000D00000047      add [dword 0x47000000],cl
000052A1  0000              add [eax],al
000052A3  000400            add [eax+eax],al
000052A6  0000              add [eax],al
000052A8  1000              adc [eax],al
000052AA  0000              add [eax],al
000052AC  0900              or [eax],eax
000052AE  0000              add [eax],al
000052B0  0300              add eax,[eax]
000052B2  0000              add [eax],al
000052B4  0000              add [eax],al
000052B6  0000              add [eax],al
000052B8  0000              add [eax],al
000052BA  0000              add [eax],al
000052BC  7048              jo 0x5306
000052BE  0000              add [eax],al
000052C0  7707              ja 0x52c9
000052C2  0000              add [eax],al
000052C4  0000              add [eax],al
000052C6  0000              add [eax],al
000052C8  0000              add [eax],al
000052CA  0000              add [eax],al
000052CC  0100              add [eax],eax
000052CE  0000              add [eax],al
000052D0  0000              add [eax],al
000052D2  0000              add [eax],al
000052D4  1100              adc [eax],eax
000052D6  0000              add [eax],al
000052D8  0300              add eax,[eax]
000052DA  0000              add [eax],al
000052DC  0000              add [eax],al
000052DE  0000              add [eax],al
000052E0  0000              add [eax],al
000052E2  0000              add [eax],al
000052E4  E74F              out 0x4f,eax
000052E6  0000              add [eax],al
000052E8  BD00000000        mov ebp,0x0
000052ED  0000              add [eax],al
000052EF  0000              add [eax],al
000052F1  0000              add [eax],al
000052F3  0001              add [ecx],al
000052F5  0000              add [eax],al
000052F7  0000              add [eax],al
000052F9  0000              add [eax],al
000052FB  00                db 0x00
