00000000  7F45              jg 0x47
00000002  4C                dec sp
00000003  46                inc si
00000004  0101              add [bx+di],ax
00000006  0100              add [bx+si],ax
00000008  0000              add [bx+si],al
0000000A  0000              add [bx+si],al
0000000C  0000              add [bx+si],al
0000000E  0000              add [bx+si],al
00000010  0200              add al,[bx+si]
00000012  0300              add ax,[bx+si]
00000014  0100              add [bx+si],ax
00000016  0000              add [bx+si],al
00000018  3000              xor [bx+si],al
0000001A  1000              adc [bx+si],al
0000001C  3400              xor al,0x0
0000001E  0000              add [bx+si],al
00000020  A4                movsb
00000021  50                push ax
00000022  0000              add [bx+si],al
00000024  0000              add [bx+si],al
00000026  0000              add [bx+si],al
00000028  3400              xor al,0x0
0000002A  2000              and [bx+si],al
0000002C  0400              add al,0x0
0000002E  2800              sub [bx+si],al
00000030  0F000E0001        str [0x100]
00000035  0000              add [bx+si],al
00000037  0000              add [bx+si],al
00000039  1000              adc [bx+si],al
0000003B  0000              add [bx+si],al
0000003D  0010              add [bx+si],dl
0000003F  0000              add [bx+si],al
00000041  0010              add [bx+si],dl
00000043  00BB1000          add [bp+di+0x10],bh
00000047  00BB1000          add [bp+di+0x10],bh
0000004B  0005              add [di],al
0000004D  0000              add [bx+si],al
0000004F  0000              add [bx+si],al
00000051  1000              adc [bx+si],al
00000053  0001              add [bx+di],al
00000055  0000              add [bx+si],al
00000057  0000              add [bx+si],al
00000059  3000              xor [bx+si],al
0000005B  0000              add [bx+si],al
0000005D  2010              and [bx+si],dl
0000005F  0000              add [bx+si],al
00000061  2010              and [bx+si],dl
00000063  00FC              add ah,bh
00000065  0400              add al,0x0
00000067  00FC              add ah,bh
00000069  0400              add al,0x0
0000006B  0004              add [si],al
0000006D  0000              add [bx+si],al
0000006F  0000              add [bx+si],al
00000071  1000              adc [bx+si],al
00000073  0001              add [bx+di],al
00000075  0000              add [bx+si],al
00000077  0000              add [bx+si],al
00000079  40                inc ax
0000007A  0000              add [bx+si],al
0000007C  0030              add [bx+si],dh
0000007E  1000              adc [bx+si],al
00000080  0030              add [bx+si],dh
00000082  1000              adc [bx+si],al
00000084  94                xchg ax,sp
00000085  0000              add [bx+si],al
00000087  0004              add [si],al
00000089  50                push ax
0000008A  0200              add al,[bx+si]
0000008C  06                push es
0000008D  0000              add [bx+si],al
0000008F  0000              add [bx+si],al
00000091  1000              adc [bx+si],al
00000093  0051E5            add [bx+di-0x1b],dl
00000096  7464              jz 0xfc
00000098  0000              add [bx+si],al
0000009A  0000              add [bx+si],al
0000009C  0000              add [bx+si],al
0000009E  0000              add [bx+si],al
000000A0  0000              add [bx+si],al
000000A2  0000              add [bx+si],al
000000A4  0000              add [bx+si],al
000000A6  0000              add [bx+si],al
000000A8  0000              add [bx+si],al
000000AA  0000              add [bx+si],al
000000AC  06                push es
000000AD  0000              add [bx+si],al
000000AF  0010              add [bx+si],dl
000000B1  0000              add [bx+si],al
000000B3  0000              add [bx+si],al
000000B5  0000              add [bx+si],al
000000B7  0000              add [bx+si],al
000000B9  0000              add [bx+si],al
000000BB  0000              add [bx+si],al
000000BD  0000              add [bx+si],al
000000BF  0000              add [bx+si],al
000000C1  0000              add [bx+si],al
000000C3  0000              add [bx+si],al
000000C5  0000              add [bx+si],al
000000C7  0000              add [bx+si],al
000000C9  0000              add [bx+si],al
000000CB  0000              add [bx+si],al
000000CD  0000              add [bx+si],al
000000CF  0000              add [bx+si],al
000000D1  0000              add [bx+si],al
000000D3  0000              add [bx+si],al
000000D5  0000              add [bx+si],al
000000D7  0000              add [bx+si],al
000000D9  0000              add [bx+si],al
000000DB  0000              add [bx+si],al
000000DD  0000              add [bx+si],al
000000DF  0000              add [bx+si],al
000000E1  0000              add [bx+si],al
000000E3  0000              add [bx+si],al
000000E5  0000              add [bx+si],al
000000E7  0000              add [bx+si],al
000000E9  0000              add [bx+si],al
000000EB  0000              add [bx+si],al
000000ED  0000              add [bx+si],al
000000EF  0000              add [bx+si],al
000000F1  0000              add [bx+si],al
000000F3  0000              add [bx+si],al
000000F5  0000              add [bx+si],al
000000F7  0000              add [bx+si],al
000000F9  0000              add [bx+si],al
000000FB  0000              add [bx+si],al
000000FD  0000              add [bx+si],al
000000FF  0000              add [bx+si],al
00000101  0000              add [bx+si],al
00000103  0000              add [bx+si],al
00000105  0000              add [bx+si],al
00000107  0000              add [bx+si],al
00000109  0000              add [bx+si],al
0000010B  0000              add [bx+si],al
0000010D  0000              add [bx+si],al
0000010F  0000              add [bx+si],al
00000111  0000              add [bx+si],al
00000113  0000              add [bx+si],al
00000115  0000              add [bx+si],al
00000117  0000              add [bx+si],al
00000119  0000              add [bx+si],al
0000011B  0000              add [bx+si],al
0000011D  0000              add [bx+si],al
0000011F  0000              add [bx+si],al
00000121  0000              add [bx+si],al
00000123  0000              add [bx+si],al
00000125  0000              add [bx+si],al
00000127  0000              add [bx+si],al
00000129  0000              add [bx+si],al
0000012B  0000              add [bx+si],al
0000012D  0000              add [bx+si],al
0000012F  0000              add [bx+si],al
00000131  0000              add [bx+si],al
00000133  0000              add [bx+si],al
00000135  0000              add [bx+si],al
00000137  0000              add [bx+si],al
00000139  0000              add [bx+si],al
0000013B  0000              add [bx+si],al
0000013D  0000              add [bx+si],al
0000013F  0000              add [bx+si],al
00000141  0000              add [bx+si],al
00000143  0000              add [bx+si],al
00000145  0000              add [bx+si],al
00000147  0000              add [bx+si],al
00000149  0000              add [bx+si],al
0000014B  0000              add [bx+si],al
0000014D  0000              add [bx+si],al
0000014F  0000              add [bx+si],al
00000151  0000              add [bx+si],al
00000153  0000              add [bx+si],al
00000155  0000              add [bx+si],al
00000157  0000              add [bx+si],al
00000159  0000              add [bx+si],al
0000015B  0000              add [bx+si],al
0000015D  0000              add [bx+si],al
0000015F  0000              add [bx+si],al
00000161  0000              add [bx+si],al
00000163  0000              add [bx+si],al
00000165  0000              add [bx+si],al
00000167  0000              add [bx+si],al
00000169  0000              add [bx+si],al
0000016B  0000              add [bx+si],al
0000016D  0000              add [bx+si],al
0000016F  0000              add [bx+si],al
00000171  0000              add [bx+si],al
00000173  0000              add [bx+si],al
00000175  0000              add [bx+si],al
00000177  0000              add [bx+si],al
00000179  0000              add [bx+si],al
0000017B  0000              add [bx+si],al
0000017D  0000              add [bx+si],al
0000017F  0000              add [bx+si],al
00000181  0000              add [bx+si],al
00000183  0000              add [bx+si],al
00000185  0000              add [bx+si],al
00000187  0000              add [bx+si],al
00000189  0000              add [bx+si],al
0000018B  0000              add [bx+si],al
0000018D  0000              add [bx+si],al
0000018F  0000              add [bx+si],al
00000191  0000              add [bx+si],al
00000193  0000              add [bx+si],al
00000195  0000              add [bx+si],al
00000197  0000              add [bx+si],al
00000199  0000              add [bx+si],al
0000019B  0000              add [bx+si],al
0000019D  0000              add [bx+si],al
0000019F  0000              add [bx+si],al
000001A1  0000              add [bx+si],al
000001A3  0000              add [bx+si],al
000001A5  0000              add [bx+si],al
000001A7  0000              add [bx+si],al
000001A9  0000              add [bx+si],al
000001AB  0000              add [bx+si],al
000001AD  0000              add [bx+si],al
000001AF  0000              add [bx+si],al
000001B1  0000              add [bx+si],al
000001B3  0000              add [bx+si],al
000001B5  0000              add [bx+si],al
000001B7  0000              add [bx+si],al
000001B9  0000              add [bx+si],al
000001BB  0000              add [bx+si],al
000001BD  0000              add [bx+si],al
000001BF  0000              add [bx+si],al
000001C1  0000              add [bx+si],al
000001C3  0000              add [bx+si],al
000001C5  0000              add [bx+si],al
000001C7  0000              add [bx+si],al
000001C9  0000              add [bx+si],al
000001CB  0000              add [bx+si],al
000001CD  0000              add [bx+si],al
000001CF  0000              add [bx+si],al
000001D1  0000              add [bx+si],al
000001D3  0000              add [bx+si],al
000001D5  0000              add [bx+si],al
000001D7  0000              add [bx+si],al
000001D9  0000              add [bx+si],al
000001DB  0000              add [bx+si],al
000001DD  0000              add [bx+si],al
000001DF  0000              add [bx+si],al
000001E1  0000              add [bx+si],al
000001E3  0000              add [bx+si],al
000001E5  0000              add [bx+si],al
000001E7  0000              add [bx+si],al
000001E9  0000              add [bx+si],al
000001EB  0000              add [bx+si],al
000001ED  0000              add [bx+si],al
000001EF  0000              add [bx+si],al
000001F1  0000              add [bx+si],al
000001F3  0000              add [bx+si],al
000001F5  0000              add [bx+si],al
000001F7  0000              add [bx+si],al
000001F9  0000              add [bx+si],al
000001FB  0000              add [bx+si],al
000001FD  0000              add [bx+si],al
000001FF  0000              add [bx+si],al
00000201  0000              add [bx+si],al
00000203  0000              add [bx+si],al
00000205  0000              add [bx+si],al
00000207  0000              add [bx+si],al
00000209  0000              add [bx+si],al
0000020B  0000              add [bx+si],al
0000020D  0000              add [bx+si],al
0000020F  0000              add [bx+si],al
00000211  0000              add [bx+si],al
00000213  0000              add [bx+si],al
00000215  0000              add [bx+si],al
00000217  0000              add [bx+si],al
00000219  0000              add [bx+si],al
0000021B  0000              add [bx+si],al
0000021D  0000              add [bx+si],al
0000021F  0000              add [bx+si],al
00000221  0000              add [bx+si],al
00000223  0000              add [bx+si],al
00000225  0000              add [bx+si],al
00000227  0000              add [bx+si],al
00000229  0000              add [bx+si],al
0000022B  0000              add [bx+si],al
0000022D  0000              add [bx+si],al
0000022F  0000              add [bx+si],al
00000231  0000              add [bx+si],al
00000233  0000              add [bx+si],al
00000235  0000              add [bx+si],al
00000237  0000              add [bx+si],al
00000239  0000              add [bx+si],al
0000023B  0000              add [bx+si],al
0000023D  0000              add [bx+si],al
0000023F  0000              add [bx+si],al
00000241  0000              add [bx+si],al
00000243  0000              add [bx+si],al
00000245  0000              add [bx+si],al
00000247  0000              add [bx+si],al
00000249  0000              add [bx+si],al
0000024B  0000              add [bx+si],al
0000024D  0000              add [bx+si],al
0000024F  0000              add [bx+si],al
00000251  0000              add [bx+si],al
00000253  0000              add [bx+si],al
00000255  0000              add [bx+si],al
00000257  0000              add [bx+si],al
00000259  0000              add [bx+si],al
0000025B  0000              add [bx+si],al
0000025D  0000              add [bx+si],al
0000025F  0000              add [bx+si],al
00000261  0000              add [bx+si],al
00000263  0000              add [bx+si],al
00000265  0000              add [bx+si],al
00000267  0000              add [bx+si],al
00000269  0000              add [bx+si],al
0000026B  0000              add [bx+si],al
0000026D  0000              add [bx+si],al
0000026F  0000              add [bx+si],al
00000271  0000              add [bx+si],al
00000273  0000              add [bx+si],al
00000275  0000              add [bx+si],al
00000277  0000              add [bx+si],al
00000279  0000              add [bx+si],al
0000027B  0000              add [bx+si],al
0000027D  0000              add [bx+si],al
0000027F  0000              add [bx+si],al
00000281  0000              add [bx+si],al
00000283  0000              add [bx+si],al
00000285  0000              add [bx+si],al
00000287  0000              add [bx+si],al
00000289  0000              add [bx+si],al
0000028B  0000              add [bx+si],al
0000028D  0000              add [bx+si],al
0000028F  0000              add [bx+si],al
00000291  0000              add [bx+si],al
00000293  0000              add [bx+si],al
00000295  0000              add [bx+si],al
00000297  0000              add [bx+si],al
00000299  0000              add [bx+si],al
0000029B  0000              add [bx+si],al
0000029D  0000              add [bx+si],al
0000029F  0000              add [bx+si],al
000002A1  0000              add [bx+si],al
000002A3  0000              add [bx+si],al
000002A5  0000              add [bx+si],al
000002A7  0000              add [bx+si],al
000002A9  0000              add [bx+si],al
000002AB  0000              add [bx+si],al
000002AD  0000              add [bx+si],al
000002AF  0000              add [bx+si],al
000002B1  0000              add [bx+si],al
000002B3  0000              add [bx+si],al
000002B5  0000              add [bx+si],al
000002B7  0000              add [bx+si],al
000002B9  0000              add [bx+si],al
000002BB  0000              add [bx+si],al
000002BD  0000              add [bx+si],al
000002BF  0000              add [bx+si],al
000002C1  0000              add [bx+si],al
000002C3  0000              add [bx+si],al
000002C5  0000              add [bx+si],al
000002C7  0000              add [bx+si],al
000002C9  0000              add [bx+si],al
000002CB  0000              add [bx+si],al
000002CD  0000              add [bx+si],al
000002CF  0000              add [bx+si],al
000002D1  0000              add [bx+si],al
000002D3  0000              add [bx+si],al
000002D5  0000              add [bx+si],al
000002D7  0000              add [bx+si],al
000002D9  0000              add [bx+si],al
000002DB  0000              add [bx+si],al
000002DD  0000              add [bx+si],al
000002DF  0000              add [bx+si],al
000002E1  0000              add [bx+si],al
000002E3  0000              add [bx+si],al
000002E5  0000              add [bx+si],al
000002E7  0000              add [bx+si],al
000002E9  0000              add [bx+si],al
000002EB  0000              add [bx+si],al
000002ED  0000              add [bx+si],al
000002EF  0000              add [bx+si],al
000002F1  0000              add [bx+si],al
000002F3  0000              add [bx+si],al
000002F5  0000              add [bx+si],al
000002F7  0000              add [bx+si],al
000002F9  0000              add [bx+si],al
000002FB  0000              add [bx+si],al
000002FD  0000              add [bx+si],al
000002FF  0000              add [bx+si],al
00000301  0000              add [bx+si],al
00000303  0000              add [bx+si],al
00000305  0000              add [bx+si],al
00000307  0000              add [bx+si],al
00000309  0000              add [bx+si],al
0000030B  0000              add [bx+si],al
0000030D  0000              add [bx+si],al
0000030F  0000              add [bx+si],al
00000311  0000              add [bx+si],al
00000313  0000              add [bx+si],al
00000315  0000              add [bx+si],al
00000317  0000              add [bx+si],al
00000319  0000              add [bx+si],al
0000031B  0000              add [bx+si],al
0000031D  0000              add [bx+si],al
0000031F  0000              add [bx+si],al
00000321  0000              add [bx+si],al
00000323  0000              add [bx+si],al
00000325  0000              add [bx+si],al
00000327  0000              add [bx+si],al
00000329  0000              add [bx+si],al
0000032B  0000              add [bx+si],al
0000032D  0000              add [bx+si],al
0000032F  0000              add [bx+si],al
00000331  0000              add [bx+si],al
00000333  0000              add [bx+si],al
00000335  0000              add [bx+si],al
00000337  0000              add [bx+si],al
00000339  0000              add [bx+si],al
0000033B  0000              add [bx+si],al
0000033D  0000              add [bx+si],al
0000033F  0000              add [bx+si],al
00000341  0000              add [bx+si],al
00000343  0000              add [bx+si],al
00000345  0000              add [bx+si],al
00000347  0000              add [bx+si],al
00000349  0000              add [bx+si],al
0000034B  0000              add [bx+si],al
0000034D  0000              add [bx+si],al
0000034F  0000              add [bx+si],al
00000351  0000              add [bx+si],al
00000353  0000              add [bx+si],al
00000355  0000              add [bx+si],al
00000357  0000              add [bx+si],al
00000359  0000              add [bx+si],al
0000035B  0000              add [bx+si],al
0000035D  0000              add [bx+si],al
0000035F  0000              add [bx+si],al
00000361  0000              add [bx+si],al
00000363  0000              add [bx+si],al
00000365  0000              add [bx+si],al
00000367  0000              add [bx+si],al
00000369  0000              add [bx+si],al
0000036B  0000              add [bx+si],al
0000036D  0000              add [bx+si],al
0000036F  0000              add [bx+si],al
00000371  0000              add [bx+si],al
00000373  0000              add [bx+si],al
00000375  0000              add [bx+si],al
00000377  0000              add [bx+si],al
00000379  0000              add [bx+si],al
0000037B  0000              add [bx+si],al
0000037D  0000              add [bx+si],al
0000037F  0000              add [bx+si],al
00000381  0000              add [bx+si],al
00000383  0000              add [bx+si],al
00000385  0000              add [bx+si],al
00000387  0000              add [bx+si],al
00000389  0000              add [bx+si],al
0000038B  0000              add [bx+si],al
0000038D  0000              add [bx+si],al
0000038F  0000              add [bx+si],al
00000391  0000              add [bx+si],al
00000393  0000              add [bx+si],al
00000395  0000              add [bx+si],al
00000397  0000              add [bx+si],al
00000399  0000              add [bx+si],al
0000039B  0000              add [bx+si],al
0000039D  0000              add [bx+si],al
0000039F  0000              add [bx+si],al
000003A1  0000              add [bx+si],al
000003A3  0000              add [bx+si],al
000003A5  0000              add [bx+si],al
000003A7  0000              add [bx+si],al
000003A9  0000              add [bx+si],al
000003AB  0000              add [bx+si],al
000003AD  0000              add [bx+si],al
000003AF  0000              add [bx+si],al
000003B1  0000              add [bx+si],al
000003B3  0000              add [bx+si],al
000003B5  0000              add [bx+si],al
000003B7  0000              add [bx+si],al
000003B9  0000              add [bx+si],al
000003BB  0000              add [bx+si],al
000003BD  0000              add [bx+si],al
000003BF  0000              add [bx+si],al
000003C1  0000              add [bx+si],al
000003C3  0000              add [bx+si],al
000003C5  0000              add [bx+si],al
000003C7  0000              add [bx+si],al
000003C9  0000              add [bx+si],al
000003CB  0000              add [bx+si],al
000003CD  0000              add [bx+si],al
000003CF  0000              add [bx+si],al
000003D1  0000              add [bx+si],al
000003D3  0000              add [bx+si],al
000003D5  0000              add [bx+si],al
000003D7  0000              add [bx+si],al
000003D9  0000              add [bx+si],al
000003DB  0000              add [bx+si],al
000003DD  0000              add [bx+si],al
000003DF  0000              add [bx+si],al
000003E1  0000              add [bx+si],al
000003E3  0000              add [bx+si],al
000003E5  0000              add [bx+si],al
000003E7  0000              add [bx+si],al
000003E9  0000              add [bx+si],al
000003EB  0000              add [bx+si],al
000003ED  0000              add [bx+si],al
000003EF  0000              add [bx+si],al
000003F1  0000              add [bx+si],al
000003F3  0000              add [bx+si],al
000003F5  0000              add [bx+si],al
000003F7  0000              add [bx+si],al
000003F9  0000              add [bx+si],al
000003FB  0000              add [bx+si],al
000003FD  0000              add [bx+si],al
000003FF  0000              add [bx+si],al
00000401  0000              add [bx+si],al
00000403  0000              add [bx+si],al
00000405  0000              add [bx+si],al
00000407  0000              add [bx+si],al
00000409  0000              add [bx+si],al
0000040B  0000              add [bx+si],al
0000040D  0000              add [bx+si],al
0000040F  0000              add [bx+si],al
00000411  0000              add [bx+si],al
00000413  0000              add [bx+si],al
00000415  0000              add [bx+si],al
00000417  0000              add [bx+si],al
00000419  0000              add [bx+si],al
0000041B  0000              add [bx+si],al
0000041D  0000              add [bx+si],al
0000041F  0000              add [bx+si],al
00000421  0000              add [bx+si],al
00000423  0000              add [bx+si],al
00000425  0000              add [bx+si],al
00000427  0000              add [bx+si],al
00000429  0000              add [bx+si],al
0000042B  0000              add [bx+si],al
0000042D  0000              add [bx+si],al
0000042F  0000              add [bx+si],al
00000431  0000              add [bx+si],al
00000433  0000              add [bx+si],al
00000435  0000              add [bx+si],al
00000437  0000              add [bx+si],al
00000439  0000              add [bx+si],al
0000043B  0000              add [bx+si],al
0000043D  0000              add [bx+si],al
0000043F  0000              add [bx+si],al
00000441  0000              add [bx+si],al
00000443  0000              add [bx+si],al
00000445  0000              add [bx+si],al
00000447  0000              add [bx+si],al
00000449  0000              add [bx+si],al
0000044B  0000              add [bx+si],al
0000044D  0000              add [bx+si],al
0000044F  0000              add [bx+si],al
00000451  0000              add [bx+si],al
00000453  0000              add [bx+si],al
00000455  0000              add [bx+si],al
00000457  0000              add [bx+si],al
00000459  0000              add [bx+si],al
0000045B  0000              add [bx+si],al
0000045D  0000              add [bx+si],al
0000045F  0000              add [bx+si],al
00000461  0000              add [bx+si],al
00000463  0000              add [bx+si],al
00000465  0000              add [bx+si],al
00000467  0000              add [bx+si],al
00000469  0000              add [bx+si],al
0000046B  0000              add [bx+si],al
0000046D  0000              add [bx+si],al
0000046F  0000              add [bx+si],al
00000471  0000              add [bx+si],al
00000473  0000              add [bx+si],al
00000475  0000              add [bx+si],al
00000477  0000              add [bx+si],al
00000479  0000              add [bx+si],al
0000047B  0000              add [bx+si],al
0000047D  0000              add [bx+si],al
0000047F  0000              add [bx+si],al
00000481  0000              add [bx+si],al
00000483  0000              add [bx+si],al
00000485  0000              add [bx+si],al
00000487  0000              add [bx+si],al
00000489  0000              add [bx+si],al
0000048B  0000              add [bx+si],al
0000048D  0000              add [bx+si],al
0000048F  0000              add [bx+si],al
00000491  0000              add [bx+si],al
00000493  0000              add [bx+si],al
00000495  0000              add [bx+si],al
00000497  0000              add [bx+si],al
00000499  0000              add [bx+si],al
0000049B  0000              add [bx+si],al
0000049D  0000              add [bx+si],al
0000049F  0000              add [bx+si],al
000004A1  0000              add [bx+si],al
000004A3  0000              add [bx+si],al
000004A5  0000              add [bx+si],al
000004A7  0000              add [bx+si],al
000004A9  0000              add [bx+si],al
000004AB  0000              add [bx+si],al
000004AD  0000              add [bx+si],al
000004AF  0000              add [bx+si],al
000004B1  0000              add [bx+si],al
000004B3  0000              add [bx+si],al
000004B5  0000              add [bx+si],al
000004B7  0000              add [bx+si],al
000004B9  0000              add [bx+si],al
000004BB  0000              add [bx+si],al
000004BD  0000              add [bx+si],al
000004BF  0000              add [bx+si],al
000004C1  0000              add [bx+si],al
000004C3  0000              add [bx+si],al
000004C5  0000              add [bx+si],al
000004C7  0000              add [bx+si],al
000004C9  0000              add [bx+si],al
000004CB  0000              add [bx+si],al
000004CD  0000              add [bx+si],al
000004CF  0000              add [bx+si],al
000004D1  0000              add [bx+si],al
000004D3  0000              add [bx+si],al
000004D5  0000              add [bx+si],al
000004D7  0000              add [bx+si],al
000004D9  0000              add [bx+si],al
000004DB  0000              add [bx+si],al
000004DD  0000              add [bx+si],al
000004DF  0000              add [bx+si],al
000004E1  0000              add [bx+si],al
000004E3  0000              add [bx+si],al
000004E5  0000              add [bx+si],al
000004E7  0000              add [bx+si],al
000004E9  0000              add [bx+si],al
000004EB  0000              add [bx+si],al
000004ED  0000              add [bx+si],al
000004EF  0000              add [bx+si],al
000004F1  0000              add [bx+si],al
000004F3  0000              add [bx+si],al
000004F5  0000              add [bx+si],al
000004F7  0000              add [bx+si],al
000004F9  0000              add [bx+si],al
000004FB  0000              add [bx+si],al
000004FD  0000              add [bx+si],al
000004FF  0000              add [bx+si],al
00000501  0000              add [bx+si],al
00000503  0000              add [bx+si],al
00000505  0000              add [bx+si],al
00000507  0000              add [bx+si],al
00000509  0000              add [bx+si],al
0000050B  0000              add [bx+si],al
0000050D  0000              add [bx+si],al
0000050F  0000              add [bx+si],al
00000511  0000              add [bx+si],al
00000513  0000              add [bx+si],al
00000515  0000              add [bx+si],al
00000517  0000              add [bx+si],al
00000519  0000              add [bx+si],al
0000051B  0000              add [bx+si],al
0000051D  0000              add [bx+si],al
0000051F  0000              add [bx+si],al
00000521  0000              add [bx+si],al
00000523  0000              add [bx+si],al
00000525  0000              add [bx+si],al
00000527  0000              add [bx+si],al
00000529  0000              add [bx+si],al
0000052B  0000              add [bx+si],al
0000052D  0000              add [bx+si],al
0000052F  0000              add [bx+si],al
00000531  0000              add [bx+si],al
00000533  0000              add [bx+si],al
00000535  0000              add [bx+si],al
00000537  0000              add [bx+si],al
00000539  0000              add [bx+si],al
0000053B  0000              add [bx+si],al
0000053D  0000              add [bx+si],al
0000053F  0000              add [bx+si],al
00000541  0000              add [bx+si],al
00000543  0000              add [bx+si],al
00000545  0000              add [bx+si],al
00000547  0000              add [bx+si],al
00000549  0000              add [bx+si],al
0000054B  0000              add [bx+si],al
0000054D  0000              add [bx+si],al
0000054F  0000              add [bx+si],al
00000551  0000              add [bx+si],al
00000553  0000              add [bx+si],al
00000555  0000              add [bx+si],al
00000557  0000              add [bx+si],al
00000559  0000              add [bx+si],al
0000055B  0000              add [bx+si],al
0000055D  0000              add [bx+si],al
0000055F  0000              add [bx+si],al
00000561  0000              add [bx+si],al
00000563  0000              add [bx+si],al
00000565  0000              add [bx+si],al
00000567  0000              add [bx+si],al
00000569  0000              add [bx+si],al
0000056B  0000              add [bx+si],al
0000056D  0000              add [bx+si],al
0000056F  0000              add [bx+si],al
00000571  0000              add [bx+si],al
00000573  0000              add [bx+si],al
00000575  0000              add [bx+si],al
00000577  0000              add [bx+si],al
00000579  0000              add [bx+si],al
0000057B  0000              add [bx+si],al
0000057D  0000              add [bx+si],al
0000057F  0000              add [bx+si],al
00000581  0000              add [bx+si],al
00000583  0000              add [bx+si],al
00000585  0000              add [bx+si],al
00000587  0000              add [bx+si],al
00000589  0000              add [bx+si],al
0000058B  0000              add [bx+si],al
0000058D  0000              add [bx+si],al
0000058F  0000              add [bx+si],al
00000591  0000              add [bx+si],al
00000593  0000              add [bx+si],al
00000595  0000              add [bx+si],al
00000597  0000              add [bx+si],al
00000599  0000              add [bx+si],al
0000059B  0000              add [bx+si],al
0000059D  0000              add [bx+si],al
0000059F  0000              add [bx+si],al
000005A1  0000              add [bx+si],al
000005A3  0000              add [bx+si],al
000005A5  0000              add [bx+si],al
000005A7  0000              add [bx+si],al
000005A9  0000              add [bx+si],al
000005AB  0000              add [bx+si],al
000005AD  0000              add [bx+si],al
000005AF  0000              add [bx+si],al
000005B1  0000              add [bx+si],al
000005B3  0000              add [bx+si],al
000005B5  0000              add [bx+si],al
000005B7  0000              add [bx+si],al
000005B9  0000              add [bx+si],al
000005BB  0000              add [bx+si],al
000005BD  0000              add [bx+si],al
000005BF  0000              add [bx+si],al
000005C1  0000              add [bx+si],al
000005C3  0000              add [bx+si],al
000005C5  0000              add [bx+si],al
000005C7  0000              add [bx+si],al
000005C9  0000              add [bx+si],al
000005CB  0000              add [bx+si],al
000005CD  0000              add [bx+si],al
000005CF  0000              add [bx+si],al
000005D1  0000              add [bx+si],al
000005D3  0000              add [bx+si],al
000005D5  0000              add [bx+si],al
000005D7  0000              add [bx+si],al
000005D9  0000              add [bx+si],al
000005DB  0000              add [bx+si],al
000005DD  0000              add [bx+si],al
000005DF  0000              add [bx+si],al
000005E1  0000              add [bx+si],al
000005E3  0000              add [bx+si],al
000005E5  0000              add [bx+si],al
000005E7  0000              add [bx+si],al
000005E9  0000              add [bx+si],al
000005EB  0000              add [bx+si],al
000005ED  0000              add [bx+si],al
000005EF  0000              add [bx+si],al
000005F1  0000              add [bx+si],al
000005F3  0000              add [bx+si],al
000005F5  0000              add [bx+si],al
000005F7  0000              add [bx+si],al
000005F9  0000              add [bx+si],al
000005FB  0000              add [bx+si],al
000005FD  0000              add [bx+si],al
000005FF  0000              add [bx+si],al
00000601  0000              add [bx+si],al
00000603  0000              add [bx+si],al
00000605  0000              add [bx+si],al
00000607  0000              add [bx+si],al
00000609  0000              add [bx+si],al
0000060B  0000              add [bx+si],al
0000060D  0000              add [bx+si],al
0000060F  0000              add [bx+si],al
00000611  0000              add [bx+si],al
00000613  0000              add [bx+si],al
00000615  0000              add [bx+si],al
00000617  0000              add [bx+si],al
00000619  0000              add [bx+si],al
0000061B  0000              add [bx+si],al
0000061D  0000              add [bx+si],al
0000061F  0000              add [bx+si],al
00000621  0000              add [bx+si],al
00000623  0000              add [bx+si],al
00000625  0000              add [bx+si],al
00000627  0000              add [bx+si],al
00000629  0000              add [bx+si],al
0000062B  0000              add [bx+si],al
0000062D  0000              add [bx+si],al
0000062F  0000              add [bx+si],al
00000631  0000              add [bx+si],al
00000633  0000              add [bx+si],al
00000635  0000              add [bx+si],al
00000637  0000              add [bx+si],al
00000639  0000              add [bx+si],al
0000063B  0000              add [bx+si],al
0000063D  0000              add [bx+si],al
0000063F  0000              add [bx+si],al
00000641  0000              add [bx+si],al
00000643  0000              add [bx+si],al
00000645  0000              add [bx+si],al
00000647  0000              add [bx+si],al
00000649  0000              add [bx+si],al
0000064B  0000              add [bx+si],al
0000064D  0000              add [bx+si],al
0000064F  0000              add [bx+si],al
00000651  0000              add [bx+si],al
00000653  0000              add [bx+si],al
00000655  0000              add [bx+si],al
00000657  0000              add [bx+si],al
00000659  0000              add [bx+si],al
0000065B  0000              add [bx+si],al
0000065D  0000              add [bx+si],al
0000065F  0000              add [bx+si],al
00000661  0000              add [bx+si],al
00000663  0000              add [bx+si],al
00000665  0000              add [bx+si],al
00000667  0000              add [bx+si],al
00000669  0000              add [bx+si],al
0000066B  0000              add [bx+si],al
0000066D  0000              add [bx+si],al
0000066F  0000              add [bx+si],al
00000671  0000              add [bx+si],al
00000673  0000              add [bx+si],al
00000675  0000              add [bx+si],al
00000677  0000              add [bx+si],al
00000679  0000              add [bx+si],al
0000067B  0000              add [bx+si],al
0000067D  0000              add [bx+si],al
0000067F  0000              add [bx+si],al
00000681  0000              add [bx+si],al
00000683  0000              add [bx+si],al
00000685  0000              add [bx+si],al
00000687  0000              add [bx+si],al
00000689  0000              add [bx+si],al
0000068B  0000              add [bx+si],al
0000068D  0000              add [bx+si],al
0000068F  0000              add [bx+si],al
00000691  0000              add [bx+si],al
00000693  0000              add [bx+si],al
00000695  0000              add [bx+si],al
00000697  0000              add [bx+si],al
00000699  0000              add [bx+si],al
0000069B  0000              add [bx+si],al
0000069D  0000              add [bx+si],al
0000069F  0000              add [bx+si],al
000006A1  0000              add [bx+si],al
000006A3  0000              add [bx+si],al
000006A5  0000              add [bx+si],al
000006A7  0000              add [bx+si],al
000006A9  0000              add [bx+si],al
000006AB  0000              add [bx+si],al
000006AD  0000              add [bx+si],al
000006AF  0000              add [bx+si],al
000006B1  0000              add [bx+si],al
000006B3  0000              add [bx+si],al
000006B5  0000              add [bx+si],al
000006B7  0000              add [bx+si],al
000006B9  0000              add [bx+si],al
000006BB  0000              add [bx+si],al
000006BD  0000              add [bx+si],al
000006BF  0000              add [bx+si],al
000006C1  0000              add [bx+si],al
000006C3  0000              add [bx+si],al
000006C5  0000              add [bx+si],al
000006C7  0000              add [bx+si],al
000006C9  0000              add [bx+si],al
000006CB  0000              add [bx+si],al
000006CD  0000              add [bx+si],al
000006CF  0000              add [bx+si],al
000006D1  0000              add [bx+si],al
000006D3  0000              add [bx+si],al
000006D5  0000              add [bx+si],al
000006D7  0000              add [bx+si],al
000006D9  0000              add [bx+si],al
000006DB  0000              add [bx+si],al
000006DD  0000              add [bx+si],al
000006DF  0000              add [bx+si],al
000006E1  0000              add [bx+si],al
000006E3  0000              add [bx+si],al
000006E5  0000              add [bx+si],al
000006E7  0000              add [bx+si],al
000006E9  0000              add [bx+si],al
000006EB  0000              add [bx+si],al
000006ED  0000              add [bx+si],al
000006EF  0000              add [bx+si],al
000006F1  0000              add [bx+si],al
000006F3  0000              add [bx+si],al
000006F5  0000              add [bx+si],al
000006F7  0000              add [bx+si],al
000006F9  0000              add [bx+si],al
000006FB  0000              add [bx+si],al
000006FD  0000              add [bx+si],al
000006FF  0000              add [bx+si],al
00000701  0000              add [bx+si],al
00000703  0000              add [bx+si],al
00000705  0000              add [bx+si],al
00000707  0000              add [bx+si],al
00000709  0000              add [bx+si],al
0000070B  0000              add [bx+si],al
0000070D  0000              add [bx+si],al
0000070F  0000              add [bx+si],al
00000711  0000              add [bx+si],al
00000713  0000              add [bx+si],al
00000715  0000              add [bx+si],al
00000717  0000              add [bx+si],al
00000719  0000              add [bx+si],al
0000071B  0000              add [bx+si],al
0000071D  0000              add [bx+si],al
0000071F  0000              add [bx+si],al
00000721  0000              add [bx+si],al
00000723  0000              add [bx+si],al
00000725  0000              add [bx+si],al
00000727  0000              add [bx+si],al
00000729  0000              add [bx+si],al
0000072B  0000              add [bx+si],al
0000072D  0000              add [bx+si],al
0000072F  0000              add [bx+si],al
00000731  0000              add [bx+si],al
00000733  0000              add [bx+si],al
00000735  0000              add [bx+si],al
00000737  0000              add [bx+si],al
00000739  0000              add [bx+si],al
0000073B  0000              add [bx+si],al
0000073D  0000              add [bx+si],al
0000073F  0000              add [bx+si],al
00000741  0000              add [bx+si],al
00000743  0000              add [bx+si],al
00000745  0000              add [bx+si],al
00000747  0000              add [bx+si],al
00000749  0000              add [bx+si],al
0000074B  0000              add [bx+si],al
0000074D  0000              add [bx+si],al
0000074F  0000              add [bx+si],al
00000751  0000              add [bx+si],al
00000753  0000              add [bx+si],al
00000755  0000              add [bx+si],al
00000757  0000              add [bx+si],al
00000759  0000              add [bx+si],al
0000075B  0000              add [bx+si],al
0000075D  0000              add [bx+si],al
0000075F  0000              add [bx+si],al
00000761  0000              add [bx+si],al
00000763  0000              add [bx+si],al
00000765  0000              add [bx+si],al
00000767  0000              add [bx+si],al
00000769  0000              add [bx+si],al
0000076B  0000              add [bx+si],al
0000076D  0000              add [bx+si],al
0000076F  0000              add [bx+si],al
00000771  0000              add [bx+si],al
00000773  0000              add [bx+si],al
00000775  0000              add [bx+si],al
00000777  0000              add [bx+si],al
00000779  0000              add [bx+si],al
0000077B  0000              add [bx+si],al
0000077D  0000              add [bx+si],al
0000077F  0000              add [bx+si],al
00000781  0000              add [bx+si],al
00000783  0000              add [bx+si],al
00000785  0000              add [bx+si],al
00000787  0000              add [bx+si],al
00000789  0000              add [bx+si],al
0000078B  0000              add [bx+si],al
0000078D  0000              add [bx+si],al
0000078F  0000              add [bx+si],al
00000791  0000              add [bx+si],al
00000793  0000              add [bx+si],al
00000795  0000              add [bx+si],al
00000797  0000              add [bx+si],al
00000799  0000              add [bx+si],al
0000079B  0000              add [bx+si],al
0000079D  0000              add [bx+si],al
0000079F  0000              add [bx+si],al
000007A1  0000              add [bx+si],al
000007A3  0000              add [bx+si],al
000007A5  0000              add [bx+si],al
000007A7  0000              add [bx+si],al
000007A9  0000              add [bx+si],al
000007AB  0000              add [bx+si],al
000007AD  0000              add [bx+si],al
000007AF  0000              add [bx+si],al
000007B1  0000              add [bx+si],al
000007B3  0000              add [bx+si],al
000007B5  0000              add [bx+si],al
000007B7  0000              add [bx+si],al
000007B9  0000              add [bx+si],al
000007BB  0000              add [bx+si],al
000007BD  0000              add [bx+si],al
000007BF  0000              add [bx+si],al
000007C1  0000              add [bx+si],al
000007C3  0000              add [bx+si],al
000007C5  0000              add [bx+si],al
000007C7  0000              add [bx+si],al
000007C9  0000              add [bx+si],al
000007CB  0000              add [bx+si],al
000007CD  0000              add [bx+si],al
000007CF  0000              add [bx+si],al
000007D1  0000              add [bx+si],al
000007D3  0000              add [bx+si],al
000007D5  0000              add [bx+si],al
000007D7  0000              add [bx+si],al
000007D9  0000              add [bx+si],al
000007DB  0000              add [bx+si],al
000007DD  0000              add [bx+si],al
000007DF  0000              add [bx+si],al
000007E1  0000              add [bx+si],al
000007E3  0000              add [bx+si],al
000007E5  0000              add [bx+si],al
000007E7  0000              add [bx+si],al
000007E9  0000              add [bx+si],al
000007EB  0000              add [bx+si],al
000007ED  0000              add [bx+si],al
000007EF  0000              add [bx+si],al
000007F1  0000              add [bx+si],al
000007F3  0000              add [bx+si],al
000007F5  0000              add [bx+si],al
000007F7  0000              add [bx+si],al
000007F9  0000              add [bx+si],al
000007FB  0000              add [bx+si],al
000007FD  0000              add [bx+si],al
000007FF  0000              add [bx+si],al
00000801  0000              add [bx+si],al
00000803  0000              add [bx+si],al
00000805  0000              add [bx+si],al
00000807  0000              add [bx+si],al
00000809  0000              add [bx+si],al
0000080B  0000              add [bx+si],al
0000080D  0000              add [bx+si],al
0000080F  0000              add [bx+si],al
00000811  0000              add [bx+si],al
00000813  0000              add [bx+si],al
00000815  0000              add [bx+si],al
00000817  0000              add [bx+si],al
00000819  0000              add [bx+si],al
0000081B  0000              add [bx+si],al
0000081D  0000              add [bx+si],al
0000081F  0000              add [bx+si],al
00000821  0000              add [bx+si],al
00000823  0000              add [bx+si],al
00000825  0000              add [bx+si],al
00000827  0000              add [bx+si],al
00000829  0000              add [bx+si],al
0000082B  0000              add [bx+si],al
0000082D  0000              add [bx+si],al
0000082F  0000              add [bx+si],al
00000831  0000              add [bx+si],al
00000833  0000              add [bx+si],al
00000835  0000              add [bx+si],al
00000837  0000              add [bx+si],al
00000839  0000              add [bx+si],al
0000083B  0000              add [bx+si],al
0000083D  0000              add [bx+si],al
0000083F  0000              add [bx+si],al
00000841  0000              add [bx+si],al
00000843  0000              add [bx+si],al
00000845  0000              add [bx+si],al
00000847  0000              add [bx+si],al
00000849  0000              add [bx+si],al
0000084B  0000              add [bx+si],al
0000084D  0000              add [bx+si],al
0000084F  0000              add [bx+si],al
00000851  0000              add [bx+si],al
00000853  0000              add [bx+si],al
00000855  0000              add [bx+si],al
00000857  0000              add [bx+si],al
00000859  0000              add [bx+si],al
0000085B  0000              add [bx+si],al
0000085D  0000              add [bx+si],al
0000085F  0000              add [bx+si],al
00000861  0000              add [bx+si],al
00000863  0000              add [bx+si],al
00000865  0000              add [bx+si],al
00000867  0000              add [bx+si],al
00000869  0000              add [bx+si],al
0000086B  0000              add [bx+si],al
0000086D  0000              add [bx+si],al
0000086F  0000              add [bx+si],al
00000871  0000              add [bx+si],al
00000873  0000              add [bx+si],al
00000875  0000              add [bx+si],al
00000877  0000              add [bx+si],al
00000879  0000              add [bx+si],al
0000087B  0000              add [bx+si],al
0000087D  0000              add [bx+si],al
0000087F  0000              add [bx+si],al
00000881  0000              add [bx+si],al
00000883  0000              add [bx+si],al
00000885  0000              add [bx+si],al
00000887  0000              add [bx+si],al
00000889  0000              add [bx+si],al
0000088B  0000              add [bx+si],al
0000088D  0000              add [bx+si],al
0000088F  0000              add [bx+si],al
00000891  0000              add [bx+si],al
00000893  0000              add [bx+si],al
00000895  0000              add [bx+si],al
00000897  0000              add [bx+si],al
00000899  0000              add [bx+si],al
0000089B  0000              add [bx+si],al
0000089D  0000              add [bx+si],al
0000089F  0000              add [bx+si],al
000008A1  0000              add [bx+si],al
000008A3  0000              add [bx+si],al
000008A5  0000              add [bx+si],al
000008A7  0000              add [bx+si],al
000008A9  0000              add [bx+si],al
000008AB  0000              add [bx+si],al
000008AD  0000              add [bx+si],al
000008AF  0000              add [bx+si],al
000008B1  0000              add [bx+si],al
000008B3  0000              add [bx+si],al
000008B5  0000              add [bx+si],al
000008B7  0000              add [bx+si],al
000008B9  0000              add [bx+si],al
000008BB  0000              add [bx+si],al
000008BD  0000              add [bx+si],al
000008BF  0000              add [bx+si],al
000008C1  0000              add [bx+si],al
000008C3  0000              add [bx+si],al
000008C5  0000              add [bx+si],al
000008C7  0000              add [bx+si],al
000008C9  0000              add [bx+si],al
000008CB  0000              add [bx+si],al
000008CD  0000              add [bx+si],al
000008CF  0000              add [bx+si],al
000008D1  0000              add [bx+si],al
000008D3  0000              add [bx+si],al
000008D5  0000              add [bx+si],al
000008D7  0000              add [bx+si],al
000008D9  0000              add [bx+si],al
000008DB  0000              add [bx+si],al
000008DD  0000              add [bx+si],al
000008DF  0000              add [bx+si],al
000008E1  0000              add [bx+si],al
000008E3  0000              add [bx+si],al
000008E5  0000              add [bx+si],al
000008E7  0000              add [bx+si],al
000008E9  0000              add [bx+si],al
000008EB  0000              add [bx+si],al
000008ED  0000              add [bx+si],al
000008EF  0000              add [bx+si],al
000008F1  0000              add [bx+si],al
000008F3  0000              add [bx+si],al
000008F5  0000              add [bx+si],al
000008F7  0000              add [bx+si],al
000008F9  0000              add [bx+si],al
000008FB  0000              add [bx+si],al
000008FD  0000              add [bx+si],al
000008FF  0000              add [bx+si],al
00000901  0000              add [bx+si],al
00000903  0000              add [bx+si],al
00000905  0000              add [bx+si],al
00000907  0000              add [bx+si],al
00000909  0000              add [bx+si],al
0000090B  0000              add [bx+si],al
0000090D  0000              add [bx+si],al
0000090F  0000              add [bx+si],al
00000911  0000              add [bx+si],al
00000913  0000              add [bx+si],al
00000915  0000              add [bx+si],al
00000917  0000              add [bx+si],al
00000919  0000              add [bx+si],al
0000091B  0000              add [bx+si],al
0000091D  0000              add [bx+si],al
0000091F  0000              add [bx+si],al
00000921  0000              add [bx+si],al
00000923  0000              add [bx+si],al
00000925  0000              add [bx+si],al
00000927  0000              add [bx+si],al
00000929  0000              add [bx+si],al
0000092B  0000              add [bx+si],al
0000092D  0000              add [bx+si],al
0000092F  0000              add [bx+si],al
00000931  0000              add [bx+si],al
00000933  0000              add [bx+si],al
00000935  0000              add [bx+si],al
00000937  0000              add [bx+si],al
00000939  0000              add [bx+si],al
0000093B  0000              add [bx+si],al
0000093D  0000              add [bx+si],al
0000093F  0000              add [bx+si],al
00000941  0000              add [bx+si],al
00000943  0000              add [bx+si],al
00000945  0000              add [bx+si],al
00000947  0000              add [bx+si],al
00000949  0000              add [bx+si],al
0000094B  0000              add [bx+si],al
0000094D  0000              add [bx+si],al
0000094F  0000              add [bx+si],al
00000951  0000              add [bx+si],al
00000953  0000              add [bx+si],al
00000955  0000              add [bx+si],al
00000957  0000              add [bx+si],al
00000959  0000              add [bx+si],al
0000095B  0000              add [bx+si],al
0000095D  0000              add [bx+si],al
0000095F  0000              add [bx+si],al
00000961  0000              add [bx+si],al
00000963  0000              add [bx+si],al
00000965  0000              add [bx+si],al
00000967  0000              add [bx+si],al
00000969  0000              add [bx+si],al
0000096B  0000              add [bx+si],al
0000096D  0000              add [bx+si],al
0000096F  0000              add [bx+si],al
00000971  0000              add [bx+si],al
00000973  0000              add [bx+si],al
00000975  0000              add [bx+si],al
00000977  0000              add [bx+si],al
00000979  0000              add [bx+si],al
0000097B  0000              add [bx+si],al
0000097D  0000              add [bx+si],al
0000097F  0000              add [bx+si],al
00000981  0000              add [bx+si],al
00000983  0000              add [bx+si],al
00000985  0000              add [bx+si],al
00000987  0000              add [bx+si],al
00000989  0000              add [bx+si],al
0000098B  0000              add [bx+si],al
0000098D  0000              add [bx+si],al
0000098F  0000              add [bx+si],al
00000991  0000              add [bx+si],al
00000993  0000              add [bx+si],al
00000995  0000              add [bx+si],al
00000997  0000              add [bx+si],al
00000999  0000              add [bx+si],al
0000099B  0000              add [bx+si],al
0000099D  0000              add [bx+si],al
0000099F  0000              add [bx+si],al
000009A1  0000              add [bx+si],al
000009A3  0000              add [bx+si],al
000009A5  0000              add [bx+si],al
000009A7  0000              add [bx+si],al
000009A9  0000              add [bx+si],al
000009AB  0000              add [bx+si],al
000009AD  0000              add [bx+si],al
000009AF  0000              add [bx+si],al
000009B1  0000              add [bx+si],al
000009B3  0000              add [bx+si],al
000009B5  0000              add [bx+si],al
000009B7  0000              add [bx+si],al
000009B9  0000              add [bx+si],al
000009BB  0000              add [bx+si],al
000009BD  0000              add [bx+si],al
000009BF  0000              add [bx+si],al
000009C1  0000              add [bx+si],al
000009C3  0000              add [bx+si],al
000009C5  0000              add [bx+si],al
000009C7  0000              add [bx+si],al
000009C9  0000              add [bx+si],al
000009CB  0000              add [bx+si],al
000009CD  0000              add [bx+si],al
000009CF  0000              add [bx+si],al
000009D1  0000              add [bx+si],al
000009D3  0000              add [bx+si],al
000009D5  0000              add [bx+si],al
000009D7  0000              add [bx+si],al
000009D9  0000              add [bx+si],al
000009DB  0000              add [bx+si],al
000009DD  0000              add [bx+si],al
000009DF  0000              add [bx+si],al
000009E1  0000              add [bx+si],al
000009E3  0000              add [bx+si],al
000009E5  0000              add [bx+si],al
000009E7  0000              add [bx+si],al
000009E9  0000              add [bx+si],al
000009EB  0000              add [bx+si],al
000009ED  0000              add [bx+si],al
000009EF  0000              add [bx+si],al
000009F1  0000              add [bx+si],al
000009F3  0000              add [bx+si],al
000009F5  0000              add [bx+si],al
000009F7  0000              add [bx+si],al
000009F9  0000              add [bx+si],al
000009FB  0000              add [bx+si],al
000009FD  0000              add [bx+si],al
000009FF  0000              add [bx+si],al
00000A01  0000              add [bx+si],al
00000A03  0000              add [bx+si],al
00000A05  0000              add [bx+si],al
00000A07  0000              add [bx+si],al
00000A09  0000              add [bx+si],al
00000A0B  0000              add [bx+si],al
00000A0D  0000              add [bx+si],al
00000A0F  0000              add [bx+si],al
00000A11  0000              add [bx+si],al
00000A13  0000              add [bx+si],al
00000A15  0000              add [bx+si],al
00000A17  0000              add [bx+si],al
00000A19  0000              add [bx+si],al
00000A1B  0000              add [bx+si],al
00000A1D  0000              add [bx+si],al
00000A1F  0000              add [bx+si],al
00000A21  0000              add [bx+si],al
00000A23  0000              add [bx+si],al
00000A25  0000              add [bx+si],al
00000A27  0000              add [bx+si],al
00000A29  0000              add [bx+si],al
00000A2B  0000              add [bx+si],al
00000A2D  0000              add [bx+si],al
00000A2F  0000              add [bx+si],al
00000A31  0000              add [bx+si],al
00000A33  0000              add [bx+si],al
00000A35  0000              add [bx+si],al
00000A37  0000              add [bx+si],al
00000A39  0000              add [bx+si],al
00000A3B  0000              add [bx+si],al
00000A3D  0000              add [bx+si],al
00000A3F  0000              add [bx+si],al
00000A41  0000              add [bx+si],al
00000A43  0000              add [bx+si],al
00000A45  0000              add [bx+si],al
00000A47  0000              add [bx+si],al
00000A49  0000              add [bx+si],al
00000A4B  0000              add [bx+si],al
00000A4D  0000              add [bx+si],al
00000A4F  0000              add [bx+si],al
00000A51  0000              add [bx+si],al
00000A53  0000              add [bx+si],al
00000A55  0000              add [bx+si],al
00000A57  0000              add [bx+si],al
00000A59  0000              add [bx+si],al
00000A5B  0000              add [bx+si],al
00000A5D  0000              add [bx+si],al
00000A5F  0000              add [bx+si],al
00000A61  0000              add [bx+si],al
00000A63  0000              add [bx+si],al
00000A65  0000              add [bx+si],al
00000A67  0000              add [bx+si],al
00000A69  0000              add [bx+si],al
00000A6B  0000              add [bx+si],al
00000A6D  0000              add [bx+si],al
00000A6F  0000              add [bx+si],al
00000A71  0000              add [bx+si],al
00000A73  0000              add [bx+si],al
00000A75  0000              add [bx+si],al
00000A77  0000              add [bx+si],al
00000A79  0000              add [bx+si],al
00000A7B  0000              add [bx+si],al
00000A7D  0000              add [bx+si],al
00000A7F  0000              add [bx+si],al
00000A81  0000              add [bx+si],al
00000A83  0000              add [bx+si],al
00000A85  0000              add [bx+si],al
00000A87  0000              add [bx+si],al
00000A89  0000              add [bx+si],al
00000A8B  0000              add [bx+si],al
00000A8D  0000              add [bx+si],al
00000A8F  0000              add [bx+si],al
00000A91  0000              add [bx+si],al
00000A93  0000              add [bx+si],al
00000A95  0000              add [bx+si],al
00000A97  0000              add [bx+si],al
00000A99  0000              add [bx+si],al
00000A9B  0000              add [bx+si],al
00000A9D  0000              add [bx+si],al
00000A9F  0000              add [bx+si],al
00000AA1  0000              add [bx+si],al
00000AA3  0000              add [bx+si],al
00000AA5  0000              add [bx+si],al
00000AA7  0000              add [bx+si],al
00000AA9  0000              add [bx+si],al
00000AAB  0000              add [bx+si],al
00000AAD  0000              add [bx+si],al
00000AAF  0000              add [bx+si],al
00000AB1  0000              add [bx+si],al
00000AB3  0000              add [bx+si],al
00000AB5  0000              add [bx+si],al
00000AB7  0000              add [bx+si],al
00000AB9  0000              add [bx+si],al
00000ABB  0000              add [bx+si],al
00000ABD  0000              add [bx+si],al
00000ABF  0000              add [bx+si],al
00000AC1  0000              add [bx+si],al
00000AC3  0000              add [bx+si],al
00000AC5  0000              add [bx+si],al
00000AC7  0000              add [bx+si],al
00000AC9  0000              add [bx+si],al
00000ACB  0000              add [bx+si],al
00000ACD  0000              add [bx+si],al
00000ACF  0000              add [bx+si],al
00000AD1  0000              add [bx+si],al
00000AD3  0000              add [bx+si],al
00000AD5  0000              add [bx+si],al
00000AD7  0000              add [bx+si],al
00000AD9  0000              add [bx+si],al
00000ADB  0000              add [bx+si],al
00000ADD  0000              add [bx+si],al
00000ADF  0000              add [bx+si],al
00000AE1  0000              add [bx+si],al
00000AE3  0000              add [bx+si],al
00000AE5  0000              add [bx+si],al
00000AE7  0000              add [bx+si],al
00000AE9  0000              add [bx+si],al
00000AEB  0000              add [bx+si],al
00000AED  0000              add [bx+si],al
00000AEF  0000              add [bx+si],al
00000AF1  0000              add [bx+si],al
00000AF3  0000              add [bx+si],al
00000AF5  0000              add [bx+si],al
00000AF7  0000              add [bx+si],al
00000AF9  0000              add [bx+si],al
00000AFB  0000              add [bx+si],al
00000AFD  0000              add [bx+si],al
00000AFF  0000              add [bx+si],al
00000B01  0000              add [bx+si],al
00000B03  0000              add [bx+si],al
00000B05  0000              add [bx+si],al
00000B07  0000              add [bx+si],al
00000B09  0000              add [bx+si],al
00000B0B  0000              add [bx+si],al
00000B0D  0000              add [bx+si],al
00000B0F  0000              add [bx+si],al
00000B11  0000              add [bx+si],al
00000B13  0000              add [bx+si],al
00000B15  0000              add [bx+si],al
00000B17  0000              add [bx+si],al
00000B19  0000              add [bx+si],al
00000B1B  0000              add [bx+si],al
00000B1D  0000              add [bx+si],al
00000B1F  0000              add [bx+si],al
00000B21  0000              add [bx+si],al
00000B23  0000              add [bx+si],al
00000B25  0000              add [bx+si],al
00000B27  0000              add [bx+si],al
00000B29  0000              add [bx+si],al
00000B2B  0000              add [bx+si],al
00000B2D  0000              add [bx+si],al
00000B2F  0000              add [bx+si],al
00000B31  0000              add [bx+si],al
00000B33  0000              add [bx+si],al
00000B35  0000              add [bx+si],al
00000B37  0000              add [bx+si],al
00000B39  0000              add [bx+si],al
00000B3B  0000              add [bx+si],al
00000B3D  0000              add [bx+si],al
00000B3F  0000              add [bx+si],al
00000B41  0000              add [bx+si],al
00000B43  0000              add [bx+si],al
00000B45  0000              add [bx+si],al
00000B47  0000              add [bx+si],al
00000B49  0000              add [bx+si],al
00000B4B  0000              add [bx+si],al
00000B4D  0000              add [bx+si],al
00000B4F  0000              add [bx+si],al
00000B51  0000              add [bx+si],al
00000B53  0000              add [bx+si],al
00000B55  0000              add [bx+si],al
00000B57  0000              add [bx+si],al
00000B59  0000              add [bx+si],al
00000B5B  0000              add [bx+si],al
00000B5D  0000              add [bx+si],al
00000B5F  0000              add [bx+si],al
00000B61  0000              add [bx+si],al
00000B63  0000              add [bx+si],al
00000B65  0000              add [bx+si],al
00000B67  0000              add [bx+si],al
00000B69  0000              add [bx+si],al
00000B6B  0000              add [bx+si],al
00000B6D  0000              add [bx+si],al
00000B6F  0000              add [bx+si],al
00000B71  0000              add [bx+si],al
00000B73  0000              add [bx+si],al
00000B75  0000              add [bx+si],al
00000B77  0000              add [bx+si],al
00000B79  0000              add [bx+si],al
00000B7B  0000              add [bx+si],al
00000B7D  0000              add [bx+si],al
00000B7F  0000              add [bx+si],al
00000B81  0000              add [bx+si],al
00000B83  0000              add [bx+si],al
00000B85  0000              add [bx+si],al
00000B87  0000              add [bx+si],al
00000B89  0000              add [bx+si],al
00000B8B  0000              add [bx+si],al
00000B8D  0000              add [bx+si],al
00000B8F  0000              add [bx+si],al
00000B91  0000              add [bx+si],al
00000B93  0000              add [bx+si],al
00000B95  0000              add [bx+si],al
00000B97  0000              add [bx+si],al
00000B99  0000              add [bx+si],al
00000B9B  0000              add [bx+si],al
00000B9D  0000              add [bx+si],al
00000B9F  0000              add [bx+si],al
00000BA1  0000              add [bx+si],al
00000BA3  0000              add [bx+si],al
00000BA5  0000              add [bx+si],al
00000BA7  0000              add [bx+si],al
00000BA9  0000              add [bx+si],al
00000BAB  0000              add [bx+si],al
00000BAD  0000              add [bx+si],al
00000BAF  0000              add [bx+si],al
00000BB1  0000              add [bx+si],al
00000BB3  0000              add [bx+si],al
00000BB5  0000              add [bx+si],al
00000BB7  0000              add [bx+si],al
00000BB9  0000              add [bx+si],al
00000BBB  0000              add [bx+si],al
00000BBD  0000              add [bx+si],al
00000BBF  0000              add [bx+si],al
00000BC1  0000              add [bx+si],al
00000BC3  0000              add [bx+si],al
00000BC5  0000              add [bx+si],al
00000BC7  0000              add [bx+si],al
00000BC9  0000              add [bx+si],al
00000BCB  0000              add [bx+si],al
00000BCD  0000              add [bx+si],al
00000BCF  0000              add [bx+si],al
00000BD1  0000              add [bx+si],al
00000BD3  0000              add [bx+si],al
00000BD5  0000              add [bx+si],al
00000BD7  0000              add [bx+si],al
00000BD9  0000              add [bx+si],al
00000BDB  0000              add [bx+si],al
00000BDD  0000              add [bx+si],al
00000BDF  0000              add [bx+si],al
00000BE1  0000              add [bx+si],al
00000BE3  0000              add [bx+si],al
00000BE5  0000              add [bx+si],al
00000BE7  0000              add [bx+si],al
00000BE9  0000              add [bx+si],al
00000BEB  0000              add [bx+si],al
00000BED  0000              add [bx+si],al
00000BEF  0000              add [bx+si],al
00000BF1  0000              add [bx+si],al
00000BF3  0000              add [bx+si],al
00000BF5  0000              add [bx+si],al
00000BF7  0000              add [bx+si],al
00000BF9  0000              add [bx+si],al
00000BFB  0000              add [bx+si],al
00000BFD  0000              add [bx+si],al
00000BFF  0000              add [bx+si],al
00000C01  0000              add [bx+si],al
00000C03  0000              add [bx+si],al
00000C05  0000              add [bx+si],al
00000C07  0000              add [bx+si],al
00000C09  0000              add [bx+si],al
00000C0B  0000              add [bx+si],al
00000C0D  0000              add [bx+si],al
00000C0F  0000              add [bx+si],al
00000C11  0000              add [bx+si],al
00000C13  0000              add [bx+si],al
00000C15  0000              add [bx+si],al
00000C17  0000              add [bx+si],al
00000C19  0000              add [bx+si],al
00000C1B  0000              add [bx+si],al
00000C1D  0000              add [bx+si],al
00000C1F  0000              add [bx+si],al
00000C21  0000              add [bx+si],al
00000C23  0000              add [bx+si],al
00000C25  0000              add [bx+si],al
00000C27  0000              add [bx+si],al
00000C29  0000              add [bx+si],al
00000C2B  0000              add [bx+si],al
00000C2D  0000              add [bx+si],al
00000C2F  0000              add [bx+si],al
00000C31  0000              add [bx+si],al
00000C33  0000              add [bx+si],al
00000C35  0000              add [bx+si],al
00000C37  0000              add [bx+si],al
00000C39  0000              add [bx+si],al
00000C3B  0000              add [bx+si],al
00000C3D  0000              add [bx+si],al
00000C3F  0000              add [bx+si],al
00000C41  0000              add [bx+si],al
00000C43  0000              add [bx+si],al
00000C45  0000              add [bx+si],al
00000C47  0000              add [bx+si],al
00000C49  0000              add [bx+si],al
00000C4B  0000              add [bx+si],al
00000C4D  0000              add [bx+si],al
00000C4F  0000              add [bx+si],al
00000C51  0000              add [bx+si],al
00000C53  0000              add [bx+si],al
00000C55  0000              add [bx+si],al
00000C57  0000              add [bx+si],al
00000C59  0000              add [bx+si],al
00000C5B  0000              add [bx+si],al
00000C5D  0000              add [bx+si],al
00000C5F  0000              add [bx+si],al
00000C61  0000              add [bx+si],al
00000C63  0000              add [bx+si],al
00000C65  0000              add [bx+si],al
00000C67  0000              add [bx+si],al
00000C69  0000              add [bx+si],al
00000C6B  0000              add [bx+si],al
00000C6D  0000              add [bx+si],al
00000C6F  0000              add [bx+si],al
00000C71  0000              add [bx+si],al
00000C73  0000              add [bx+si],al
00000C75  0000              add [bx+si],al
00000C77  0000              add [bx+si],al
00000C79  0000              add [bx+si],al
00000C7B  0000              add [bx+si],al
00000C7D  0000              add [bx+si],al
00000C7F  0000              add [bx+si],al
00000C81  0000              add [bx+si],al
00000C83  0000              add [bx+si],al
00000C85  0000              add [bx+si],al
00000C87  0000              add [bx+si],al
00000C89  0000              add [bx+si],al
00000C8B  0000              add [bx+si],al
00000C8D  0000              add [bx+si],al
00000C8F  0000              add [bx+si],al
00000C91  0000              add [bx+si],al
00000C93  0000              add [bx+si],al
00000C95  0000              add [bx+si],al
00000C97  0000              add [bx+si],al
00000C99  0000              add [bx+si],al
00000C9B  0000              add [bx+si],al
00000C9D  0000              add [bx+si],al
00000C9F  0000              add [bx+si],al
00000CA1  0000              add [bx+si],al
00000CA3  0000              add [bx+si],al
00000CA5  0000              add [bx+si],al
00000CA7  0000              add [bx+si],al
00000CA9  0000              add [bx+si],al
00000CAB  0000              add [bx+si],al
00000CAD  0000              add [bx+si],al
00000CAF  0000              add [bx+si],al
00000CB1  0000              add [bx+si],al
00000CB3  0000              add [bx+si],al
00000CB5  0000              add [bx+si],al
00000CB7  0000              add [bx+si],al
00000CB9  0000              add [bx+si],al
00000CBB  0000              add [bx+si],al
00000CBD  0000              add [bx+si],al
00000CBF  0000              add [bx+si],al
00000CC1  0000              add [bx+si],al
00000CC3  0000              add [bx+si],al
00000CC5  0000              add [bx+si],al
00000CC7  0000              add [bx+si],al
00000CC9  0000              add [bx+si],al
00000CCB  0000              add [bx+si],al
00000CCD  0000              add [bx+si],al
00000CCF  0000              add [bx+si],al
00000CD1  0000              add [bx+si],al
00000CD3  0000              add [bx+si],al
00000CD5  0000              add [bx+si],al
00000CD7  0000              add [bx+si],al
00000CD9  0000              add [bx+si],al
00000CDB  0000              add [bx+si],al
00000CDD  0000              add [bx+si],al
00000CDF  0000              add [bx+si],al
00000CE1  0000              add [bx+si],al
00000CE3  0000              add [bx+si],al
00000CE5  0000              add [bx+si],al
00000CE7  0000              add [bx+si],al
00000CE9  0000              add [bx+si],al
00000CEB  0000              add [bx+si],al
00000CED  0000              add [bx+si],al
00000CEF  0000              add [bx+si],al
00000CF1  0000              add [bx+si],al
00000CF3  0000              add [bx+si],al
00000CF5  0000              add [bx+si],al
00000CF7  0000              add [bx+si],al
00000CF9  0000              add [bx+si],al
00000CFB  0000              add [bx+si],al
00000CFD  0000              add [bx+si],al
00000CFF  0000              add [bx+si],al
00000D01  0000              add [bx+si],al
00000D03  0000              add [bx+si],al
00000D05  0000              add [bx+si],al
00000D07  0000              add [bx+si],al
00000D09  0000              add [bx+si],al
00000D0B  0000              add [bx+si],al
00000D0D  0000              add [bx+si],al
00000D0F  0000              add [bx+si],al
00000D11  0000              add [bx+si],al
00000D13  0000              add [bx+si],al
00000D15  0000              add [bx+si],al
00000D17  0000              add [bx+si],al
00000D19  0000              add [bx+si],al
00000D1B  0000              add [bx+si],al
00000D1D  0000              add [bx+si],al
00000D1F  0000              add [bx+si],al
00000D21  0000              add [bx+si],al
00000D23  0000              add [bx+si],al
00000D25  0000              add [bx+si],al
00000D27  0000              add [bx+si],al
00000D29  0000              add [bx+si],al
00000D2B  0000              add [bx+si],al
00000D2D  0000              add [bx+si],al
00000D2F  0000              add [bx+si],al
00000D31  0000              add [bx+si],al
00000D33  0000              add [bx+si],al
00000D35  0000              add [bx+si],al
00000D37  0000              add [bx+si],al
00000D39  0000              add [bx+si],al
00000D3B  0000              add [bx+si],al
00000D3D  0000              add [bx+si],al
00000D3F  0000              add [bx+si],al
00000D41  0000              add [bx+si],al
00000D43  0000              add [bx+si],al
00000D45  0000              add [bx+si],al
00000D47  0000              add [bx+si],al
00000D49  0000              add [bx+si],al
00000D4B  0000              add [bx+si],al
00000D4D  0000              add [bx+si],al
00000D4F  0000              add [bx+si],al
00000D51  0000              add [bx+si],al
00000D53  0000              add [bx+si],al
00000D55  0000              add [bx+si],al
00000D57  0000              add [bx+si],al
00000D59  0000              add [bx+si],al
00000D5B  0000              add [bx+si],al
00000D5D  0000              add [bx+si],al
00000D5F  0000              add [bx+si],al
00000D61  0000              add [bx+si],al
00000D63  0000              add [bx+si],al
00000D65  0000              add [bx+si],al
00000D67  0000              add [bx+si],al
00000D69  0000              add [bx+si],al
00000D6B  0000              add [bx+si],al
00000D6D  0000              add [bx+si],al
00000D6F  0000              add [bx+si],al
00000D71  0000              add [bx+si],al
00000D73  0000              add [bx+si],al
00000D75  0000              add [bx+si],al
00000D77  0000              add [bx+si],al
00000D79  0000              add [bx+si],al
00000D7B  0000              add [bx+si],al
00000D7D  0000              add [bx+si],al
00000D7F  0000              add [bx+si],al
00000D81  0000              add [bx+si],al
00000D83  0000              add [bx+si],al
00000D85  0000              add [bx+si],al
00000D87  0000              add [bx+si],al
00000D89  0000              add [bx+si],al
00000D8B  0000              add [bx+si],al
00000D8D  0000              add [bx+si],al
00000D8F  0000              add [bx+si],al
00000D91  0000              add [bx+si],al
00000D93  0000              add [bx+si],al
00000D95  0000              add [bx+si],al
00000D97  0000              add [bx+si],al
00000D99  0000              add [bx+si],al
00000D9B  0000              add [bx+si],al
00000D9D  0000              add [bx+si],al
00000D9F  0000              add [bx+si],al
00000DA1  0000              add [bx+si],al
00000DA3  0000              add [bx+si],al
00000DA5  0000              add [bx+si],al
00000DA7  0000              add [bx+si],al
00000DA9  0000              add [bx+si],al
00000DAB  0000              add [bx+si],al
00000DAD  0000              add [bx+si],al
00000DAF  0000              add [bx+si],al
00000DB1  0000              add [bx+si],al
00000DB3  0000              add [bx+si],al
00000DB5  0000              add [bx+si],al
00000DB7  0000              add [bx+si],al
00000DB9  0000              add [bx+si],al
00000DBB  0000              add [bx+si],al
00000DBD  0000              add [bx+si],al
00000DBF  0000              add [bx+si],al
00000DC1  0000              add [bx+si],al
00000DC3  0000              add [bx+si],al
00000DC5  0000              add [bx+si],al
00000DC7  0000              add [bx+si],al
00000DC9  0000              add [bx+si],al
00000DCB  0000              add [bx+si],al
00000DCD  0000              add [bx+si],al
00000DCF  0000              add [bx+si],al
00000DD1  0000              add [bx+si],al
00000DD3  0000              add [bx+si],al
00000DD5  0000              add [bx+si],al
00000DD7  0000              add [bx+si],al
00000DD9  0000              add [bx+si],al
00000DDB  0000              add [bx+si],al
00000DDD  0000              add [bx+si],al
00000DDF  0000              add [bx+si],al
00000DE1  0000              add [bx+si],al
00000DE3  0000              add [bx+si],al
00000DE5  0000              add [bx+si],al
00000DE7  0000              add [bx+si],al
00000DE9  0000              add [bx+si],al
00000DEB  0000              add [bx+si],al
00000DED  0000              add [bx+si],al
00000DEF  0000              add [bx+si],al
00000DF1  0000              add [bx+si],al
00000DF3  0000              add [bx+si],al
00000DF5  0000              add [bx+si],al
00000DF7  0000              add [bx+si],al
00000DF9  0000              add [bx+si],al
00000DFB  0000              add [bx+si],al
00000DFD  0000              add [bx+si],al
00000DFF  0000              add [bx+si],al
00000E01  0000              add [bx+si],al
00000E03  0000              add [bx+si],al
00000E05  0000              add [bx+si],al
00000E07  0000              add [bx+si],al
00000E09  0000              add [bx+si],al
00000E0B  0000              add [bx+si],al
00000E0D  0000              add [bx+si],al
00000E0F  0000              add [bx+si],al
00000E11  0000              add [bx+si],al
00000E13  0000              add [bx+si],al
00000E15  0000              add [bx+si],al
00000E17  0000              add [bx+si],al
00000E19  0000              add [bx+si],al
00000E1B  0000              add [bx+si],al
00000E1D  0000              add [bx+si],al
00000E1F  0000              add [bx+si],al
00000E21  0000              add [bx+si],al
00000E23  0000              add [bx+si],al
00000E25  0000              add [bx+si],al
00000E27  0000              add [bx+si],al
00000E29  0000              add [bx+si],al
00000E2B  0000              add [bx+si],al
00000E2D  0000              add [bx+si],al
00000E2F  0000              add [bx+si],al
00000E31  0000              add [bx+si],al
00000E33  0000              add [bx+si],al
00000E35  0000              add [bx+si],al
00000E37  0000              add [bx+si],al
00000E39  0000              add [bx+si],al
00000E3B  0000              add [bx+si],al
00000E3D  0000              add [bx+si],al
00000E3F  0000              add [bx+si],al
00000E41  0000              add [bx+si],al
00000E43  0000              add [bx+si],al
00000E45  0000              add [bx+si],al
00000E47  0000              add [bx+si],al
00000E49  0000              add [bx+si],al
00000E4B  0000              add [bx+si],al
00000E4D  0000              add [bx+si],al
00000E4F  0000              add [bx+si],al
00000E51  0000              add [bx+si],al
00000E53  0000              add [bx+si],al
00000E55  0000              add [bx+si],al
00000E57  0000              add [bx+si],al
00000E59  0000              add [bx+si],al
00000E5B  0000              add [bx+si],al
00000E5D  0000              add [bx+si],al
00000E5F  0000              add [bx+si],al
00000E61  0000              add [bx+si],al
00000E63  0000              add [bx+si],al
00000E65  0000              add [bx+si],al
00000E67  0000              add [bx+si],al
00000E69  0000              add [bx+si],al
00000E6B  0000              add [bx+si],al
00000E6D  0000              add [bx+si],al
00000E6F  0000              add [bx+si],al
00000E71  0000              add [bx+si],al
00000E73  0000              add [bx+si],al
00000E75  0000              add [bx+si],al
00000E77  0000              add [bx+si],al
00000E79  0000              add [bx+si],al
00000E7B  0000              add [bx+si],al
00000E7D  0000              add [bx+si],al
00000E7F  0000              add [bx+si],al
00000E81  0000              add [bx+si],al
00000E83  0000              add [bx+si],al
00000E85  0000              add [bx+si],al
00000E87  0000              add [bx+si],al
00000E89  0000              add [bx+si],al
00000E8B  0000              add [bx+si],al
00000E8D  0000              add [bx+si],al
00000E8F  0000              add [bx+si],al
00000E91  0000              add [bx+si],al
00000E93  0000              add [bx+si],al
00000E95  0000              add [bx+si],al
00000E97  0000              add [bx+si],al
00000E99  0000              add [bx+si],al
00000E9B  0000              add [bx+si],al
00000E9D  0000              add [bx+si],al
00000E9F  0000              add [bx+si],al
00000EA1  0000              add [bx+si],al
00000EA3  0000              add [bx+si],al
00000EA5  0000              add [bx+si],al
00000EA7  0000              add [bx+si],al
00000EA9  0000              add [bx+si],al
00000EAB  0000              add [bx+si],al
00000EAD  0000              add [bx+si],al
00000EAF  0000              add [bx+si],al
00000EB1  0000              add [bx+si],al
00000EB3  0000              add [bx+si],al
00000EB5  0000              add [bx+si],al
00000EB7  0000              add [bx+si],al
00000EB9  0000              add [bx+si],al
00000EBB  0000              add [bx+si],al
00000EBD  0000              add [bx+si],al
00000EBF  0000              add [bx+si],al
00000EC1  0000              add [bx+si],al
00000EC3  0000              add [bx+si],al
00000EC5  0000              add [bx+si],al
00000EC7  0000              add [bx+si],al
00000EC9  0000              add [bx+si],al
00000ECB  0000              add [bx+si],al
00000ECD  0000              add [bx+si],al
00000ECF  0000              add [bx+si],al
00000ED1  0000              add [bx+si],al
00000ED3  0000              add [bx+si],al
00000ED5  0000              add [bx+si],al
00000ED7  0000              add [bx+si],al
00000ED9  0000              add [bx+si],al
00000EDB  0000              add [bx+si],al
00000EDD  0000              add [bx+si],al
00000EDF  0000              add [bx+si],al
00000EE1  0000              add [bx+si],al
00000EE3  0000              add [bx+si],al
00000EE5  0000              add [bx+si],al
00000EE7  0000              add [bx+si],al
00000EE9  0000              add [bx+si],al
00000EEB  0000              add [bx+si],al
00000EED  0000              add [bx+si],al
00000EEF  0000              add [bx+si],al
00000EF1  0000              add [bx+si],al
00000EF3  0000              add [bx+si],al
00000EF5  0000              add [bx+si],al
00000EF7  0000              add [bx+si],al
00000EF9  0000              add [bx+si],al
00000EFB  0000              add [bx+si],al
00000EFD  0000              add [bx+si],al
00000EFF  0000              add [bx+si],al
00000F01  0000              add [bx+si],al
00000F03  0000              add [bx+si],al
00000F05  0000              add [bx+si],al
00000F07  0000              add [bx+si],al
00000F09  0000              add [bx+si],al
00000F0B  0000              add [bx+si],al
00000F0D  0000              add [bx+si],al
00000F0F  0000              add [bx+si],al
00000F11  0000              add [bx+si],al
00000F13  0000              add [bx+si],al
00000F15  0000              add [bx+si],al
00000F17  0000              add [bx+si],al
00000F19  0000              add [bx+si],al
00000F1B  0000              add [bx+si],al
00000F1D  0000              add [bx+si],al
00000F1F  0000              add [bx+si],al
00000F21  0000              add [bx+si],al
00000F23  0000              add [bx+si],al
00000F25  0000              add [bx+si],al
00000F27  0000              add [bx+si],al
00000F29  0000              add [bx+si],al
00000F2B  0000              add [bx+si],al
00000F2D  0000              add [bx+si],al
00000F2F  0000              add [bx+si],al
00000F31  0000              add [bx+si],al
00000F33  0000              add [bx+si],al
00000F35  0000              add [bx+si],al
00000F37  0000              add [bx+si],al
00000F39  0000              add [bx+si],al
00000F3B  0000              add [bx+si],al
00000F3D  0000              add [bx+si],al
00000F3F  0000              add [bx+si],al
00000F41  0000              add [bx+si],al
00000F43  0000              add [bx+si],al
00000F45  0000              add [bx+si],al
00000F47  0000              add [bx+si],al
00000F49  0000              add [bx+si],al
00000F4B  0000              add [bx+si],al
00000F4D  0000              add [bx+si],al
00000F4F  0000              add [bx+si],al
00000F51  0000              add [bx+si],al
00000F53  0000              add [bx+si],al
00000F55  0000              add [bx+si],al
00000F57  0000              add [bx+si],al
00000F59  0000              add [bx+si],al
00000F5B  0000              add [bx+si],al
00000F5D  0000              add [bx+si],al
00000F5F  0000              add [bx+si],al
00000F61  0000              add [bx+si],al
00000F63  0000              add [bx+si],al
00000F65  0000              add [bx+si],al
00000F67  0000              add [bx+si],al
00000F69  0000              add [bx+si],al
00000F6B  0000              add [bx+si],al
00000F6D  0000              add [bx+si],al
00000F6F  0000              add [bx+si],al
00000F71  0000              add [bx+si],al
00000F73  0000              add [bx+si],al
00000F75  0000              add [bx+si],al
00000F77  0000              add [bx+si],al
00000F79  0000              add [bx+si],al
00000F7B  0000              add [bx+si],al
00000F7D  0000              add [bx+si],al
00000F7F  0000              add [bx+si],al
00000F81  0000              add [bx+si],al
00000F83  0000              add [bx+si],al
00000F85  0000              add [bx+si],al
00000F87  0000              add [bx+si],al
00000F89  0000              add [bx+si],al
00000F8B  0000              add [bx+si],al
00000F8D  0000              add [bx+si],al
00000F8F  0000              add [bx+si],al
00000F91  0000              add [bx+si],al
00000F93  0000              add [bx+si],al
00000F95  0000              add [bx+si],al
00000F97  0000              add [bx+si],al
00000F99  0000              add [bx+si],al
00000F9B  0000              add [bx+si],al
00000F9D  0000              add [bx+si],al
00000F9F  0000              add [bx+si],al
00000FA1  0000              add [bx+si],al
00000FA3  0000              add [bx+si],al
00000FA5  0000              add [bx+si],al
00000FA7  0000              add [bx+si],al
00000FA9  0000              add [bx+si],al
00000FAB  0000              add [bx+si],al
00000FAD  0000              add [bx+si],al
00000FAF  0000              add [bx+si],al
00000FB1  0000              add [bx+si],al
00000FB3  0000              add [bx+si],al
00000FB5  0000              add [bx+si],al
00000FB7  0000              add [bx+si],al
00000FB9  0000              add [bx+si],al
00000FBB  0000              add [bx+si],al
00000FBD  0000              add [bx+si],al
00000FBF  0000              add [bx+si],al
00000FC1  0000              add [bx+si],al
00000FC3  0000              add [bx+si],al
00000FC5  0000              add [bx+si],al
00000FC7  0000              add [bx+si],al
00000FC9  0000              add [bx+si],al
00000FCB  0000              add [bx+si],al
00000FCD  0000              add [bx+si],al
00000FCF  0000              add [bx+si],al
00000FD1  0000              add [bx+si],al
00000FD3  0000              add [bx+si],al
00000FD5  0000              add [bx+si],al
00000FD7  0000              add [bx+si],al
00000FD9  0000              add [bx+si],al
00000FDB  0000              add [bx+si],al
00000FDD  0000              add [bx+si],al
00000FDF  0000              add [bx+si],al
00000FE1  0000              add [bx+si],al
00000FE3  0000              add [bx+si],al
00000FE5  0000              add [bx+si],al
00000FE7  0000              add [bx+si],al
00000FE9  0000              add [bx+si],al
00000FEB  0000              add [bx+si],al
00000FED  0000              add [bx+si],al
00000FEF  0000              add [bx+si],al
00000FF1  0000              add [bx+si],al
00000FF3  0000              add [bx+si],al
00000FF5  0000              add [bx+si],al
00000FF7  0000              add [bx+si],al
00000FF9  0000              add [bx+si],al
00000FFB  0000              add [bx+si],al
00000FFD  0000              add [bx+si],al
00000FFF  0002              add [bp+si],al
00001001  B0AD              mov al,0xad
00001003  1B01              sbb ax,[bx+di]
00001005  0000              add [bx+si],al
00001007  00FD              add ch,bh
00001009  4F                dec di
0000100A  52                push dx
0000100B  E400              in al,0x0
0000100D  0000              add [bx+si],al
0000100F  0000              add [bx+si],al
00001011  0000              add [bx+si],al
00001013  0000              add [bx+si],al
00001015  0000              add [bx+si],al
00001017  0000              add [bx+si],al
00001019  0000              add [bx+si],al
0000101B  0000              add [bx+si],al
0000101D  0000              add [bx+si],al
0000101F  0000              add [bx+si],al
00001021  0000              add [bx+si],al
00001023  0000              add [bx+si],al
00001025  0000              add [bx+si],al
00001027  0000              add [bx+si],al
00001029  0000              add [bx+si],al
0000102B  0000              add [bx+si],al
0000102D  0000              add [bx+si],al
0000102F  00FA              add dl,bh
00001031  BD0050            mov bp,0x5000
00001034  1000              adc [bx+si],al
00001036  89EC              mov sp,bp
00001038  53                push bx
00001039  E8B102            call 0x12ed
0000103C  0000              add [bx+si],al
0000103E  0F0110            lgdt [bx+si]
00001041  E8CD09            call 0x1a11
00001044  0000              add [bx+si],al
00001046  0F0118            lidt [bx+si]
00001049  E8EE0B            call 0x1c3a
0000104C  0000              add [bx+si],al
0000104E  E80700            call 0x1058
00001051  0000              add [bx+si],al
00001053  FA                cli
00001054  F4                hlt
00001055  B8E5B1            mov ax,0xb1e5
00001058  000B              add [bp+di],cl
0000105A  8D4C24            lea cx,[si+0x24]
0000105D  0481              add al,0x81
0000105F  E400              in al,0x0
00001061  F0                lock
00001062  FF                db 0xff
00001063  FF                db 0xff
00001064  FF71FC            push word [bx+di-0x4]
00001067  55                push bp
00001068  89E5              mov bp,sp
0000106A  56                push si
0000106B  53                push bx
0000106C  51                push cx
0000106D  81ECEC5F          sub sp,0x5fec
00001071  0000              add [bx+si],al
00001073  E81E10            call 0x2094
00001076  0000              add [bx+si],al
00001078  81C31030          add bx,0x3010
0000107C  0000              add [bx+si],al
0000107E  89CE              mov si,cx
00001080  FA                cli
00001081  F4                hlt
00001082  B8FA00            mov ax,0xfa
00001085  0000              add [bx+si],al
00001087  C785EBEFFFFF      mov word [di-0x1015],0xffff
0000108D  667261            o32 jc 0x10f1
00001090  6D                insw
00001091  C785EFEFFFFF      mov word [di-0x1011],0xffff
00001097  65206275          and [gs:bp+si+0x75],ah
0000109B  C785F3EFFFFF      mov word [di-0x100d],0xffff
000010A1  66666572C7        gs o32 jc 0x106d
000010A6  85F7              test di,si
000010A8  EF                out dx,ax
000010A9  FF                db 0xff
000010AA  FF20              jmp [bx+si]
000010AC  7275              jc 0x1123
000010AE  6E                outsb
000010AF  C785FBEFFFFF      mov word [di-0x1005],0xffff
000010B5  6E                outsb
000010B6  696E67C685        imul bp,[bp+0x67],word 0x85c6
000010BB  FF                db 0xff
000010BC  EF                out dx,ax
000010BD  FF                db 0xff
000010BE  FF00              inc word [bx+si]
000010C0  6A00              push byte +0x0
000010C2  6A0A              push byte +0xa
000010C4  6A15              push byte +0x15
000010C6  8D85EBEF          lea ax,[di-0x1015]
000010CA  FF                db 0xff
000010CB  FF50E8            call [bx+si-0x18]
000010CE  27                daa
000010CF  050000            add ax,0x0
000010D2  83C410            add sp,byte +0x10
000010D5  C785DBEFFFFF      mov word [di-0x1025],0xffff
000010DB  7365              jnc 0x1142
000010DD  7269              jc 0x1148
000010DF  C785DFEFFFFF      mov word [di-0x1021],0xffff
000010E5  61                popa
000010E6  6C                insb
000010E7  2072C7            and [bp+si-0x39],dh
000010EA  85E3              test bx,sp
000010EC  EF                out dx,ax
000010ED  FF                db 0xff
000010EE  FF756E            push word [di+0x6e]
000010F1  6E                outsb
000010F2  69C785E7          imul ax,di,word 0xe785
000010F6  EF                out dx,ax
000010F7  FF                db 0xff
000010F8  FF6E67            jmp far [bp+0x67]
000010FB  0000              add [bx+si],al
000010FD  83EC0C            sub sp,byte +0xc
00001100  8D85DBEF          lea ax,[di-0x1025]
00001104  FF                db 0xff
00001105  FF50E8            call [bx+si-0x18]
00001108  880E0000          mov [0x0],cl
0000110C  83C410            add sp,byte +0x10
0000110F  8B068B40          mov ax,[0x408b]
00001113  18898504          sbb [bx+di+0x485],cl
00001117  F0                lock
00001118  FF                db 0xff
00001119  FF8B8504          dec word [bp+di+0x485]
0000111D  F0                lock
0000111E  FF                db 0xff
0000111F  FF8B0083          dec word [bp+di-0x7d00]
00001123  EC                in al,dx
00001124  0C50              or al,0x50
00001126  E8F30D            call 0x1f1c
00001129  0000              add [bx+si],al
0000112B  83C410            add sp,byte +0x10
0000112E  83EC08            sub sp,byte +0x8
00001131  FFB504F0          push word [di-0xffc]
00001135  FF                db 0xff
00001136  FF8D8508          dec word [di+0x885]
0000113A  B0FF              mov al,0xff
0000113C  FF50E8            call [bx+si-0x18]
0000113F  3B02              cmp ax,[bp+si]
00001141  0000              add [bx+si],al
00001143  83C410            add sp,byte +0x10
00001146  C78500B0FFFF      mov word [di-0x5000],0xffff
0000114C  0200              add al,[bx+si]
0000114E  0000              add [bx+si],al
00001150  C78504B0FFFF      mov word [di-0x4ffc],0xffff
00001156  0300              add ax,[bx+si]
00001158  0000              add [bx+si],al
0000115A  8D8500B0          lea ax,[di-0x5000]
0000115E  FF                db 0xff
0000115F  FF898514          dec word [bx+di+0x1485]
00001163  B0FF              mov al,0xff
00001165  FFC7              inc di
00001167  8510              test [bx+si],dx
00001169  B0FF              mov al,0xff
0000116B  FF02              inc word [bp+si]
0000116D  0000              add [bx+si],al
0000116F  0083EC0C          add [bp+di+0xcec],al
00001173  8D8508B0          lea ax,[di-0x4ff8]
00001177  FF                db 0xff
00001178  FF50E8            call [bx+si-0x18]
0000117B  670200            add al,[eax]
0000117E  0083C410          add [bp+di+0x10c4],al
00001182  898500F0          mov [di-0x1000],ax
00001186  FF                db 0xff
00001187  FFC7              inc di
00001189  85E6              test si,sp
0000118B  AF                scasw
0000118C  FF                db 0xff
0000118D  FF6675            jmp [bp+0x75]
00001190  6E                outsb
00001191  63C7              arpl di,ax
00001193  85EA              test dx,bp
00001195  AF                scasw
00001196  FF                db 0xff
00001197  FF7469            push word [si+0x69]
0000119A  6F                outsw
0000119B  6E                outsb
0000119C  C785EEAFFFFF      mov word [di-0x5012],0xffff
000011A2  206F70            and [bx+0x70],ch
000011A5  65C785F2AFFFFF    mov word [gs:di-0x500e],0xffff
000011AC  7261              jc 0x120f
000011AE  6E                outsb
000011AF  64C785F6AFFFFF    mov word [fs:di-0x500a],0xffff
000011B6  7320              jnc 0x11d8
000011B8  7375              jnc 0x122f
000011BA  C785FAAFFFFF      mov word [di-0x5006],0xffff
000011C0  636573            arpl [di+0x73],sp
000011C3  7366              jnc 0x122b
000011C5  C785FEAFFFFF      mov word [di-0x5002],0xffff
000011CB  3A00              cmp al,[bx+si]
000011CD  83EC0C            sub sp,byte +0xc
000011D0  8D85E6AF          lea ax,[di-0x501a]
000011D4  FF                db 0xff
000011D5  FF50E8            call [bx+si-0x18]
000011D8  B80D00            mov ax,0xd
000011DB  0083C410          add [bp+di+0x10c4],al
000011DF  8B9500B0          mov dx,[di-0x5000]
000011E3  FF                db 0xff
000011E4  FF8B8504          dec word [bp+di+0x485]
000011E8  B0FF              mov al,0xff
000011EA  FF01              inc word [bx+di]
000011EC  D039              sar byte [bx+di],1
000011EE  8500              test [bx+si],ax
000011F0  F0                lock
000011F1  FF                db 0xff
000011F2  FF0F              dec word [bx]
000011F4  94                xchg ax,sp
000011F5  C00FB6            ror byte [bx],byte 0xb6
000011F8  C083EC0C50        rol byte [bp+di+0xcec],byte 0x50
000011FD  E8160E            call 0x2016
00001200  0000              add [bx+si],al
00001202  83C410            add sp,byte +0x10
00001205  B8BEBA            mov ax,0xbabe
00001208  FECA              dec dl
0000120A  8D65F4            lea sp,[di-0xc]
0000120D  59                pop cx
0000120E  5B                pop bx
0000120F  5E                pop si
00001210  5D                pop bp
00001211  8D61FC            lea sp,[bx+di-0x4]
00001214  C3                ret
00001215  55                push bp
00001216  89E5              mov bp,sp
00001218  53                push bx
00001219  83EC1C            sub sp,byte +0x1c
0000121C  E8790E            call 0x2098
0000121F  0000              add [bx+si],al
00001221  81C1672E          add cx,0x2e67
00001225  0000              add [bx+si],al
00001227  8B4514            mov ax,[di+0x14]
0000122A  668945E4          mov [di-0x1c],eax
0000122E  8B4510            mov ax,[di+0x10]
00001231  BA0000            mov dx,0x0
00001234  0000              add [bx+si],al
00001236  250000            and ax,0x0
00001239  0F                db 0x0f
0000123A  00BA0000          add [bp+si+0x0],bh
0000123E  0000              add [bx+si],al
00001240  8945F0            mov [di-0x10],ax
00001243  8955F4            mov [di-0xc],dx
00001246  0F                db 0x0f
00001247  B745              mov bh,0x45
00001249  E4C1              in al,0xc1
0000124B  E008              loopne 0x1255
0000124D  99                cwd
0000124E  2500FF            and ax,0xff00
00001251  F000BA0000        lock add [bp+si+0x0],bh
00001256  0000              add [bx+si],al
00001258  0945F0            or [di-0x10],ax
0000125B  0955F4            or [di-0xc],dx
0000125E  8B450C            mov ax,[di+0xc]
00001261  C1E810            shr ax,byte 0x10
00001264  BA0000            mov dx,0x0
00001267  0000              add [bx+si],al
00001269  25FF00            and ax,0xff
0000126C  0000              add [bx+si],al
0000126E  BA0000            mov dx,0x0
00001271  0000              add [bx+si],al
00001273  0945F0            or [di-0x10],ax
00001276  0955F4            or [di-0xc],dx
00001279  8B450C            mov ax,[di+0xc]
0000127C  BA0000            mov dx,0x0
0000127F  0000              add [bx+si],al
00001281  250000            and ax,0x0
00001284  00FF              add bh,bh
00001286  BA0000            mov dx,0x0
00001289  0000              add [bx+si],al
0000128B  0945F0            or [di-0x10],ax
0000128E  0955F4            or [di-0xc],dx
00001291  8B45F0            mov ax,[di-0x10]
00001294  8B55F4            mov dx,[di-0xc]
00001297  89C2              mov dx,ax
00001299  31C0              xor ax,ax
0000129B  8945F0            mov [di-0x10],ax
0000129E  8955F4            mov [di-0xc],dx
000012A1  8B450C            mov ax,[di+0xc]
000012A4  C1E010            shl ax,byte 0x10
000012A7  BA0000            mov dx,0x0
000012AA  0000              add [bx+si],al
000012AC  0945F0            or [di-0x10],ax
000012AF  0955F4            or [di-0xc],dx
000012B2  8B4510            mov ax,[di+0x10]
000012B5  BA0000            mov dx,0x0
000012B8  0000              add [bx+si],al
000012BA  25FFFF            and ax,0xffff
000012BD  0000              add [bx+si],al
000012BF  BA0000            mov dx,0x0
000012C2  0000              add [bx+si],al
000012C4  0945F0            or [di-0x10],ax
000012C7  0955F4            or [di-0xc],dx
000012CA  837D0804          cmp word [di+0x8],byte +0x4
000012CE  7F19              jg 0x12e9
000012D0  8B5D08            mov bx,[di+0x8]
000012D3  8B45F0            mov ax,[di-0x10]
000012D6  8B55F4            mov dx,[di-0xc]
000012D9  8984D978          mov [si+0x78d9],ax
000012DD  1F                pop ds
000012DE  0000              add [bx+si],al
000012E0  8994D97C          mov [si+0x7cd9],dx
000012E4  1F                pop ds
000012E5  0000              add [bx+si],al
000012E7  EB01              jmp short 0x12ea
000012E9  90                nop
000012EA  8B5DFC            mov bx,[di-0x4]
000012ED  C9                leave
000012EE  C3                ret
000012EF  55                push bp
000012F0  89E5              mov bp,sp
000012F2  53                push bx
000012F3  83EC04            sub sp,byte +0x4
000012F6  E89B0D            call 0x2094
000012F9  0000              add [bx+si],al
000012FB  81C38D2D          add bx,0x2d8d
000012FF  0000              add [bx+si],al
00001301  6A00              push byte +0x0
00001303  6A00              push byte +0x0
00001305  6A00              push byte +0x0
00001307  6A00              push byte +0x0
00001309  E807FF            call 0x1213
0000130C  FF                db 0xff
0000130D  FF83C410          inc word [bp+di+0x10c4]
00001311  689AC0            push word 0xc09a
00001314  0000              add [bx+si],al
00001316  6AFF              push byte -0x1
00001318  6A00              push byte +0x0
0000131A  6A01              push byte +0x1
0000131C  E8F4FE            call 0x1213
0000131F  FF                db 0xff
00001320  FF83C410          inc word [bp+di+0x10c4]
00001324  6892C0            push word 0xc092
00001327  0000              add [bx+si],al
00001329  6AFF              push byte -0x1
0000132B  6A00              push byte +0x0
0000132D  6A02              push byte +0x2
0000132F  E8E1FE            call 0x1213
00001332  FF                db 0xff
00001333  FF83C410          inc word [bp+di+0x10c4]
00001337  68FAC0            push word 0xc0fa
0000133A  0000              add [bx+si],al
0000133C  6AFF              push byte -0x1
0000133E  6A00              push byte +0x0
00001340  6A03              push byte +0x3
00001342  E8CEFE            call 0x1213
00001345  FF                db 0xff
00001346  FF83C410          inc word [bp+di+0x10c4]
0000134A  68F2C0            push word 0xc0f2
0000134D  0000              add [bx+si],al
0000134F  6AFF              push byte -0x1
00001351  6A00              push byte +0x0
00001353  6A04              push byte +0x4
00001355  E8BBFE            call 0x1213
00001358  FF                db 0xff
00001359  FF83C410          inc word [bp+di+0x10c4]
0000135D  8D83781F          lea ax,[bp+di+0x1f78]
00001361  0000              add [bx+si],al
00001363  8983A21F          mov [bp+di+0x1fa2],ax
00001367  0000              add [bx+si],al
00001369  66C783A01F000027  mov dword [bp+di+0x1fa0],0x270000
         -00
00001372  8D83A01F          lea ax,[bp+di+0x1fa0]
00001376  0000              add [bx+si],al
00001378  8B5DFC            mov bx,[di-0x4]
0000137B  C9                leave
0000137C  C3                ret
0000137D  90                nop
0000137E  55                push bp
0000137F  89E5              mov bp,sp
00001381  53                push bx
00001382  83EC04            sub sp,byte +0x4
00001385  E80C0D            call 0x2094
00001388  0000              add [bx+si],al
0000138A  81C3FE2C          add bx,0x2cfe
0000138E  0000              add [bx+si],al
00001390  8B4508            mov ax,[di+0x8]
00001393  83C008            add ax,byte +0x8
00001396  83EC0C            sub sp,byte +0xc
00001399  50                push ax
0000139A  E8FF0C            call 0x209c
0000139D  0000              add [bx+si],al
0000139F  83C410            add sp,byte +0x10
000013A2  8B83A81F          mov ax,[bp+di+0x1fa8]
000013A6  0000              add [bx+si],al
000013A8  8D5001            lea dx,[bx+si+0x1]
000013AB  8993A81F          mov [bp+di+0x1fa8],dx
000013AF  0000              add [bx+si],al
000013B1  8B5508            mov dx,[di+0x8]
000013B4  894220            mov [bp+si+0x20],ax
000013B7  8B4508            mov ax,[di+0x8]
000013BA  8B550C            mov dx,[di+0xc]
000013BD  8B0A              mov cx,[bp+si]
000013BF  894810            mov [bx+si+0x10],cx
000013C2  8B4A04            mov cx,[bp+si+0x4]
000013C5  894814            mov [bx+si+0x14],cx
000013C8  8B4A08            mov cx,[bp+si+0x8]
000013CB  894818            mov [bx+si+0x18],cx
000013CE  8B520C            mov dx,[bp+si+0xc]
000013D1  89501C            mov [bx+si+0x1c],dx
000013D4  8B450C            mov ax,[di+0xc]
000013D7  8B00              mov ax,[bx+si]
000013D9  89C2              mov dx,ax
000013DB  8B4508            mov ax,[di+0x8]
000013DE  8910              mov [bx+si],dx
000013E0  90                nop
000013E1  8B5DFC            mov bx,[di-0x4]
000013E4  C9                leave
000013E5  C3                ret
000013E6  55                push bp
000013E7  89E5              mov bp,sp
000013E9  53                push bx
000013EA  83EC34            sub sp,byte +0x34
000013ED  E8A40C            call 0x2094
000013F0  0000              add [bx+si],al
000013F2  81C3962C          add bx,0x2c96
000013F6  0000              add [bx+si],al
000013F8  8B4508            mov ax,[di+0x8]
000013FB  8B5014            mov dx,[bx+si+0x14]
000013FE  8B4508            mov ax,[di+0x8]
00001401  8B4010            mov ax,[bx+si+0x10]
00001404  29C2              sub dx,ax
00001406  C1EA02            shr dx,byte 0x2
00001409  8B4508            mov ax,[di+0x8]
0000140C  8B4010            mov ax,[bx+si+0x10]
0000140F  050010            add ax,0x1000
00001412  0000              add [bx+si],al
00001414  89C1              mov cx,ax
00001416  8B4508            mov ax,[di+0x8]
00001419  8B4010            mov ax,[bx+si+0x10]
0000141C  83EC04            sub sp,byte +0x4
0000141F  52                push dx
00001420  51                push cx
00001421  50                push ax
00001422  E8290C            call 0x204e
00001425  0000              add [bx+si],al
00001427  83C410            add sp,byte +0x10
0000142A  C745E1656E        mov word [di-0x1f],0x6e65
0000142F  7465              jz 0x1496
00001431  C745E57269        mov word [di-0x1b],0x6972
00001436  6E                outsb
00001437  67C745E92070      mov word [ebp-0x17],0x7020
0000143D  726F              jc 0x14ae
0000143F  C745ED6365        mov word [di-0x13],0x6563
00001444  7373              jnc 0x14b9
00001446  C745F07320        mov word [di-0x10],0x2073
0000144B  0000              add [bx+si],al
0000144D  83EC0C            sub sp,byte +0xc
00001450  8D45E1            lea ax,[di-0x1f]
00001453  50                push ax
00001454  E83B0B            call 0x1f92
00001457  0000              add [bx+si],al
00001459  83C410            add sp,byte +0x10
0000145C  8B4508            mov ax,[di+0x8]
0000145F  8B4020            mov ax,[bx+si+0x20]
00001462  83EC0C            sub sp,byte +0xc
00001465  50                push ax
00001466  E8AD0B            call 0x2016
00001469  0000              add [bx+si],al
0000146B  83C410            add sp,byte +0x10
0000146E  8B4508            mov ax,[di+0x8]
00001471  8B4008            mov ax,[bx+si+0x8]
00001474  89C1              mov cx,ax
00001476  8B4508            mov ax,[di+0x8]
00001479  8B400C            mov ax,[bx+si+0xc]
0000147C  8B5508            mov dx,[di+0x8]
0000147F  8B5210            mov dx,[bp+si+0x10]
00001482  81C20010          add dx,0x1000
00001486  0000              add [bx+si],al
00001488  83EC04            sub sp,byte +0x4
0000148B  51                push cx
0000148C  50                push ax
0000148D  52                push dx
0000148E  E85D00            call 0x14ee
00001491  0000              add [bx+si],al
00001493  83C410            add sp,byte +0x10
00001496  8945F4            mov [di-0xc],ax
00001499  C745CF6578        mov word [di-0x31],0x7865
0000149E  6974C745D3        imul si,[si-0x39],word 0xd345
000014A3  696E6720C7        imul bp,[bp+0x67],word 0xc720
000014A8  45                inc bp
000014A9  D7                xlatb
000014AA  7072              jo 0x151e
000014AC  6F                outsw
000014AD  63C7              arpl di,ax
000014AF  45                inc bp
000014B0  DB                db 0xdb
000014B1  657373            gs jnc 0x1527
000014B4  2066C7            and [bp-0x39],ah
000014B7  45                inc bp
000014B8  DF00              fild word [bx+si]
000014BA  0083EC0C          add [bp+di+0xcec],al
000014BE  8D45CF            lea ax,[di-0x31]
000014C1  50                push ax
000014C2  E8CD0A            call 0x1f92
000014C5  0000              add [bx+si],al
000014C7  83C410            add sp,byte +0x10
000014CA  8B4508            mov ax,[di+0x8]
000014CD  8B4020            mov ax,[bx+si+0x20]
000014D0  83EC0C            sub sp,byte +0xc
000014D3  50                push ax
000014D4  E83F0B            call 0x2016
000014D7  0000              add [bx+si],al
000014D9  83C410            add sp,byte +0x10
000014DC  8B45F4            mov ax,[di-0xc]
000014DF  8B5DFC            mov bx,[di-0x4]
000014E2  C9                leave
000014E3  C3                ret
000014E4  6690              xchg eax,eax
000014E6  6690              xchg eax,eax
000014E8  6690              xchg eax,eax
000014EA  6690              xchg eax,eax
000014EC  6690              xchg eax,eax
000014EE  6690              xchg eax,eax
000014F0  55                push bp
000014F1  89E5              mov bp,sp
000014F3  8B5D08            mov bx,[di+0x8]
000014F6  8B4D0C            mov cx,[di+0xc]
000014F9  8B5510            mov dx,[di+0x10]
000014FC  89D0              mov ax,dx
000014FE  83F800            cmp ax,byte +0x0
00001501  7406              jz 0x1509
00001503  48                dec ax
00001504  FF34              push word [si]
00001506  81EBF5FF          sub bx,0xfff5
0000150A  D389EC5D          ror word [bx+di+0x5dec],cl
0000150E  C3                ret
0000150F  90                nop
00001510  8A4424            mov al,[si+0x24]
00001513  08668B            or [bp-0x75],ah
00001516  54                push sp
00001517  2404              and al,0x4
00001519  EE                out dx,al
0000151A  C3                ret
0000151B  668B5424          mov edx,[si+0x24]
0000151F  04EC              add al,0xec
00001521  C3                ret
00001522  55                push bp
00001523  89E5              mov bp,sp
00001525  53                push bx
00001526  83EC14            sub sp,byte +0x14
00001529  E8680B            call 0x2094
0000152C  0000              add [bx+si],al
0000152E  81C35A2B          add bx,0x2b5a
00001532  0000              add [bx+si],al
00001534  8B4508            mov ax,[di+0x8]
00001537  668945F4          mov [di-0xc],eax
0000153B  83EC08            sub sp,byte +0x8
0000153E  6A0E              push byte +0xe
00001540  68D403            push word 0x3d4
00001543  0000              add [bx+si],al
00001545  E8C6FF            call 0x150e
00001548  FF                db 0xff
00001549  FF83C410          inc word [bp+di+0x10c4]
0000154D  0F                db 0x0f
0000154E  B745              mov bh,0x45
00001550  F4                hlt
00001551  66C1E808          shr eax,byte 0x8
00001555  0FB6C0            movzx ax,al
00001558  83EC08            sub sp,byte +0x8
0000155B  50                push ax
0000155C  68D503            push word 0x3d5
0000155F  0000              add [bx+si],al
00001561  E8AAFF            call 0x150e
00001564  FF                db 0xff
00001565  FF83C410          inc word [bp+di+0x10c4]
00001569  83EC08            sub sp,byte +0x8
0000156C  6A0F              push byte +0xf
0000156E  68D403            push word 0x3d4
00001571  0000              add [bx+si],al
00001573  E898FF            call 0x150e
00001576  FF                db 0xff
00001577  FF83C410          inc word [bp+di+0x10c4]
0000157B  0F                db 0x0f
0000157C  B745              mov bh,0x45
0000157E  F4                hlt
0000157F  0FB6C0            movzx ax,al
00001582  83EC08            sub sp,byte +0x8
00001585  50                push ax
00001586  68D503            push word 0x3d5
00001589  0000              add [bx+si],al
0000158B  E880FF            call 0x150e
0000158E  FF                db 0xff
0000158F  FF83C410          inc word [bp+di+0x10c4]
00001593  90                nop
00001594  8B5DFC            mov bx,[di-0x4]
00001597  C9                leave
00001598  C3                ret
00001599  55                push bp
0000159A  89E5              mov bp,sp
0000159C  53                push bx
0000159D  83EC0C            sub sp,byte +0xc
000015A0  E8120B            call 0x20b5
000015A3  0000              add [bx+si],al
000015A5  05E32A            add ax,0x2ae3
000015A8  0000              add [bx+si],al
000015AA  8B5D0C            mov bx,[di+0xc]
000015AD  8B4D10            mov cx,[di+0x10]
000015B0  8B5514            mov dx,[di+0x14]
000015B3  885DF8            mov [di-0x8],bl
000015B6  884DF4            mov [di-0xc],cl
000015B9  8855F0            mov [di-0x10],dl
000015BC  8B8878FF          mov cx,[bx+si-0x88]
000015C0  FF                db 0xff
000015C1  FF8B5508          dec word [bp+di+0x855]
000015C5  01D1              add cx,dx
000015C7  0FB655F8          movzx dx,[di-0x8]
000015CB  8811              mov [bx+di],dl
000015CD  0FB655F0          movzx dx,[di-0x10]
000015D1  89D3              mov bx,dx
000015D3  C1E304            shl bx,byte 0x4
000015D6  0FB655F4          movzx dx,[di-0xc]
000015DA  89D1              mov cx,dx
000015DC  83E10F            and cx,byte +0xf
000015DF  8B8078FF          mov ax,[bx+si-0x88]
000015E3  FF                db 0xff
000015E4  FF8B5508          dec word [bp+di+0x855]
000015E8  83C201            add dx,byte +0x1
000015EB  01D0              add ax,dx
000015ED  09CB              or bx,cx
000015EF  89DA              mov dx,bx
000015F1  8810              mov [bx+si],dl
000015F3  90                nop
000015F4  8B5DFC            mov bx,[di-0x4]
000015F7  C9                leave
000015F8  C3                ret
000015F9  55                push bp
000015FA  89E5              mov bp,sp
000015FC  57                push di
000015FD  56                push si
000015FE  53                push bx
000015FF  83EC2C            sub sp,byte +0x2c
00001602  E88F0A            call 0x2094
00001605  0000              add [bx+si],al
00001607  81C3812A          add bx,0x2a81
0000160B  0000              add [bx+si],al
0000160D  8B5510            mov dx,[di+0x10]
00001610  8B4514            mov ax,[di+0x14]
00001613  8855D4            mov [di-0x2c],dl
00001616  8845D0            mov [di-0x30],al
00001619  C745E40000        mov word [di-0x1c],0x0
0000161E  0000              add [bx+si],al
00001620  EB41              jmp short 0x1663
00001622  0FB64DD0          movzx cx,[di-0x30]
00001626  0FB655D4          movzx dx,[di-0x2c]
0000162A  8B7508            mov si,[di+0x8]
0000162D  8B45E4            mov ax,[di-0x1c]
00001630  01F0              add ax,si
00001632  0FB600            movzx ax,[bx+si]
00001635  0FBEC0            movsx ax,al
00001638  8B75E4            mov si,[di-0x1c]
0000163B  8D3C              lea di,[si]
0000163D  368BB3AC1F        mov si,[ss:bp+di+0x1fac]
00001642  0000              add [bx+si],al
00001644  01FE              add si,di
00001646  51                push cx
00001647  52                push dx
00001648  50                push ax
00001649  56                push si
0000164A  E84AFF            call 0x1597
0000164D  FF                db 0xff
0000164E  FF83C410          inc word [bp+di+0x10c4]
00001652  83EC0C            sub sp,byte +0xc
00001655  6A02              push byte +0x2
00001657  E8C6FE            call 0x1520
0000165A  FF                db 0xff
0000165B  FF83C410          inc word [bp+di+0x10c4]
0000165F  8345E401          add word [di-0x1c],byte +0x1
00001663  8B45E4            mov ax,[di-0x1c]
00001666  3B450C            cmp ax,[di+0xc]
00001669  72B7              jc 0x1622
0000166B  8B450C            mov ax,[di+0xc]
0000166E  8D14              lea dx,[si]
00001670  008B83AC          add [bp+di-0x537d],cl
00001674  1F                pop ds
00001675  0000              add [bx+si],al
00001677  01D0              add ax,dx
00001679  8983AC1F          mov [bp+di+0x1fac],ax
0000167D  0000              add [bx+si],al
0000167F  90                nop
00001680  8D65F4            lea sp,[di-0xc]
00001683  5B                pop bx
00001684  5E                pop si
00001685  5F                pop di
00001686  5D                pop bp
00001687  C3                ret
00001688  55                push bp
00001689  89E5              mov bp,sp
0000168B  53                push bx
0000168C  83EC14            sub sp,byte +0x14
0000168F  E8020A            call 0x2094
00001692  0000              add [bx+si],al
00001694  81C3F429          add bx,0x29f4
00001698  0000              add [bx+si],al
0000169A  8B5508            mov dx,[di+0x8]
0000169D  8B450C            mov ax,[di+0xc]
000016A0  668955F4          mov [di-0xc],edx
000016A4  668945F0          mov [di-0x10],eax
000016A8  0F                db 0x0f
000016A9  B745              mov bh,0x45
000016AB  F4                hlt
000016AC  83C003            add ax,byte +0x3
000016AF  0F                db 0x0f
000016B0  B7C0              mov bh,0xc0
000016B2  83EC08            sub sp,byte +0x8
000016B5  688000            push word 0x80
000016B8  0000              add [bx+si],al
000016BA  50                push ax
000016BB  E850FE            call 0x150e
000016BE  FF                db 0xff
000016BF  FF83C410          inc word [bp+di+0x10c4]
000016C3  0F                db 0x0f
000016C4  B745              mov bh,0x45
000016C6  F066C1E808        lock shr eax,byte 0x8
000016CB  0FB6D0            movzx dx,al
000016CE  0F                db 0x0f
000016CF  B745              mov bh,0x45
000016D1  F4                hlt
000016D2  83EC08            sub sp,byte +0x8
000016D5  52                push dx
000016D6  50                push ax
000016D7  E834FE            call 0x150e
000016DA  FF                db 0xff
000016DB  FF83C410          inc word [bp+di+0x10c4]
000016DF  0F                db 0x0f
000016E0  B745              mov bh,0x45
000016E2  F00FB6D0          lock movzx dx,al
000016E6  0F                db 0x0f
000016E7  B745              mov bh,0x45
000016E9  F4                hlt
000016EA  83EC08            sub sp,byte +0x8
000016ED  52                push dx
000016EE  50                push ax
000016EF  E81CFE            call 0x150e
000016F2  FF                db 0xff
000016F3  FF83C410          inc word [bp+di+0x10c4]
000016F7  90                nop
000016F8  8B5DFC            mov bx,[di-0x4]
000016FB  C9                leave
000016FC  C3                ret
000016FD  55                push bp
000016FE  89E5              mov bp,sp
00001700  53                push bx
00001701  83EC14            sub sp,byte +0x14
00001704  E8AE09            call 0x20b5
00001707  0000              add [bx+si],al
00001709  057F29            add ax,0x297f
0000170C  0000              add [bx+si],al
0000170E  8B5508            mov dx,[di+0x8]
00001711  668955F4          mov [di-0xc],edx
00001715  0F                db 0x0f
00001716  B755              mov bh,0x55
00001718  F4                hlt
00001719  83C203            add dx,byte +0x3
0000171C  0F                db 0x0f
0000171D  B7D2              mov bh,0xd2
0000171F  83EC08            sub sp,byte +0x8
00001722  6A03              push byte +0x3
00001724  52                push dx
00001725  89C3              mov bx,ax
00001727  E8E4FD            call 0x150e
0000172A  FF                db 0xff
0000172B  FF83C410          inc word [bp+di+0x10c4]
0000172F  90                nop
00001730  8B5DFC            mov bx,[di-0x4]
00001733  C9                leave
00001734  C3                ret
00001735  55                push bp
00001736  89E5              mov bp,sp
00001738  53                push bx
00001739  83EC14            sub sp,byte +0x14
0000173C  E87609            call 0x20b5
0000173F  0000              add [bx+si],al
00001741  054729            add ax,0x2947
00001744  0000              add [bx+si],al
00001746  8B5508            mov dx,[di+0x8]
00001749  668955F4          mov [di-0xc],edx
0000174D  0F                db 0x0f
0000174E  B755              mov bh,0x55
00001750  F4                hlt
00001751  83C202            add dx,byte +0x2
00001754  0F                db 0x0f
00001755  B7D2              mov bh,0xd2
00001757  83EC08            sub sp,byte +0x8
0000175A  68C700            push word 0xc7
0000175D  0000              add [bx+si],al
0000175F  52                push dx
00001760  89C3              mov bx,ax
00001762  E8A9FD            call 0x150e
00001765  FF                db 0xff
00001766  FF83C410          inc word [bp+di+0x10c4]
0000176A  90                nop
0000176B  8B5DFC            mov bx,[di-0x4]
0000176E  C9                leave
0000176F  C3                ret
00001770  55                push bp
00001771  89E5              mov bp,sp
00001773  53                push bx
00001774  83EC14            sub sp,byte +0x14
00001777  E83B09            call 0x20b5
0000177A  0000              add [bx+si],al
0000177C  050C29            add ax,0x290c
0000177F  0000              add [bx+si],al
00001781  8B5508            mov dx,[di+0x8]
00001784  668955F4          mov [di-0xc],edx
00001788  0F                db 0x0f
00001789  B755              mov bh,0x55
0000178B  F4                hlt
0000178C  83C204            add dx,byte +0x4
0000178F  0F                db 0x0f
00001790  B7D2              mov bh,0xd2
00001792  83EC08            sub sp,byte +0x8
00001795  6A03              push byte +0x3
00001797  52                push dx
00001798  89C3              mov bx,ax
0000179A  E871FD            call 0x150e
0000179D  FF                db 0xff
0000179E  FF83C410          inc word [bp+di+0x10c4]
000017A2  90                nop
000017A3  8B5DFC            mov bx,[di-0x4]
000017A6  C9                leave
000017A7  C3                ret
000017A8  55                push bp
000017A9  89E5              mov bp,sp
000017AB  53                push bx
000017AC  83EC14            sub sp,byte +0x14
000017AF  E80309            call 0x20b5
000017B2  0000              add [bx+si],al
000017B4  05D428            add ax,0x28d4
000017B7  0000              add [bx+si],al
000017B9  8B5508            mov dx,[di+0x8]
000017BC  668955F4          mov [di-0xc],edx
000017C0  0F                db 0x0f
000017C1  B755              mov bh,0x55
000017C3  F4                hlt
000017C4  83C205            add dx,byte +0x5
000017C7  0F                db 0x0f
000017C8  B7D2              mov bh,0xd2
000017CA  83EC0C            sub sp,byte +0xc
000017CD  52                push dx
000017CE  89C3              mov bx,ax
000017D0  E846FD            call 0x1519
000017D3  FF                db 0xff
000017D4  FF83C410          inc word [bp+di+0x10c4]
000017D8  0FB6C0            movzx ax,al
000017DB  83E020            and ax,byte +0x20
000017DE  8B5DFC            mov bx,[di-0x4]
000017E1  C9                leave
000017E2  C3                ret
000017E3  55                push bp
000017E4  89E5              mov bp,sp
000017E6  83EC28            sub sp,byte +0x28
000017E9  E8C908            call 0x20b5
000017EC  0000              add [bx+si],al
000017EE  059A28            add ax,0x289a
000017F1  0000              add [bx+si],al
000017F3  8B4508            mov ax,[di+0x8]
000017F6  668945E4          mov [di-0x1c],eax
000017FA  C745F40000        mov word [di-0xc],0x0
000017FF  0000              add [bx+si],al
00001801  EB23              jmp short 0x1826
00001803  8B550C            mov dx,[di+0xc]
00001806  8B45F4            mov ax,[di-0xc]
00001809  01D0              add ax,dx
0000180B  0FB600            movzx ax,[bx+si]
0000180E  0FBED0            movsx dx,al
00001811  0F                db 0x0f
00001812  B745              mov bh,0x45
00001814  E483              in al,0x83
00001816  EC                in al,dx
00001817  085250            or [bp+si+0x50],dl
0000181A  E81600            call 0x1833
0000181D  0000              add [bx+si],al
0000181F  83C410            add sp,byte +0x10
00001822  8345F401          add word [di-0xc],byte +0x1
00001826  8B45F4            mov ax,[di-0xc]
00001829  3B4510            cmp ax,[di+0x10]
0000182C  72D5              jc 0x1803
0000182E  B80000            mov ax,0x0
00001831  0000              add [bx+si],al
00001833  C9                leave
00001834  C3                ret
00001835  55                push bp
00001836  89E5              mov bp,sp
00001838  53                push bx
00001839  83EC14            sub sp,byte +0x14
0000183C  E85508            call 0x2094
0000183F  0000              add [bx+si],al
00001841  81C34728          add bx,0x2847
00001845  0000              add [bx+si],al
00001847  8B5508            mov dx,[di+0x8]
0000184A  8B450C            mov ax,[di+0xc]
0000184D  668955F4          mov [di-0xc],edx
00001851  8845F0            mov [di-0x10],al
00001854  90                nop
00001855  0F                db 0x0f
00001856  B745              mov bh,0x45
00001858  F4                hlt
00001859  83EC0C            sub sp,byte +0xc
0000185C  50                push ax
0000185D  E846FF            call 0x17a6
00001860  FF                db 0xff
00001861  FF83C410          inc word [bp+di+0x10c4]
00001865  85C0              test ax,ax
00001867  0F94C0            setz al
0000186A  84C0              test al,al
0000186C  75E7              jnz 0x1855
0000186E  0FB645F0          movzx ax,[di-0x10]
00001872  0FB6D0            movzx dx,al
00001875  0F                db 0x0f
00001876  B745              mov bh,0x45
00001878  F4                hlt
00001879  83EC08            sub sp,byte +0x8
0000187C  52                push dx
0000187D  50                push ax
0000187E  E88DFC            call 0x150e
00001881  FF                db 0xff
00001882  FF83C410          inc word [bp+di+0x10c4]
00001886  90                nop
00001887  8B5DFC            mov bx,[di-0x4]
0000188A  C9                leave
0000188B  C3                ret
0000188C  55                push bp
0000188D  89E5              mov bp,sp
0000188F  83EC18            sub sp,byte +0x18
00001892  E82008            call 0x20b5
00001895  0000              add [bx+si],al
00001897  05F127            add ax,0x27f1
0000189A  0000              add [bx+si],al
0000189C  8B4D08            mov cx,[di+0x8]
0000189F  8B550C            mov dx,[di+0xc]
000018A2  66894DF4          mov [di-0xc],ecx
000018A6  668955F0          mov [di-0x10],edx
000018AA  0F                db 0x0f
000018AB  B755              mov bh,0x55
000018AD  F4                hlt
000018AE  8990B01F          mov [bx+si+0x1fb0],dx
000018B2  0000              add [bx+si],al
000018B4  0F                db 0x0f
000018B5  B755              mov bh,0x55
000018B7  F0                lock
000018B8  0F                db 0x0f
000018B9  B745              mov bh,0x45
000018BB  F4                hlt
000018BC  83EC08            sub sp,byte +0x8
000018BF  52                push dx
000018C0  50                push ax
000018C1  E8C2FD            call 0x1686
000018C4  FF                db 0xff
000018C5  FF83C410          inc word [bp+di+0x10c4]
000018C9  0F                db 0x0f
000018CA  B745              mov bh,0x45
000018CC  F4                hlt
000018CD  83EC0C            sub sp,byte +0xc
000018D0  50                push ax
000018D1  E827FE            call 0x16fb
000018D4  FF                db 0xff
000018D5  FF83C410          inc word [bp+di+0x10c4]
000018D9  0F                db 0x0f
000018DA  B745              mov bh,0x45
000018DC  F4                hlt
000018DD  83EC0C            sub sp,byte +0xc
000018E0  50                push ax
000018E1  E84FFE            call 0x1733
000018E4  FF                db 0xff
000018E5  FF83C410          inc word [bp+di+0x10c4]
000018E9  0F                db 0x0f
000018EA  B745              mov bh,0x45
000018EC  F4                hlt
000018ED  83EC0C            sub sp,byte +0xc
000018F0  50                push ax
000018F1  E87AFE            call 0x176e
000018F4  FF                db 0xff
000018F5  FF83C410          inc word [bp+di+0x10c4]
000018F9  90                nop
000018FA  C9                leave
000018FB  C3                ret
000018FC  55                push bp
000018FD  89E5              mov bp,sp
000018FF  53                push bx
00001900  83EC24            sub sp,byte +0x24
00001903  E8AF07            call 0x20b5
00001906  0000              add [bx+si],al
00001908  058027            add ax,0x2780
0000190B  0000              add [bx+si],al
0000190D  C745E5696E        mov word [di-0x1b],0x6e69
00001912  7465              jz 0x1979
00001914  C745E97272        mov word [di-0x17],0x7272
00001919  7570              jnz 0x198b
0000191B  C745ED7473        mov word [di-0x13],0x7374
00001920  2072C7            and [bp+si-0x39],dh
00001923  45                inc bp
00001924  F1                int1
00001925  756E              jnz 0x1995
00001927  6E                outsb
00001928  69C745F4          imul ax,di,word 0xf445
0000192C  696E670083        imul bp,[bp+0x67],word 0x8300
00001931  EC                in al,dx
00001932  0C8D              or al,0x8d
00001934  55                push bp
00001935  E552              in ax,0x52
00001937  89C3              mov bx,ax
00001939  E85606            call 0x1f92
0000193C  0000              add [bx+si],al
0000193E  83C410            add sp,byte +0x10
00001941  B82000            mov ax,0x20
00001944  0000              add [bx+si],al
00001946  8B5DFC            mov bx,[di-0x4]
00001949  C9                leave
0000194A  C3                ret
0000194B  55                push bp
0000194C  89E5              mov bp,sp
0000194E  83EC10            sub sp,byte +0x10
00001951  E86107            call 0x20b5
00001954  0000              add [bx+si],al
00001956  053227            add ax,0x2732
00001959  0000              add [bx+si],al
0000195B  C745FCBEBA        mov word [di-0x4],0xbabe
00001960  FECA              dec dl
00001962  8345FC01          add word [di-0x4],byte +0x1
00001966  FA                cli
00001967  F4                hlt
00001968  90                nop
00001969  C9                leave
0000196A  C3                ret
0000196B  55                push bp
0000196C  89E5              mov bp,sp
0000196E  53                push bx
0000196F  83EC14            sub sp,byte +0x14
00001972  E84007            call 0x20b5
00001975  0000              add [bx+si],al
00001977  051127            add ax,0x2711
0000197A  0000              add [bx+si],al
0000197C  C745EA696E        mov word [di-0x16],0x6e69
00001981  7420              jz 0x19a3
00001983  C745EE3820        mov word [di-0x12],0x2038
00001988  7265              jc 0x19ef
0000198A  C745F26369        mov word [di-0xe],0x6963
0000198F  7665              jna 0x19f6
00001991  66C745F6640083EC  mov dword [di-0xa],0xec830064
00001999  0C8D              or al,0x8d
0000199B  55                push bp
0000199C  EA5289C3E8        jmp 0xe8c3:0x8952
000019A1  EF                out dx,ax
000019A2  050000            add ax,0x0
000019A5  83C410            add sp,byte +0x10
000019A8  90                nop
000019A9  8B5DFC            mov bx,[di-0x4]
000019AC  C9                leave
000019AD  C3                ret
000019AE  55                push bp
000019AF  89E5              mov bp,sp
000019B1  83EC18            sub sp,byte +0x18
000019B4  E8FE06            call 0x20b5
000019B7  0000              add [bx+si],al
000019B9  05CF26            add ax,0x26cf
000019BC  0000              add [bx+si],al
000019BE  8B4D08            mov cx,[di+0x8]
000019C1  8B5510            mov dx,[di+0x10]
000019C4  884DEC            mov [di-0x14],cl
000019C7  8855E8            mov [di-0x18],dl
000019CA  0FB655EC          movzx dx,[di-0x14]
000019CE  C1E203            shl dx,byte 0x3
000019D1  8D80B81F          lea ax,[bx+si+0x1fb8]
000019D5  0000              add [bx+si],al
000019D7  01D0              add ax,dx
000019D9  8945FC            mov [di-0x4],ax
000019DC  8B450C            mov ax,[di+0xc]
000019DF  89C2              mov dx,ax
000019E1  8B45FC            mov ax,[di-0x4]
000019E4  668910            mov [bx+si],edx
000019E7  8B45FC            mov ax,[di-0x4]
000019EA  66C7400208008B45  mov dword [bx+si+0x2],0x458b0008
000019F2  FC                cld
000019F3  0FB655E8          movzx dx,[di-0x18]
000019F7  885005            mov [bx+si+0x5],dl
000019FA  8B450C            mov ax,[di+0xc]
000019FD  C1E810            shr ax,byte 0x10
00001A00  89C2              mov dx,ax
00001A02  8B45FC            mov ax,[di-0x4]
00001A05  66895006          mov [bx+si+0x6],edx
00001A09  8B45FC            mov ax,[di-0x4]
00001A0C  C6400400          mov byte [bx+si+0x4],0x0
00001A10  90                nop
00001A11  C9                leave
00001A12  C3                ret
00001A13  55                push bp
00001A14  89E5              mov bp,sp
00001A16  53                push bx
00001A17  83EC10            sub sp,byte +0x10
00001A1A  E87706            call 0x2094
00001A1D  0000              add [bx+si],al
00001A1F  81C36926          add bx,0x2669
00001A23  0000              add [bx+si],al
00001A25  8D83B81F          lea ax,[bp+di+0x1fb8]
00001A29  0000              add [bx+si],al
00001A2B  8983BA27          mov [bp+di+0x27ba],ax
00001A2F  0000              add [bx+si],al
00001A31  66C783B827000007  mov dword [bp+di+0x27b8],0x1070000
         -01
00001A3A  C645FB00          mov byte [di-0x5],0x0
00001A3E  EB36              jmp short 0x1a76
00001A40  0FB655FB          movzx dx,[di-0x5]
00001A44  C7C00430          mov ax,0x3004
00001A48  1000              adc [bx+si],al
00001A4A  8B14              mov dx,[si]
00001A4C  90                nop
00001A4D  0FB645FB          movzx ax,[di-0x5]
00001A51  688E00            push word 0x8e
00001A54  0000              add [bx+si],al
00001A56  52                push dx
00001A57  50                push ax
00001A58  E851FF            call 0x19ac
00001A5B  FF                db 0xff
00001A5C  FF83C40C          inc word [bp+di+0xcc4]
00001A60  0FB645FB          movzx ax,[di-0x5]
00001A64  C68403D827        mov byte [si-0x27fd],0x27
00001A69  0000              add [bx+si],al
00001A6B  010F              add [bx],cx
00001A6D  B645              mov dh,0x45
00001A6F  FB                sti
00001A70  83C001            add ax,byte +0x1
00001A73  8845FB            mov [di-0x5],al
00001A76  807DFB20          cmp byte [di-0x5],0x20
00001A7A  76C4              jna 0x1a40
00001A7C  8D83B827          lea ax,[bp+di+0x27b8]
00001A80  0000              add [bx+si],al
00001A82  8B5DFC            mov bx,[di-0x4]
00001A85  C9                leave
00001A86  C3                ret
00001A87  6690              xchg eax,eax
00001A89  6690              xchg eax,eax
00001A8B  6690              xchg eax,eax
00001A8D  6690              xchg eax,eax
00001A8F  90                nop
00001A90  B8EFBE            mov ax,0xbeef
00001A93  AD                lodsw
00001A94  DEBB0000          fidivr word [bp+di+0x0]
00001A98  0000              add [bx+si],al
00001A9A  FA                cli
00001A9B  F4                hlt
00001A9C  CF                iret
00001A9D  B8EFBE            mov ax,0xbeef
00001AA0  AD                lodsw
00001AA1  DEBB0100          fidivr word [bp+di+0x1]
00001AA5  0000              add [bx+si],al
00001AA7  FA                cli
00001AA8  F4                hlt
00001AA9  CF                iret
00001AAA  B8EFBE            mov ax,0xbeef
00001AAD  AD                lodsw
00001AAE  DEBB0200          fidivr word [bp+di+0x2]
00001AB2  0000              add [bx+si],al
00001AB4  FA                cli
00001AB5  F4                hlt
00001AB6  CF                iret
00001AB7  B8EFBE            mov ax,0xbeef
00001ABA  AD                lodsw
00001ABB  DEBB0300          fidivr word [bp+di+0x3]
00001ABF  0000              add [bx+si],al
00001AC1  FA                cli
00001AC2  F4                hlt
00001AC3  CF                iret
00001AC4  B8EFBE            mov ax,0xbeef
00001AC7  AD                lodsw
00001AC8  DEBB0400          fidivr word [bp+di+0x4]
00001ACC  0000              add [bx+si],al
00001ACE  FA                cli
00001ACF  F4                hlt
00001AD0  CF                iret
00001AD1  B8EFBE            mov ax,0xbeef
00001AD4  AD                lodsw
00001AD5  DEBB0500          fidivr word [bp+di+0x5]
00001AD9  0000              add [bx+si],al
00001ADB  FA                cli
00001ADC  F4                hlt
00001ADD  CF                iret
00001ADE  B8EFBE            mov ax,0xbeef
00001AE1  AD                lodsw
00001AE2  DEBB0600          fidivr word [bp+di+0x6]
00001AE6  0000              add [bx+si],al
00001AE8  FA                cli
00001AE9  F4                hlt
00001AEA  CF                iret
00001AEB  B8EFBE            mov ax,0xbeef
00001AEE  AD                lodsw
00001AEF  DEBB0700          fidivr word [bp+di+0x7]
00001AF3  0000              add [bx+si],al
00001AF5  FA                cli
00001AF6  F4                hlt
00001AF7  CF                iret
00001AF8  E86EFE            call 0x1969
00001AFB  FF                db 0xff
00001AFC  FFCF              dec di
00001AFE  B8EFBE            mov ax,0xbeef
00001B01  AD                lodsw
00001B02  DEBB0900          fidivr word [bp+di+0x9]
00001B06  0000              add [bx+si],al
00001B08  FA                cli
00001B09  F4                hlt
00001B0A  CF                iret
00001B0B  B8EFBE            mov ax,0xbeef
00001B0E  AD                lodsw
00001B0F  DEBB0A00          fidivr word [bp+di+0xa]
00001B13  0000              add [bx+si],al
00001B15  FA                cli
00001B16  F4                hlt
00001B17  CF                iret
00001B18  B8EFBE            mov ax,0xbeef
00001B1B  AD                lodsw
00001B1C  DEBB0B00          fidivr word [bp+di+0xb]
00001B20  0000              add [bx+si],al
00001B22  FA                cli
00001B23  F4                hlt
00001B24  CF                iret
00001B25  B8EFBE            mov ax,0xbeef
00001B28  AD                lodsw
00001B29  DEBB0C00          fidivr word [bp+di+0xc]
00001B2D  0000              add [bx+si],al
00001B2F  FA                cli
00001B30  F4                hlt
00001B31  CF                iret
00001B32  B8EFBE            mov ax,0xbeef
00001B35  AD                lodsw
00001B36  DEBB0D00          fidivr word [bp+di+0xd]
00001B3A  0000              add [bx+si],al
00001B3C  FA                cli
00001B3D  F4                hlt
00001B3E  CF                iret
00001B3F  E807FE            call 0x1949
00001B42  FF                db 0xff
00001B43  FFCF              dec di
00001B45  B8EFBE            mov ax,0xbeef
00001B48  AD                lodsw
00001B49  DEBB0F00          fidivr word [bp+di+0xf]
00001B4D  0000              add [bx+si],al
00001B4F  FA                cli
00001B50  F4                hlt
00001B51  CF                iret
00001B52  B8EFBE            mov ax,0xbeef
00001B55  AD                lodsw
00001B56  DEBB1000          fidivr word [bp+di+0x10]
00001B5A  0000              add [bx+si],al
00001B5C  FA                cli
00001B5D  F4                hlt
00001B5E  CF                iret
00001B5F  B8EFBE            mov ax,0xbeef
00001B62  AD                lodsw
00001B63  DEBB1100          fidivr word [bp+di+0x11]
00001B67  0000              add [bx+si],al
00001B69  FA                cli
00001B6A  F4                hlt
00001B6B  CF                iret
00001B6C  B8EFBE            mov ax,0xbeef
00001B6F  AD                lodsw
00001B70  DEBB1200          fidivr word [bp+di+0x12]
00001B74  0000              add [bx+si],al
00001B76  FA                cli
00001B77  F4                hlt
00001B78  CF                iret
00001B79  B8EFBE            mov ax,0xbeef
00001B7C  AD                lodsw
00001B7D  DEBB1300          fidivr word [bp+di+0x13]
00001B81  0000              add [bx+si],al
00001B83  FA                cli
00001B84  F4                hlt
00001B85  CF                iret
00001B86  B8EFBE            mov ax,0xbeef
00001B89  AD                lodsw
00001B8A  DEBB1400          fidivr word [bp+di+0x14]
00001B8E  0000              add [bx+si],al
00001B90  FA                cli
00001B91  F4                hlt
00001B92  CF                iret
00001B93  B8EFBE            mov ax,0xbeef
00001B96  AD                lodsw
00001B97  DEBB1500          fidivr word [bp+di+0x15]
00001B9B  0000              add [bx+si],al
00001B9D  FA                cli
00001B9E  F4                hlt
00001B9F  CF                iret
00001BA0  B8EFBE            mov ax,0xbeef
00001BA3  AD                lodsw
00001BA4  DEBB1600          fidivr word [bp+di+0x16]
00001BA8  0000              add [bx+si],al
00001BAA  FA                cli
00001BAB  F4                hlt
00001BAC  CF                iret
00001BAD  B8EFBE            mov ax,0xbeef
00001BB0  AD                lodsw
00001BB1  DEBB1700          fidivr word [bp+di+0x17]
00001BB5  0000              add [bx+si],al
00001BB7  FA                cli
00001BB8  F4                hlt
00001BB9  CF                iret
00001BBA  B8EFBE            mov ax,0xbeef
00001BBD  AD                lodsw
00001BBE  DEBB1800          fidivr word [bp+di+0x18]
00001BC2  0000              add [bx+si],al
00001BC4  FA                cli
00001BC5  F4                hlt
00001BC6  CF                iret
00001BC7  B8EFBE            mov ax,0xbeef
00001BCA  AD                lodsw
00001BCB  DEBB1900          fidivr word [bp+di+0x19]
00001BCF  0000              add [bx+si],al
00001BD1  FA                cli
00001BD2  F4                hlt
00001BD3  CF                iret
00001BD4  B8EFBE            mov ax,0xbeef
00001BD7  AD                lodsw
00001BD8  DEBB1A00          fidivr word [bp+di+0x1a]
00001BDC  0000              add [bx+si],al
00001BDE  FA                cli
00001BDF  F4                hlt
00001BE0  CF                iret
00001BE1  B8EFBE            mov ax,0xbeef
00001BE4  AD                lodsw
00001BE5  DEBB1B00          fidivr word [bp+di+0x1b]
00001BE9  0000              add [bx+si],al
00001BEB  FA                cli
00001BEC  F4                hlt
00001BED  CF                iret
00001BEE  B8EFBE            mov ax,0xbeef
00001BF1  AD                lodsw
00001BF2  DEBB1C00          fidivr word [bp+di+0x1c]
00001BF6  0000              add [bx+si],al
00001BF8  FA                cli
00001BF9  F4                hlt
00001BFA  CF                iret
00001BFB  B8EFBE            mov ax,0xbeef
00001BFE  AD                lodsw
00001BFF  DEBB1D00          fidivr word [bp+di+0x1d]
00001C03  0000              add [bx+si],al
00001C05  FA                cli
00001C06  F4                hlt
00001C07  CF                iret
00001C08  B8EFBE            mov ax,0xbeef
00001C0B  AD                lodsw
00001C0C  DEBB1E00          fidivr word [bp+di+0x1e]
00001C10  0000              add [bx+si],al
00001C12  FA                cli
00001C13  F4                hlt
00001C14  CF                iret
00001C15  B8EFBE            mov ax,0xbeef
00001C18  AD                lodsw
00001C19  DEBB1F00          fidivr word [bp+di+0x1f]
00001C1D  0000              add [bx+si],al
00001C1F  FA                cli
00001C20  F4                hlt
00001C21  CF                iret
00001C22  E8D5FC            call 0x18fa
00001C25  FF                db 0xff
00001C26  FFCF              dec di
00001C28  6690              xchg eax,eax
00001C2A  6690              xchg eax,eax
00001C2C  6690              xchg eax,eax
00001C2E  6690              xchg eax,eax
00001C30  0F20C0            mov eax,cr0
00001C33  0D0000            or ax,0x0
00001C36  00800F22          add [bx+si+0x220f],al
00001C3A  C0C355            rol bl,byte 0x55
00001C3D  89E5              mov bp,sp
00001C3F  53                push bx
00001C40  83EC14            sub sp,byte +0x14
00001C43  E84E04            call 0x2094
00001C46  0000              add [bx+si],al
00001C48  81C34024          add bx,0x2440
00001C4C  0000              add [bx+si],al
00001C4E  83EC0C            sub sp,byte +0xc
00001C51  8D83782F          lea ax,[bp+di+0x2f78]
00001C55  0000              add [bx+si],al
00001C57  50                push ax
00001C58  E8CB00            call 0x1d26
00001C5B  0000              add [bx+si],al
00001C5D  83C410            add sp,byte +0x10
00001C60  E88801            call 0x1deb
00001C63  0000              add [bx+si],al
00001C65  66C745EA03000FB7  mov dword [di-0x16],0xb70f0003
00001C6D  55                push bp
00001C6E  EA8D83783F        jmp 0x3f78:0x838d
00001C73  0000              add [bx+si],al
00001C75  09D0              or ax,dx
00001C77  8983782F          mov [bp+di+0x2f78],ax
00001C7B  0000              add [bx+si],al
00001C7D  C745F40000        mov word [di-0xc],0x0
00001C82  0000              add [bx+si],al
00001C84  EB22              jmp short 0x1ca8
00001C86  0F                db 0x0f
00001C87  B745              mov bh,0x45
00001C89  EA8B55F4C1        jmp 0xc1f4:0x558b
00001C8E  E20C              loop 0x1c9c
00001C90  83EC04            sub sp,byte +0x4
00001C93  50                push ax
00001C94  52                push dx
00001C95  8D83782F          lea ax,[bp+di+0x2f78]
00001C99  0000              add [bx+si],al
00001C9B  50                push ax
00001C9C  E8C600            call 0x1d65
00001C9F  0000              add [bx+si],al
00001CA1  83C410            add sp,byte +0x10
00001CA4  8345F401          add word [di-0xc],byte +0x1
00001CA8  817DF4FF03        cmp word [di-0xc],0x3ff
00001CAD  0000              add [bx+si],al
00001CAF  76D5              jna 0x1c86
00001CB1  C745F00000        mov word [di-0x10],0x0
00001CB6  0000              add [bx+si],al
00001CB8  C745EC0000        mov word [di-0x14],0x0
00001CBD  0000              add [bx+si],al
00001CBF  EB22              jmp short 0x1ce3
00001CC1  8B45EC            mov ax,[di-0x14]
00001CC4  8B948378          mov dx,[si+0x7883]
00001CC8  3F                aas
00001CC9  0000              add [bx+si],al
00001CCB  8B45EC            mov ax,[di-0x14]
00001CCE  C1E00C            shl ax,byte 0xc
00001CD1  83C803            or ax,byte +0x3
00001CD4  39C2              cmp dx,ax
00001CD6  0F95C0            setnz al
00001CD9  0FB6C0            movzx ax,al
00001CDC  0145F0            add [di-0x10],ax
00001CDF  8345EC01          add word [di-0x14],byte +0x1
00001CE3  817DECFF03        cmp word [di-0x14],0x3ff
00001CE8  0000              add [bx+si],al
00001CEA  76D5              jna 0x1cc1
00001CEC  837DF000          cmp word [di-0x10],byte +0x0
00001CF0  7407              jz 0x1cf9
00001CF2  FA                cli
00001CF3  F4                hlt
00001CF4  B8FC00            mov ax,0xfc
00001CF7  0000              add [bx+si],al
00001CF9  83EC0C            sub sp,byte +0xc
00001CFC  8D83782F          lea ax,[bp+di+0x2f78]
00001D00  0000              add [bx+si],al
00001D02  50                push ax
00001D03  E81800            call 0x1d1e
00001D06  0000              add [bx+si],al
00001D08  83C410            add sp,byte +0x10
00001D0B  E820FF            call 0x1c2e
00001D0E  FF                db 0xff
00001D0F  FF908B5D          call [bx+si+0x5d8b]
00001D13  FC                cld
00001D14  C9                leave
00001D15  C3                ret
00001D16  6690              xchg eax,eax
00001D18  6690              xchg eax,eax
00001D1A  6690              xchg eax,eax
00001D1C  6690              xchg eax,eax
00001D1E  6690              xchg eax,eax
00001D20  8B4424            mov ax,[si+0x24]
00001D23  040F              add al,0xf
00001D25  22D8              and bl,al
00001D27  C3                ret
00001D28  55                push bp
00001D29  89E5              mov bp,sp
00001D2B  83EC10            sub sp,byte +0x10
00001D2E  E88403            call 0x20b5
00001D31  0000              add [bx+si],al
00001D33  055523            add ax,0x2355
00001D36  0000              add [bx+si],al
00001D38  C745FC0000        mov word [di-0x4],0x0
00001D3D  0000              add [bx+si],al
00001D3F  EB19              jmp short 0x1d5a
00001D41  8B45FC            mov ax,[di-0x4]
00001D44  8D14              lea dx,[si]
00001D46  8500              test [bx+si],ax
00001D48  0000              add [bx+si],al
00001D4A  008B4508          add [bp+di+0x845],cl
00001D4E  01D0              add ax,dx
00001D50  C7000200          mov word [bx+si],0x2
00001D54  0000              add [bx+si],al
00001D56  8345FC01          add word [di-0x4],byte +0x1
00001D5A  817DFCFF03        cmp word [di-0x4],0x3ff
00001D5F  0000              add [bx+si],al
00001D61  7EDE              jng 0x1d41
00001D63  90                nop
00001D64  90                nop
00001D65  C9                leave
00001D66  C3                ret
00001D67  55                push bp
00001D68  89E5              mov bp,sp
00001D6A  83EC28            sub sp,byte +0x28
00001D6D  E84503            call 0x20b5
00001D70  0000              add [bx+si],al
00001D72  051623            add ax,0x2316
00001D75  0000              add [bx+si],al
00001D77  8B4510            mov ax,[di+0x10]
00001D7A  668945E4          mov [di-0x1c],eax
00001D7E  E8A200            call 0x1e23
00001D81  0000              add [bx+si],al
00001D83  8945F4            mov [di-0xc],ax
00001D86  837DF401          cmp word [di-0xc],byte +0x1
00001D8A  7507              jnz 0x1d93
00001D8C  FA                cli
00001D8D  F4                hlt
00001D8E  B8FF00            mov ax,0xff
00001D91  0000              add [bx+si],al
00001D93  8B450C            mov ax,[di+0xc]
00001D96  C1E816            shr ax,byte 0x16
00001D99  8945F0            mov [di-0x10],ax
00001D9C  8B45F0            mov ax,[di-0x10]
00001D9F  8D14              lea dx,[si]
00001DA1  8500              test [bx+si],ax
00001DA3  0000              add [bx+si],al
00001DA5  008B4508          add [bp+di+0x845],cl
00001DA9  01D0              add ax,dx
00001DAB  8B00              mov ax,[bx+si]
00001DAD  2500F0            and ax,0xf000
00001DB0  FF                db 0xff
00001DB1  FF8945EC          dec word [bx+di-0x13bb]
00001DB5  837DEC00          cmp word [di-0x14],byte +0x0
00001DB9  7507              jnz 0x1dc2
00001DBB  FA                cli
00001DBC  F4                hlt
00001DBD  B8FD00            mov ax,0xfd
00001DC0  0000              add [bx+si],al
00001DC2  8B450C            mov ax,[di+0xc]
00001DC5  2500F0            and ax,0xf000
00001DC8  3F                aas
00001DC9  00C1              add cl,al
00001DCB  E80C89            call 0xa6da
00001DCE  45                inc bp
00001DCF  E80FB7            call 0xd4e1
00001DD2  45                inc bp
00001DD3  E48B              in al,0x8b
00001DD5  55                push bp
00001DD6  E88D0C            call 0x2a66
00001DD9  95                xchg ax,bp
00001DDA  0000              add [bx+si],al
00001DDC  0000              add [bx+si],al
00001DDE  8B55EC            mov dx,[di-0x14]
00001DE1  01CA              add dx,cx
00001DE3  0B45F4            or ax,[di-0xc]
00001DE6  8902              mov [bp+si],ax
00001DE8  8B45F4            mov ax,[di-0xc]
00001DEB  C9                leave
00001DEC  C3                ret
00001DED  55                push bp
00001DEE  89E5              mov bp,sp
00001DF0  83EC10            sub sp,byte +0x10
00001DF3  E8BF02            call 0x20b5
00001DF6  0000              add [bx+si],al
00001DF8  059022            add ax,0x2290
00001DFB  0000              add [bx+si],al
00001DFD  C745FC0000        mov word [di-0x4],0x0
00001E02  0000              add [bx+si],al
00001E04  EB12              jmp short 0x1e18
00001E06  8B55FC            mov dx,[di-0x4]
00001E09  C78490784F00      mov word [si+0x7890],0x4f
00001E0F  0000              add [bx+si],al
00001E11  0000              add [bx+si],al
00001E13  008345FC          add [bp+di-0x3bb],al
00001E17  01817DFC          add [bx+di-0x383],ax
00001E1B  FF                db 0xff
00001E1C  7F00              jg 0x1e1e
00001E1E  007EE5            add [bp-0x1b],bh
00001E21  90                nop
00001E22  90                nop
00001E23  C9                leave
00001E24  C3                ret
00001E25  55                push bp
00001E26  89E5              mov bp,sp
00001E28  56                push si
00001E29  53                push bx
00001E2A  83EC10            sub sp,byte +0x10
00001E2D  E88502            call 0x20b5
00001E30  0000              add [bx+si],al
00001E32  055622            add ax,0x2256
00001E35  0000              add [bx+si],al
00001E37  C745F40100        mov word [di-0xc],0x1
00001E3C  0000              add [bx+si],al
00001E3E  C745F00000        mov word [di-0x10],0x0
00001E43  0000              add [bx+si],al
00001E45  EB24              jmp short 0x1e6b
00001E47  D165F4            shl word [di-0xc],1
00001E4A  837DF400          cmp word [di-0xc],byte +0x0
00001E4E  751B              jnz 0x1e6b
00001E50  C745F40100        mov word [di-0xc],0x1
00001E55  0000              add [bx+si],al
00001E57  8345F001          add word [di-0x10],byte +0x1
00001E5B  817DF0FF7F        cmp word [di-0x10],0x7fff
00001E60  0000              add [bx+si],al
00001E62  7607              jna 0x1e6b
00001E64  B80100            mov ax,0x1
00001E67  0000              add [bx+si],al
00001E69  EB47              jmp short 0x1eb2
00001E6B  8B55F0            mov dx,[di-0x10]
00001E6E  8B949078          mov dx,[si+0x7890]
00001E72  4F                dec di
00001E73  0000              add [bx+si],al
00001E75  2355F4            and dx,[di-0xc]
00001E78  85D2              test dx,dx
00001E7A  75CB              jnz 0x1e47
00001E7C  8B55F0            mov dx,[di-0x10]
00001E7F  8B949078          mov dx,[si+0x7890]
00001E83  4F                dec di
00001E84  0000              add [bx+si],al
00001E86  89D1              mov cx,dx
00001E88  0B4DF4            or cx,[di-0xc]
00001E8B  8B55F0            mov dx,[di-0x10]
00001E8E  898C9078          mov [si+0x7890],cx
00001E92  4F                dec di
00001E93  0000              add [bx+si],al
00001E95  8B55F0            mov dx,[di-0x10]
00001E98  89D6              mov si,dx
00001E9A  C1E605            shl si,byte 0x5
00001E9D  83EC0C            sub sp,byte +0xc
00001EA0  FF75F4            push word [di-0xc]
00001EA3  89C3              mov bx,ax
00001EA5  E8BC01            call 0x2064
00001EA8  0000              add [bx+si],al
00001EAA  83C410            add sp,byte +0x10
00001EAD  01F0              add ax,si
00001EAF  C1E00C            shl ax,byte 0xc
00001EB2  8D65F8            lea sp,[di-0x8]
00001EB5  5B                pop bx
00001EB6  5E                pop si
00001EB7  5D                pop bp
00001EB8  C3                ret
00001EB9  55                push bp
00001EBA  89E5              mov bp,sp
00001EBC  83EC20            sub sp,byte +0x20
00001EBF  E8F301            call 0x20b5
00001EC2  0000              add [bx+si],al
00001EC4  05C421            add ax,0x21c4
00001EC7  0000              add [bx+si],al
00001EC9  C745EB3031        mov word [di-0x15],0x3130
00001ECE  3233              xor dh,[bp+di]
00001ED0  C745EF3435        mov word [di-0x11],0x3534
00001ED5  3637              ss aaa
00001ED7  C745F33839        mov word [di-0xd],0x3938
00001EDC  41                inc cx
00001EDD  42                inc dx
00001EDE  C745F74344        mov word [di-0x9],0x4443
00001EE3  45                inc bp
00001EE4  46                inc si
00001EE5  C645FB00          mov byte [di-0x5],0x0
00001EE9  C745FC0700        mov word [di-0x4],0x7
00001EEE  0000              add [bx+si],al
00001EF0  EB22              jmp short 0x1f14
00001EF2  8B4508            mov ax,[di+0x8]
00001EF5  83E00F            and ax,byte +0xf
00001EF8  8B4DFC            mov cx,[di-0x4]
00001EFB  8B550C            mov dx,[di+0xc]
00001EFE  01CA              add dx,cx
00001F00  0FB64405          movzx ax,[si+0x5]
00001F04  EB88              jmp short 0x1e8e
00001F06  028B4508          add cl,[bp+di+0x845]
00001F0A  C1E804            shr ax,byte 0x4
00001F0D  894508            mov [di+0x8],ax
00001F10  836DFC01          sub word [di-0x4],byte +0x1
00001F14  837DFC00          cmp word [di-0x4],byte +0x0
00001F18  79D8              jns 0x1ef2
00001F1A  90                nop
00001F1B  90                nop
00001F1C  C9                leave
00001F1D  C3                ret
00001F1E  55                push bp
00001F1F  89E5              mov bp,sp
00001F21  53                push bx
00001F22  83EC14            sub sp,byte +0x14
00001F25  E86C01            call 0x2094
00001F28  0000              add [bx+si],al
00001F2A  81C35E21          add bx,0x215e
00001F2E  0000              add [bx+si],al
00001F30  8D45F0            lea ax,[di-0x10]
00001F33  50                push ax
00001F34  FF7508            push word [di+0x8]
00001F37  E87DFF            call 0x1eb7
00001F3A  FF                db 0xff
00001F3B  FF83C408          inc word [bp+di+0x8c4]
00001F3F  6A00              push byte +0x0
00001F41  6A0A              push byte +0xa
00001F43  6A08              push byte +0x8
00001F45  8D45F0            lea ax,[di-0x10]
00001F48  50                push ax
00001F49  E8ABF6            call 0x15f7
00001F4C  FF                db 0xff
00001F4D  FF83C410          inc word [bp+di+0x10c4]
00001F51  90                nop
00001F52  8B5DFC            mov bx,[di-0x4]
00001F55  C9                leave
00001F56  C3                ret
00001F57  55                push bp
00001F58  89E5              mov bp,sp
00001F5A  53                push bx
00001F5B  83EC14            sub sp,byte +0x14
00001F5E  E83301            call 0x2094
00001F61  0000              add [bx+si],al
00001F63  81C32521          add bx,0x2125
00001F67  0000              add [bx+si],al
00001F69  8D45F0            lea ax,[di-0x10]
00001F6C  50                push ax
00001F6D  FF7508            push word [di+0x8]
00001F70  E844FF            call 0x1eb7
00001F73  FF                db 0xff
00001F74  FF83C408          inc word [bp+di+0x8c4]
00001F78  83EC04            sub sp,byte +0x4
00001F7B  6A08              push byte +0x8
00001F7D  8D45F0            lea ax,[di-0x10]
00001F80  50                push ax
00001F81  68F803            push word 0x3f8
00001F84  0000              add [bx+si],al
00001F86  E858F8            call 0x17e1
00001F89  FF                db 0xff
00001F8A  FF83C410          inc word [bp+di+0x10c4]
00001F8E  90                nop
00001F8F  8B5DFC            mov bx,[di-0x4]
00001F92  C9                leave
00001F93  C3                ret
00001F94  55                push bp
00001F95  89E5              mov bp,sp
00001F97  53                push bx
00001F98  83EC14            sub sp,byte +0x14
00001F9B  E8F600            call 0x2094
00001F9E  0000              add [bx+si],al
00001FA0  81C3E820          add bx,0x20e8
00001FA4  0000              add [bx+si],al
00001FA6  8B83784F          mov ax,[bp+di+0x4f78]
00001FAA  0200              add al,[bx+si]
00001FAC  3DF803            cmp ax,0x3f8
00001FAF  0000              add [bx+si],al
00001FB1  7412              jz 0x1fc5
00001FB3  83EC08            sub sp,byte +0x8
00001FB6  6A01              push byte +0x1
00001FB8  68F803            push word 0x3f8
00001FBB  0000              add [bx+si],al
00001FBD  E8CAF8            call 0x188a
00001FC0  FF                db 0xff
00001FC1  FF83C410          inc word [bp+di+0x10c4]
00001FC5  C745F40000        mov word [di-0xc],0x0
00001FCA  0000              add [bx+si],al
00001FCC  EB23              jmp short 0x1ff1
00001FCE  8B55F4            mov dx,[di-0xc]
00001FD1  8B4508            mov ax,[di+0x8]
00001FD4  01D0              add ax,dx
00001FD6  0FB600            movzx ax,[bx+si]
00001FD9  0FBEC0            movsx ax,al
00001FDC  83EC08            sub sp,byte +0x8
00001FDF  50                push ax
00001FE0  68F803            push word 0x3f8
00001FE3  0000              add [bx+si],al
00001FE5  E84BF8            call 0x1833
00001FE8  FF                db 0xff
00001FE9  FF83C410          inc word [bp+di+0x10c4]
00001FED  8345F401          add word [di-0xc],byte +0x1
00001FF1  8B55F4            mov dx,[di-0xc]
00001FF4  8B4508            mov ax,[di+0x8]
00001FF7  01D0              add ax,dx
00001FF9  0FB600            movzx ax,[bx+si]
00001FFC  84C0              test al,al
00001FFE  75CE              jnz 0x1fce
00002000  83EC08            sub sp,byte +0x8
00002003  6A0A              push byte +0xa
00002005  68F803            push word 0x3f8
00002008  0000              add [bx+si],al
0000200A  E826F8            call 0x1833
0000200D  FF                db 0xff
0000200E  FF83C410          inc word [bp+di+0x10c4]
00002012  90                nop
00002013  8B5DFC            mov bx,[di-0x4]
00002016  C9                leave
00002017  C3                ret
00002018  55                push bp
00002019  89E5              mov bp,sp
0000201B  83EC18            sub sp,byte +0x18
0000201E  E89400            call 0x20b5
00002021  0000              add [bx+si],al
00002023  056520            add ax,0x2065
00002026  0000              add [bx+si],al
00002028  8D45EF            lea ax,[di-0x11]
0000202B  50                push ax
0000202C  FF7508            push word [di+0x8]
0000202F  E885FE            call 0x1eb7
00002032  FF                db 0xff
00002033  FF83C408          inc word [bp+di+0x8c4]
00002037  C645F700          mov byte [di-0x9],0x0
0000203B  83EC0C            sub sp,byte +0xc
0000203E  8D45EF            lea ax,[di-0x11]
00002041  50                push ax
00002042  E84DFF            call 0x1f92
00002045  FF                db 0xff
00002046  FF83C410          inc word [bp+di+0x10c4]
0000204A  90                nop
0000204B  C9                leave
0000204C  C3                ret
0000204D  6690              xchg eax,eax
0000204F  90                nop
00002050  8B5C24            mov bx,[si+0x24]
00002053  048B              add al,0x8b
00002055  4C                dec sp
00002056  2408              and al,0x8
00002058  8B5424            mov dx,[si+0x24]
0000205B  0C8B              or al,0x8b
0000205D  0493              add al,0x93
0000205F  8904              mov [si],ax
00002061  91                xchg ax,cx
00002062  4A                dec dx
00002063  79F7              jns 0x205c
00002065  C3                ret
00002066  55                push bp
00002067  89E5              mov bp,sp
00002069  83EC10            sub sp,byte +0x10
0000206C  E84600            call 0x20b5
0000206F  0000              add [bx+si],al
00002071  051720            add ax,0x2017
00002074  0000              add [bx+si],al
00002076  C745FC0000        mov word [di-0x4],0x0
0000207B  0000              add [bx+si],al
0000207D  EB0C              jmp short 0x208b
0000207F  8B4508            mov ax,[di+0x8]
00002082  D1E8              shr ax,1
00002084  894508            mov [di+0x8],ax
00002087  8345FC01          add word [di-0x4],byte +0x1
0000208B  837D0801          cmp word [di+0x8],byte +0x1
0000208F  77EE              ja 0x207f
00002091  8B45FC            mov ax,[di-0x4]
00002094  C9                leave
00002095  C3                ret
00002096  8B1C              mov bx,[si]
00002098  24C3              and al,0xc3
0000209A  8B0C              mov cx,[si]
0000209C  24C3              and al,0xc3
0000209E  55                push bp
0000209F  89E5              mov bp,sp
000020A1  E81100            call 0x20b5
000020A4  0000              add [bx+si],al
000020A6  05E21F            add ax,0x1fe2
000020A9  0000              add [bx+si],al
000020AB  8B4508            mov ax,[di+0x8]
000020AE  C7000000          mov word [bx+si],0x0
000020B2  0000              add [bx+si],al
000020B4  90                nop
000020B5  5D                pop bp
000020B6  C3                ret
000020B7  8B04              mov ax,[si]
000020B9  24C3              and al,0xc3
000020BB  0000              add [bx+si],al
000020BD  0000              add [bx+si],al
000020BF  0000              add [bx+si],al
000020C1  0000              add [bx+si],al
000020C3  0000              add [bx+si],al
000020C5  0000              add [bx+si],al
000020C7  0000              add [bx+si],al
000020C9  0000              add [bx+si],al
000020CB  0000              add [bx+si],al
000020CD  0000              add [bx+si],al
000020CF  0000              add [bx+si],al
000020D1  0000              add [bx+si],al
000020D3  0000              add [bx+si],al
000020D5  0000              add [bx+si],al
000020D7  0000              add [bx+si],al
000020D9  0000              add [bx+si],al
000020DB  0000              add [bx+si],al
000020DD  0000              add [bx+si],al
000020DF  0000              add [bx+si],al
000020E1  0000              add [bx+si],al
000020E3  0000              add [bx+si],al
000020E5  0000              add [bx+si],al
000020E7  0000              add [bx+si],al
000020E9  0000              add [bx+si],al
000020EB  0000              add [bx+si],al
000020ED  0000              add [bx+si],al
000020EF  0000              add [bx+si],al
000020F1  0000              add [bx+si],al
000020F3  0000              add [bx+si],al
000020F5  0000              add [bx+si],al
000020F7  0000              add [bx+si],al
000020F9  0000              add [bx+si],al
000020FB  0000              add [bx+si],al
000020FD  0000              add [bx+si],al
000020FF  0000              add [bx+si],al
00002101  0000              add [bx+si],al
00002103  0000              add [bx+si],al
00002105  0000              add [bx+si],al
00002107  0000              add [bx+si],al
00002109  0000              add [bx+si],al
0000210B  0000              add [bx+si],al
0000210D  0000              add [bx+si],al
0000210F  0000              add [bx+si],al
00002111  0000              add [bx+si],al
00002113  0000              add [bx+si],al
00002115  0000              add [bx+si],al
00002117  0000              add [bx+si],al
00002119  0000              add [bx+si],al
0000211B  0000              add [bx+si],al
0000211D  0000              add [bx+si],al
0000211F  0000              add [bx+si],al
00002121  0000              add [bx+si],al
00002123  0000              add [bx+si],al
00002125  0000              add [bx+si],al
00002127  0000              add [bx+si],al
00002129  0000              add [bx+si],al
0000212B  0000              add [bx+si],al
0000212D  0000              add [bx+si],al
0000212F  0000              add [bx+si],al
00002131  0000              add [bx+si],al
00002133  0000              add [bx+si],al
00002135  0000              add [bx+si],al
00002137  0000              add [bx+si],al
00002139  0000              add [bx+si],al
0000213B  0000              add [bx+si],al
0000213D  0000              add [bx+si],al
0000213F  0000              add [bx+si],al
00002141  0000              add [bx+si],al
00002143  0000              add [bx+si],al
00002145  0000              add [bx+si],al
00002147  0000              add [bx+si],al
00002149  0000              add [bx+si],al
0000214B  0000              add [bx+si],al
0000214D  0000              add [bx+si],al
0000214F  0000              add [bx+si],al
00002151  0000              add [bx+si],al
00002153  0000              add [bx+si],al
00002155  0000              add [bx+si],al
00002157  0000              add [bx+si],al
00002159  0000              add [bx+si],al
0000215B  0000              add [bx+si],al
0000215D  0000              add [bx+si],al
0000215F  0000              add [bx+si],al
00002161  0000              add [bx+si],al
00002163  0000              add [bx+si],al
00002165  0000              add [bx+si],al
00002167  0000              add [bx+si],al
00002169  0000              add [bx+si],al
0000216B  0000              add [bx+si],al
0000216D  0000              add [bx+si],al
0000216F  0000              add [bx+si],al
00002171  0000              add [bx+si],al
00002173  0000              add [bx+si],al
00002175  0000              add [bx+si],al
00002177  0000              add [bx+si],al
00002179  0000              add [bx+si],al
0000217B  0000              add [bx+si],al
0000217D  0000              add [bx+si],al
0000217F  0000              add [bx+si],al
00002181  0000              add [bx+si],al
00002183  0000              add [bx+si],al
00002185  0000              add [bx+si],al
00002187  0000              add [bx+si],al
00002189  0000              add [bx+si],al
0000218B  0000              add [bx+si],al
0000218D  0000              add [bx+si],al
0000218F  0000              add [bx+si],al
00002191  0000              add [bx+si],al
00002193  0000              add [bx+si],al
00002195  0000              add [bx+si],al
00002197  0000              add [bx+si],al
00002199  0000              add [bx+si],al
0000219B  0000              add [bx+si],al
0000219D  0000              add [bx+si],al
0000219F  0000              add [bx+si],al
000021A1  0000              add [bx+si],al
000021A3  0000              add [bx+si],al
000021A5  0000              add [bx+si],al
000021A7  0000              add [bx+si],al
000021A9  0000              add [bx+si],al
000021AB  0000              add [bx+si],al
000021AD  0000              add [bx+si],al
000021AF  0000              add [bx+si],al
000021B1  0000              add [bx+si],al
000021B3  0000              add [bx+si],al
000021B5  0000              add [bx+si],al
000021B7  0000              add [bx+si],al
000021B9  0000              add [bx+si],al
000021BB  0000              add [bx+si],al
000021BD  0000              add [bx+si],al
000021BF  0000              add [bx+si],al
000021C1  0000              add [bx+si],al
000021C3  0000              add [bx+si],al
000021C5  0000              add [bx+si],al
000021C7  0000              add [bx+si],al
000021C9  0000              add [bx+si],al
000021CB  0000              add [bx+si],al
000021CD  0000              add [bx+si],al
000021CF  0000              add [bx+si],al
000021D1  0000              add [bx+si],al
000021D3  0000              add [bx+si],al
000021D5  0000              add [bx+si],al
000021D7  0000              add [bx+si],al
000021D9  0000              add [bx+si],al
000021DB  0000              add [bx+si],al
000021DD  0000              add [bx+si],al
000021DF  0000              add [bx+si],al
000021E1  0000              add [bx+si],al
000021E3  0000              add [bx+si],al
000021E5  0000              add [bx+si],al
000021E7  0000              add [bx+si],al
000021E9  0000              add [bx+si],al
000021EB  0000              add [bx+si],al
000021ED  0000              add [bx+si],al
000021EF  0000              add [bx+si],al
000021F1  0000              add [bx+si],al
000021F3  0000              add [bx+si],al
000021F5  0000              add [bx+si],al
000021F7  0000              add [bx+si],al
000021F9  0000              add [bx+si],al
000021FB  0000              add [bx+si],al
000021FD  0000              add [bx+si],al
000021FF  0000              add [bx+si],al
00002201  0000              add [bx+si],al
00002203  0000              add [bx+si],al
00002205  0000              add [bx+si],al
00002207  0000              add [bx+si],al
00002209  0000              add [bx+si],al
0000220B  0000              add [bx+si],al
0000220D  0000              add [bx+si],al
0000220F  0000              add [bx+si],al
00002211  0000              add [bx+si],al
00002213  0000              add [bx+si],al
00002215  0000              add [bx+si],al
00002217  0000              add [bx+si],al
00002219  0000              add [bx+si],al
0000221B  0000              add [bx+si],al
0000221D  0000              add [bx+si],al
0000221F  0000              add [bx+si],al
00002221  0000              add [bx+si],al
00002223  0000              add [bx+si],al
00002225  0000              add [bx+si],al
00002227  0000              add [bx+si],al
00002229  0000              add [bx+si],al
0000222B  0000              add [bx+si],al
0000222D  0000              add [bx+si],al
0000222F  0000              add [bx+si],al
00002231  0000              add [bx+si],al
00002233  0000              add [bx+si],al
00002235  0000              add [bx+si],al
00002237  0000              add [bx+si],al
00002239  0000              add [bx+si],al
0000223B  0000              add [bx+si],al
0000223D  0000              add [bx+si],al
0000223F  0000              add [bx+si],al
00002241  0000              add [bx+si],al
00002243  0000              add [bx+si],al
00002245  0000              add [bx+si],al
00002247  0000              add [bx+si],al
00002249  0000              add [bx+si],al
0000224B  0000              add [bx+si],al
0000224D  0000              add [bx+si],al
0000224F  0000              add [bx+si],al
00002251  0000              add [bx+si],al
00002253  0000              add [bx+si],al
00002255  0000              add [bx+si],al
00002257  0000              add [bx+si],al
00002259  0000              add [bx+si],al
0000225B  0000              add [bx+si],al
0000225D  0000              add [bx+si],al
0000225F  0000              add [bx+si],al
00002261  0000              add [bx+si],al
00002263  0000              add [bx+si],al
00002265  0000              add [bx+si],al
00002267  0000              add [bx+si],al
00002269  0000              add [bx+si],al
0000226B  0000              add [bx+si],al
0000226D  0000              add [bx+si],al
0000226F  0000              add [bx+si],al
00002271  0000              add [bx+si],al
00002273  0000              add [bx+si],al
00002275  0000              add [bx+si],al
00002277  0000              add [bx+si],al
00002279  0000              add [bx+si],al
0000227B  0000              add [bx+si],al
0000227D  0000              add [bx+si],al
0000227F  0000              add [bx+si],al
00002281  0000              add [bx+si],al
00002283  0000              add [bx+si],al
00002285  0000              add [bx+si],al
00002287  0000              add [bx+si],al
00002289  0000              add [bx+si],al
0000228B  0000              add [bx+si],al
0000228D  0000              add [bx+si],al
0000228F  0000              add [bx+si],al
00002291  0000              add [bx+si],al
00002293  0000              add [bx+si],al
00002295  0000              add [bx+si],al
00002297  0000              add [bx+si],al
00002299  0000              add [bx+si],al
0000229B  0000              add [bx+si],al
0000229D  0000              add [bx+si],al
0000229F  0000              add [bx+si],al
000022A1  0000              add [bx+si],al
000022A3  0000              add [bx+si],al
000022A5  0000              add [bx+si],al
000022A7  0000              add [bx+si],al
000022A9  0000              add [bx+si],al
000022AB  0000              add [bx+si],al
000022AD  0000              add [bx+si],al
000022AF  0000              add [bx+si],al
000022B1  0000              add [bx+si],al
000022B3  0000              add [bx+si],al
000022B5  0000              add [bx+si],al
000022B7  0000              add [bx+si],al
000022B9  0000              add [bx+si],al
000022BB  0000              add [bx+si],al
000022BD  0000              add [bx+si],al
000022BF  0000              add [bx+si],al
000022C1  0000              add [bx+si],al
000022C3  0000              add [bx+si],al
000022C5  0000              add [bx+si],al
000022C7  0000              add [bx+si],al
000022C9  0000              add [bx+si],al
000022CB  0000              add [bx+si],al
000022CD  0000              add [bx+si],al
000022CF  0000              add [bx+si],al
000022D1  0000              add [bx+si],al
000022D3  0000              add [bx+si],al
000022D5  0000              add [bx+si],al
000022D7  0000              add [bx+si],al
000022D9  0000              add [bx+si],al
000022DB  0000              add [bx+si],al
000022DD  0000              add [bx+si],al
000022DF  0000              add [bx+si],al
000022E1  0000              add [bx+si],al
000022E3  0000              add [bx+si],al
000022E5  0000              add [bx+si],al
000022E7  0000              add [bx+si],al
000022E9  0000              add [bx+si],al
000022EB  0000              add [bx+si],al
000022ED  0000              add [bx+si],al
000022EF  0000              add [bx+si],al
000022F1  0000              add [bx+si],al
000022F3  0000              add [bx+si],al
000022F5  0000              add [bx+si],al
000022F7  0000              add [bx+si],al
000022F9  0000              add [bx+si],al
000022FB  0000              add [bx+si],al
000022FD  0000              add [bx+si],al
000022FF  0000              add [bx+si],al
00002301  0000              add [bx+si],al
00002303  0000              add [bx+si],al
00002305  0000              add [bx+si],al
00002307  0000              add [bx+si],al
00002309  0000              add [bx+si],al
0000230B  0000              add [bx+si],al
0000230D  0000              add [bx+si],al
0000230F  0000              add [bx+si],al
00002311  0000              add [bx+si],al
00002313  0000              add [bx+si],al
00002315  0000              add [bx+si],al
00002317  0000              add [bx+si],al
00002319  0000              add [bx+si],al
0000231B  0000              add [bx+si],al
0000231D  0000              add [bx+si],al
0000231F  0000              add [bx+si],al
00002321  0000              add [bx+si],al
00002323  0000              add [bx+si],al
00002325  0000              add [bx+si],al
00002327  0000              add [bx+si],al
00002329  0000              add [bx+si],al
0000232B  0000              add [bx+si],al
0000232D  0000              add [bx+si],al
0000232F  0000              add [bx+si],al
00002331  0000              add [bx+si],al
00002333  0000              add [bx+si],al
00002335  0000              add [bx+si],al
00002337  0000              add [bx+si],al
00002339  0000              add [bx+si],al
0000233B  0000              add [bx+si],al
0000233D  0000              add [bx+si],al
0000233F  0000              add [bx+si],al
00002341  0000              add [bx+si],al
00002343  0000              add [bx+si],al
00002345  0000              add [bx+si],al
00002347  0000              add [bx+si],al
00002349  0000              add [bx+si],al
0000234B  0000              add [bx+si],al
0000234D  0000              add [bx+si],al
0000234F  0000              add [bx+si],al
00002351  0000              add [bx+si],al
00002353  0000              add [bx+si],al
00002355  0000              add [bx+si],al
00002357  0000              add [bx+si],al
00002359  0000              add [bx+si],al
0000235B  0000              add [bx+si],al
0000235D  0000              add [bx+si],al
0000235F  0000              add [bx+si],al
00002361  0000              add [bx+si],al
00002363  0000              add [bx+si],al
00002365  0000              add [bx+si],al
00002367  0000              add [bx+si],al
00002369  0000              add [bx+si],al
0000236B  0000              add [bx+si],al
0000236D  0000              add [bx+si],al
0000236F  0000              add [bx+si],al
00002371  0000              add [bx+si],al
00002373  0000              add [bx+si],al
00002375  0000              add [bx+si],al
00002377  0000              add [bx+si],al
00002379  0000              add [bx+si],al
0000237B  0000              add [bx+si],al
0000237D  0000              add [bx+si],al
0000237F  0000              add [bx+si],al
00002381  0000              add [bx+si],al
00002383  0000              add [bx+si],al
00002385  0000              add [bx+si],al
00002387  0000              add [bx+si],al
00002389  0000              add [bx+si],al
0000238B  0000              add [bx+si],al
0000238D  0000              add [bx+si],al
0000238F  0000              add [bx+si],al
00002391  0000              add [bx+si],al
00002393  0000              add [bx+si],al
00002395  0000              add [bx+si],al
00002397  0000              add [bx+si],al
00002399  0000              add [bx+si],al
0000239B  0000              add [bx+si],al
0000239D  0000              add [bx+si],al
0000239F  0000              add [bx+si],al
000023A1  0000              add [bx+si],al
000023A3  0000              add [bx+si],al
000023A5  0000              add [bx+si],al
000023A7  0000              add [bx+si],al
000023A9  0000              add [bx+si],al
000023AB  0000              add [bx+si],al
000023AD  0000              add [bx+si],al
000023AF  0000              add [bx+si],al
000023B1  0000              add [bx+si],al
000023B3  0000              add [bx+si],al
000023B5  0000              add [bx+si],al
000023B7  0000              add [bx+si],al
000023B9  0000              add [bx+si],al
000023BB  0000              add [bx+si],al
000023BD  0000              add [bx+si],al
000023BF  0000              add [bx+si],al
000023C1  0000              add [bx+si],al
000023C3  0000              add [bx+si],al
000023C5  0000              add [bx+si],al
000023C7  0000              add [bx+si],al
000023C9  0000              add [bx+si],al
000023CB  0000              add [bx+si],al
000023CD  0000              add [bx+si],al
000023CF  0000              add [bx+si],al
000023D1  0000              add [bx+si],al
000023D3  0000              add [bx+si],al
000023D5  0000              add [bx+si],al
000023D7  0000              add [bx+si],al
000023D9  0000              add [bx+si],al
000023DB  0000              add [bx+si],al
000023DD  0000              add [bx+si],al
000023DF  0000              add [bx+si],al
000023E1  0000              add [bx+si],al
000023E3  0000              add [bx+si],al
000023E5  0000              add [bx+si],al
000023E7  0000              add [bx+si],al
000023E9  0000              add [bx+si],al
000023EB  0000              add [bx+si],al
000023ED  0000              add [bx+si],al
000023EF  0000              add [bx+si],al
000023F1  0000              add [bx+si],al
000023F3  0000              add [bx+si],al
000023F5  0000              add [bx+si],al
000023F7  0000              add [bx+si],al
000023F9  0000              add [bx+si],al
000023FB  0000              add [bx+si],al
000023FD  0000              add [bx+si],al
000023FF  0000              add [bx+si],al
00002401  0000              add [bx+si],al
00002403  0000              add [bx+si],al
00002405  0000              add [bx+si],al
00002407  0000              add [bx+si],al
00002409  0000              add [bx+si],al
0000240B  0000              add [bx+si],al
0000240D  0000              add [bx+si],al
0000240F  0000              add [bx+si],al
00002411  0000              add [bx+si],al
00002413  0000              add [bx+si],al
00002415  0000              add [bx+si],al
00002417  0000              add [bx+si],al
00002419  0000              add [bx+si],al
0000241B  0000              add [bx+si],al
0000241D  0000              add [bx+si],al
0000241F  0000              add [bx+si],al
00002421  0000              add [bx+si],al
00002423  0000              add [bx+si],al
00002425  0000              add [bx+si],al
00002427  0000              add [bx+si],al
00002429  0000              add [bx+si],al
0000242B  0000              add [bx+si],al
0000242D  0000              add [bx+si],al
0000242F  0000              add [bx+si],al
00002431  0000              add [bx+si],al
00002433  0000              add [bx+si],al
00002435  0000              add [bx+si],al
00002437  0000              add [bx+si],al
00002439  0000              add [bx+si],al
0000243B  0000              add [bx+si],al
0000243D  0000              add [bx+si],al
0000243F  0000              add [bx+si],al
00002441  0000              add [bx+si],al
00002443  0000              add [bx+si],al
00002445  0000              add [bx+si],al
00002447  0000              add [bx+si],al
00002449  0000              add [bx+si],al
0000244B  0000              add [bx+si],al
0000244D  0000              add [bx+si],al
0000244F  0000              add [bx+si],al
00002451  0000              add [bx+si],al
00002453  0000              add [bx+si],al
00002455  0000              add [bx+si],al
00002457  0000              add [bx+si],al
00002459  0000              add [bx+si],al
0000245B  0000              add [bx+si],al
0000245D  0000              add [bx+si],al
0000245F  0000              add [bx+si],al
00002461  0000              add [bx+si],al
00002463  0000              add [bx+si],al
00002465  0000              add [bx+si],al
00002467  0000              add [bx+si],al
00002469  0000              add [bx+si],al
0000246B  0000              add [bx+si],al
0000246D  0000              add [bx+si],al
0000246F  0000              add [bx+si],al
00002471  0000              add [bx+si],al
00002473  0000              add [bx+si],al
00002475  0000              add [bx+si],al
00002477  0000              add [bx+si],al
00002479  0000              add [bx+si],al
0000247B  0000              add [bx+si],al
0000247D  0000              add [bx+si],al
0000247F  0000              add [bx+si],al
00002481  0000              add [bx+si],al
00002483  0000              add [bx+si],al
00002485  0000              add [bx+si],al
00002487  0000              add [bx+si],al
00002489  0000              add [bx+si],al
0000248B  0000              add [bx+si],al
0000248D  0000              add [bx+si],al
0000248F  0000              add [bx+si],al
00002491  0000              add [bx+si],al
00002493  0000              add [bx+si],al
00002495  0000              add [bx+si],al
00002497  0000              add [bx+si],al
00002499  0000              add [bx+si],al
0000249B  0000              add [bx+si],al
0000249D  0000              add [bx+si],al
0000249F  0000              add [bx+si],al
000024A1  0000              add [bx+si],al
000024A3  0000              add [bx+si],al
000024A5  0000              add [bx+si],al
000024A7  0000              add [bx+si],al
000024A9  0000              add [bx+si],al
000024AB  0000              add [bx+si],al
000024AD  0000              add [bx+si],al
000024AF  0000              add [bx+si],al
000024B1  0000              add [bx+si],al
000024B3  0000              add [bx+si],al
000024B5  0000              add [bx+si],al
000024B7  0000              add [bx+si],al
000024B9  0000              add [bx+si],al
000024BB  0000              add [bx+si],al
000024BD  0000              add [bx+si],al
000024BF  0000              add [bx+si],al
000024C1  0000              add [bx+si],al
000024C3  0000              add [bx+si],al
000024C5  0000              add [bx+si],al
000024C7  0000              add [bx+si],al
000024C9  0000              add [bx+si],al
000024CB  0000              add [bx+si],al
000024CD  0000              add [bx+si],al
000024CF  0000              add [bx+si],al
000024D1  0000              add [bx+si],al
000024D3  0000              add [bx+si],al
000024D5  0000              add [bx+si],al
000024D7  0000              add [bx+si],al
000024D9  0000              add [bx+si],al
000024DB  0000              add [bx+si],al
000024DD  0000              add [bx+si],al
000024DF  0000              add [bx+si],al
000024E1  0000              add [bx+si],al
000024E3  0000              add [bx+si],al
000024E5  0000              add [bx+si],al
000024E7  0000              add [bx+si],al
000024E9  0000              add [bx+si],al
000024EB  0000              add [bx+si],al
000024ED  0000              add [bx+si],al
000024EF  0000              add [bx+si],al
000024F1  0000              add [bx+si],al
000024F3  0000              add [bx+si],al
000024F5  0000              add [bx+si],al
000024F7  0000              add [bx+si],al
000024F9  0000              add [bx+si],al
000024FB  0000              add [bx+si],al
000024FD  0000              add [bx+si],al
000024FF  0000              add [bx+si],al
00002501  0000              add [bx+si],al
00002503  0000              add [bx+si],al
00002505  0000              add [bx+si],al
00002507  0000              add [bx+si],al
00002509  0000              add [bx+si],al
0000250B  0000              add [bx+si],al
0000250D  0000              add [bx+si],al
0000250F  0000              add [bx+si],al
00002511  0000              add [bx+si],al
00002513  0000              add [bx+si],al
00002515  0000              add [bx+si],al
00002517  0000              add [bx+si],al
00002519  0000              add [bx+si],al
0000251B  0000              add [bx+si],al
0000251D  0000              add [bx+si],al
0000251F  0000              add [bx+si],al
00002521  0000              add [bx+si],al
00002523  0000              add [bx+si],al
00002525  0000              add [bx+si],al
00002527  0000              add [bx+si],al
00002529  0000              add [bx+si],al
0000252B  0000              add [bx+si],al
0000252D  0000              add [bx+si],al
0000252F  0000              add [bx+si],al
00002531  0000              add [bx+si],al
00002533  0000              add [bx+si],al
00002535  0000              add [bx+si],al
00002537  0000              add [bx+si],al
00002539  0000              add [bx+si],al
0000253B  0000              add [bx+si],al
0000253D  0000              add [bx+si],al
0000253F  0000              add [bx+si],al
00002541  0000              add [bx+si],al
00002543  0000              add [bx+si],al
00002545  0000              add [bx+si],al
00002547  0000              add [bx+si],al
00002549  0000              add [bx+si],al
0000254B  0000              add [bx+si],al
0000254D  0000              add [bx+si],al
0000254F  0000              add [bx+si],al
00002551  0000              add [bx+si],al
00002553  0000              add [bx+si],al
00002555  0000              add [bx+si],al
00002557  0000              add [bx+si],al
00002559  0000              add [bx+si],al
0000255B  0000              add [bx+si],al
0000255D  0000              add [bx+si],al
0000255F  0000              add [bx+si],al
00002561  0000              add [bx+si],al
00002563  0000              add [bx+si],al
00002565  0000              add [bx+si],al
00002567  0000              add [bx+si],al
00002569  0000              add [bx+si],al
0000256B  0000              add [bx+si],al
0000256D  0000              add [bx+si],al
0000256F  0000              add [bx+si],al
00002571  0000              add [bx+si],al
00002573  0000              add [bx+si],al
00002575  0000              add [bx+si],al
00002577  0000              add [bx+si],al
00002579  0000              add [bx+si],al
0000257B  0000              add [bx+si],al
0000257D  0000              add [bx+si],al
0000257F  0000              add [bx+si],al
00002581  0000              add [bx+si],al
00002583  0000              add [bx+si],al
00002585  0000              add [bx+si],al
00002587  0000              add [bx+si],al
00002589  0000              add [bx+si],al
0000258B  0000              add [bx+si],al
0000258D  0000              add [bx+si],al
0000258F  0000              add [bx+si],al
00002591  0000              add [bx+si],al
00002593  0000              add [bx+si],al
00002595  0000              add [bx+si],al
00002597  0000              add [bx+si],al
00002599  0000              add [bx+si],al
0000259B  0000              add [bx+si],al
0000259D  0000              add [bx+si],al
0000259F  0000              add [bx+si],al
000025A1  0000              add [bx+si],al
000025A3  0000              add [bx+si],al
000025A5  0000              add [bx+si],al
000025A7  0000              add [bx+si],al
000025A9  0000              add [bx+si],al
000025AB  0000              add [bx+si],al
000025AD  0000              add [bx+si],al
000025AF  0000              add [bx+si],al
000025B1  0000              add [bx+si],al
000025B3  0000              add [bx+si],al
000025B5  0000              add [bx+si],al
000025B7  0000              add [bx+si],al
000025B9  0000              add [bx+si],al
000025BB  0000              add [bx+si],al
000025BD  0000              add [bx+si],al
000025BF  0000              add [bx+si],al
000025C1  0000              add [bx+si],al
000025C3  0000              add [bx+si],al
000025C5  0000              add [bx+si],al
000025C7  0000              add [bx+si],al
000025C9  0000              add [bx+si],al
000025CB  0000              add [bx+si],al
000025CD  0000              add [bx+si],al
000025CF  0000              add [bx+si],al
000025D1  0000              add [bx+si],al
000025D3  0000              add [bx+si],al
000025D5  0000              add [bx+si],al
000025D7  0000              add [bx+si],al
000025D9  0000              add [bx+si],al
000025DB  0000              add [bx+si],al
000025DD  0000              add [bx+si],al
000025DF  0000              add [bx+si],al
000025E1  0000              add [bx+si],al
000025E3  0000              add [bx+si],al
000025E5  0000              add [bx+si],al
000025E7  0000              add [bx+si],al
000025E9  0000              add [bx+si],al
000025EB  0000              add [bx+si],al
000025ED  0000              add [bx+si],al
000025EF  0000              add [bx+si],al
000025F1  0000              add [bx+si],al
000025F3  0000              add [bx+si],al
000025F5  0000              add [bx+si],al
000025F7  0000              add [bx+si],al
000025F9  0000              add [bx+si],al
000025FB  0000              add [bx+si],al
000025FD  0000              add [bx+si],al
000025FF  0000              add [bx+si],al
00002601  0000              add [bx+si],al
00002603  0000              add [bx+si],al
00002605  0000              add [bx+si],al
00002607  0000              add [bx+si],al
00002609  0000              add [bx+si],al
0000260B  0000              add [bx+si],al
0000260D  0000              add [bx+si],al
0000260F  0000              add [bx+si],al
00002611  0000              add [bx+si],al
00002613  0000              add [bx+si],al
00002615  0000              add [bx+si],al
00002617  0000              add [bx+si],al
00002619  0000              add [bx+si],al
0000261B  0000              add [bx+si],al
0000261D  0000              add [bx+si],al
0000261F  0000              add [bx+si],al
00002621  0000              add [bx+si],al
00002623  0000              add [bx+si],al
00002625  0000              add [bx+si],al
00002627  0000              add [bx+si],al
00002629  0000              add [bx+si],al
0000262B  0000              add [bx+si],al
0000262D  0000              add [bx+si],al
0000262F  0000              add [bx+si],al
00002631  0000              add [bx+si],al
00002633  0000              add [bx+si],al
00002635  0000              add [bx+si],al
00002637  0000              add [bx+si],al
00002639  0000              add [bx+si],al
0000263B  0000              add [bx+si],al
0000263D  0000              add [bx+si],al
0000263F  0000              add [bx+si],al
00002641  0000              add [bx+si],al
00002643  0000              add [bx+si],al
00002645  0000              add [bx+si],al
00002647  0000              add [bx+si],al
00002649  0000              add [bx+si],al
0000264B  0000              add [bx+si],al
0000264D  0000              add [bx+si],al
0000264F  0000              add [bx+si],al
00002651  0000              add [bx+si],al
00002653  0000              add [bx+si],al
00002655  0000              add [bx+si],al
00002657  0000              add [bx+si],al
00002659  0000              add [bx+si],al
0000265B  0000              add [bx+si],al
0000265D  0000              add [bx+si],al
0000265F  0000              add [bx+si],al
00002661  0000              add [bx+si],al
00002663  0000              add [bx+si],al
00002665  0000              add [bx+si],al
00002667  0000              add [bx+si],al
00002669  0000              add [bx+si],al
0000266B  0000              add [bx+si],al
0000266D  0000              add [bx+si],al
0000266F  0000              add [bx+si],al
00002671  0000              add [bx+si],al
00002673  0000              add [bx+si],al
00002675  0000              add [bx+si],al
00002677  0000              add [bx+si],al
00002679  0000              add [bx+si],al
0000267B  0000              add [bx+si],al
0000267D  0000              add [bx+si],al
0000267F  0000              add [bx+si],al
00002681  0000              add [bx+si],al
00002683  0000              add [bx+si],al
00002685  0000              add [bx+si],al
00002687  0000              add [bx+si],al
00002689  0000              add [bx+si],al
0000268B  0000              add [bx+si],al
0000268D  0000              add [bx+si],al
0000268F  0000              add [bx+si],al
00002691  0000              add [bx+si],al
00002693  0000              add [bx+si],al
00002695  0000              add [bx+si],al
00002697  0000              add [bx+si],al
00002699  0000              add [bx+si],al
0000269B  0000              add [bx+si],al
0000269D  0000              add [bx+si],al
0000269F  0000              add [bx+si],al
000026A1  0000              add [bx+si],al
000026A3  0000              add [bx+si],al
000026A5  0000              add [bx+si],al
000026A7  0000              add [bx+si],al
000026A9  0000              add [bx+si],al
000026AB  0000              add [bx+si],al
000026AD  0000              add [bx+si],al
000026AF  0000              add [bx+si],al
000026B1  0000              add [bx+si],al
000026B3  0000              add [bx+si],al
000026B5  0000              add [bx+si],al
000026B7  0000              add [bx+si],al
000026B9  0000              add [bx+si],al
000026BB  0000              add [bx+si],al
000026BD  0000              add [bx+si],al
000026BF  0000              add [bx+si],al
000026C1  0000              add [bx+si],al
000026C3  0000              add [bx+si],al
000026C5  0000              add [bx+si],al
000026C7  0000              add [bx+si],al
000026C9  0000              add [bx+si],al
000026CB  0000              add [bx+si],al
000026CD  0000              add [bx+si],al
000026CF  0000              add [bx+si],al
000026D1  0000              add [bx+si],al
000026D3  0000              add [bx+si],al
000026D5  0000              add [bx+si],al
000026D7  0000              add [bx+si],al
000026D9  0000              add [bx+si],al
000026DB  0000              add [bx+si],al
000026DD  0000              add [bx+si],al
000026DF  0000              add [bx+si],al
000026E1  0000              add [bx+si],al
000026E3  0000              add [bx+si],al
000026E5  0000              add [bx+si],al
000026E7  0000              add [bx+si],al
000026E9  0000              add [bx+si],al
000026EB  0000              add [bx+si],al
000026ED  0000              add [bx+si],al
000026EF  0000              add [bx+si],al
000026F1  0000              add [bx+si],al
000026F3  0000              add [bx+si],al
000026F5  0000              add [bx+si],al
000026F7  0000              add [bx+si],al
000026F9  0000              add [bx+si],al
000026FB  0000              add [bx+si],al
000026FD  0000              add [bx+si],al
000026FF  0000              add [bx+si],al
00002701  0000              add [bx+si],al
00002703  0000              add [bx+si],al
00002705  0000              add [bx+si],al
00002707  0000              add [bx+si],al
00002709  0000              add [bx+si],al
0000270B  0000              add [bx+si],al
0000270D  0000              add [bx+si],al
0000270F  0000              add [bx+si],al
00002711  0000              add [bx+si],al
00002713  0000              add [bx+si],al
00002715  0000              add [bx+si],al
00002717  0000              add [bx+si],al
00002719  0000              add [bx+si],al
0000271B  0000              add [bx+si],al
0000271D  0000              add [bx+si],al
0000271F  0000              add [bx+si],al
00002721  0000              add [bx+si],al
00002723  0000              add [bx+si],al
00002725  0000              add [bx+si],al
00002727  0000              add [bx+si],al
00002729  0000              add [bx+si],al
0000272B  0000              add [bx+si],al
0000272D  0000              add [bx+si],al
0000272F  0000              add [bx+si],al
00002731  0000              add [bx+si],al
00002733  0000              add [bx+si],al
00002735  0000              add [bx+si],al
00002737  0000              add [bx+si],al
00002739  0000              add [bx+si],al
0000273B  0000              add [bx+si],al
0000273D  0000              add [bx+si],al
0000273F  0000              add [bx+si],al
00002741  0000              add [bx+si],al
00002743  0000              add [bx+si],al
00002745  0000              add [bx+si],al
00002747  0000              add [bx+si],al
00002749  0000              add [bx+si],al
0000274B  0000              add [bx+si],al
0000274D  0000              add [bx+si],al
0000274F  0000              add [bx+si],al
00002751  0000              add [bx+si],al
00002753  0000              add [bx+si],al
00002755  0000              add [bx+si],al
00002757  0000              add [bx+si],al
00002759  0000              add [bx+si],al
0000275B  0000              add [bx+si],al
0000275D  0000              add [bx+si],al
0000275F  0000              add [bx+si],al
00002761  0000              add [bx+si],al
00002763  0000              add [bx+si],al
00002765  0000              add [bx+si],al
00002767  0000              add [bx+si],al
00002769  0000              add [bx+si],al
0000276B  0000              add [bx+si],al
0000276D  0000              add [bx+si],al
0000276F  0000              add [bx+si],al
00002771  0000              add [bx+si],al
00002773  0000              add [bx+si],al
00002775  0000              add [bx+si],al
00002777  0000              add [bx+si],al
00002779  0000              add [bx+si],al
0000277B  0000              add [bx+si],al
0000277D  0000              add [bx+si],al
0000277F  0000              add [bx+si],al
00002781  0000              add [bx+si],al
00002783  0000              add [bx+si],al
00002785  0000              add [bx+si],al
00002787  0000              add [bx+si],al
00002789  0000              add [bx+si],al
0000278B  0000              add [bx+si],al
0000278D  0000              add [bx+si],al
0000278F  0000              add [bx+si],al
00002791  0000              add [bx+si],al
00002793  0000              add [bx+si],al
00002795  0000              add [bx+si],al
00002797  0000              add [bx+si],al
00002799  0000              add [bx+si],al
0000279B  0000              add [bx+si],al
0000279D  0000              add [bx+si],al
0000279F  0000              add [bx+si],al
000027A1  0000              add [bx+si],al
000027A3  0000              add [bx+si],al
000027A5  0000              add [bx+si],al
000027A7  0000              add [bx+si],al
000027A9  0000              add [bx+si],al
000027AB  0000              add [bx+si],al
000027AD  0000              add [bx+si],al
000027AF  0000              add [bx+si],al
000027B1  0000              add [bx+si],al
000027B3  0000              add [bx+si],al
000027B5  0000              add [bx+si],al
000027B7  0000              add [bx+si],al
000027B9  0000              add [bx+si],al
000027BB  0000              add [bx+si],al
000027BD  0000              add [bx+si],al
000027BF  0000              add [bx+si],al
000027C1  0000              add [bx+si],al
000027C3  0000              add [bx+si],al
000027C5  0000              add [bx+si],al
000027C7  0000              add [bx+si],al
000027C9  0000              add [bx+si],al
000027CB  0000              add [bx+si],al
000027CD  0000              add [bx+si],al
000027CF  0000              add [bx+si],al
000027D1  0000              add [bx+si],al
000027D3  0000              add [bx+si],al
000027D5  0000              add [bx+si],al
000027D7  0000              add [bx+si],al
000027D9  0000              add [bx+si],al
000027DB  0000              add [bx+si],al
000027DD  0000              add [bx+si],al
000027DF  0000              add [bx+si],al
000027E1  0000              add [bx+si],al
000027E3  0000              add [bx+si],al
000027E5  0000              add [bx+si],al
000027E7  0000              add [bx+si],al
000027E9  0000              add [bx+si],al
000027EB  0000              add [bx+si],al
000027ED  0000              add [bx+si],al
000027EF  0000              add [bx+si],al
000027F1  0000              add [bx+si],al
000027F3  0000              add [bx+si],al
000027F5  0000              add [bx+si],al
000027F7  0000              add [bx+si],al
000027F9  0000              add [bx+si],al
000027FB  0000              add [bx+si],al
000027FD  0000              add [bx+si],al
000027FF  0000              add [bx+si],al
00002801  0000              add [bx+si],al
00002803  0000              add [bx+si],al
00002805  0000              add [bx+si],al
00002807  0000              add [bx+si],al
00002809  0000              add [bx+si],al
0000280B  0000              add [bx+si],al
0000280D  0000              add [bx+si],al
0000280F  0000              add [bx+si],al
00002811  0000              add [bx+si],al
00002813  0000              add [bx+si],al
00002815  0000              add [bx+si],al
00002817  0000              add [bx+si],al
00002819  0000              add [bx+si],al
0000281B  0000              add [bx+si],al
0000281D  0000              add [bx+si],al
0000281F  0000              add [bx+si],al
00002821  0000              add [bx+si],al
00002823  0000              add [bx+si],al
00002825  0000              add [bx+si],al
00002827  0000              add [bx+si],al
00002829  0000              add [bx+si],al
0000282B  0000              add [bx+si],al
0000282D  0000              add [bx+si],al
0000282F  0000              add [bx+si],al
00002831  0000              add [bx+si],al
00002833  0000              add [bx+si],al
00002835  0000              add [bx+si],al
00002837  0000              add [bx+si],al
00002839  0000              add [bx+si],al
0000283B  0000              add [bx+si],al
0000283D  0000              add [bx+si],al
0000283F  0000              add [bx+si],al
00002841  0000              add [bx+si],al
00002843  0000              add [bx+si],al
00002845  0000              add [bx+si],al
00002847  0000              add [bx+si],al
00002849  0000              add [bx+si],al
0000284B  0000              add [bx+si],al
0000284D  0000              add [bx+si],al
0000284F  0000              add [bx+si],al
00002851  0000              add [bx+si],al
00002853  0000              add [bx+si],al
00002855  0000              add [bx+si],al
00002857  0000              add [bx+si],al
00002859  0000              add [bx+si],al
0000285B  0000              add [bx+si],al
0000285D  0000              add [bx+si],al
0000285F  0000              add [bx+si],al
00002861  0000              add [bx+si],al
00002863  0000              add [bx+si],al
00002865  0000              add [bx+si],al
00002867  0000              add [bx+si],al
00002869  0000              add [bx+si],al
0000286B  0000              add [bx+si],al
0000286D  0000              add [bx+si],al
0000286F  0000              add [bx+si],al
00002871  0000              add [bx+si],al
00002873  0000              add [bx+si],al
00002875  0000              add [bx+si],al
00002877  0000              add [bx+si],al
00002879  0000              add [bx+si],al
0000287B  0000              add [bx+si],al
0000287D  0000              add [bx+si],al
0000287F  0000              add [bx+si],al
00002881  0000              add [bx+si],al
00002883  0000              add [bx+si],al
00002885  0000              add [bx+si],al
00002887  0000              add [bx+si],al
00002889  0000              add [bx+si],al
0000288B  0000              add [bx+si],al
0000288D  0000              add [bx+si],al
0000288F  0000              add [bx+si],al
00002891  0000              add [bx+si],al
00002893  0000              add [bx+si],al
00002895  0000              add [bx+si],al
00002897  0000              add [bx+si],al
00002899  0000              add [bx+si],al
0000289B  0000              add [bx+si],al
0000289D  0000              add [bx+si],al
0000289F  0000              add [bx+si],al
000028A1  0000              add [bx+si],al
000028A3  0000              add [bx+si],al
000028A5  0000              add [bx+si],al
000028A7  0000              add [bx+si],al
000028A9  0000              add [bx+si],al
000028AB  0000              add [bx+si],al
000028AD  0000              add [bx+si],al
000028AF  0000              add [bx+si],al
000028B1  0000              add [bx+si],al
000028B3  0000              add [bx+si],al
000028B5  0000              add [bx+si],al
000028B7  0000              add [bx+si],al
000028B9  0000              add [bx+si],al
000028BB  0000              add [bx+si],al
000028BD  0000              add [bx+si],al
000028BF  0000              add [bx+si],al
000028C1  0000              add [bx+si],al
000028C3  0000              add [bx+si],al
000028C5  0000              add [bx+si],al
000028C7  0000              add [bx+si],al
000028C9  0000              add [bx+si],al
000028CB  0000              add [bx+si],al
000028CD  0000              add [bx+si],al
000028CF  0000              add [bx+si],al
000028D1  0000              add [bx+si],al
000028D3  0000              add [bx+si],al
000028D5  0000              add [bx+si],al
000028D7  0000              add [bx+si],al
000028D9  0000              add [bx+si],al
000028DB  0000              add [bx+si],al
000028DD  0000              add [bx+si],al
000028DF  0000              add [bx+si],al
000028E1  0000              add [bx+si],al
000028E3  0000              add [bx+si],al
000028E5  0000              add [bx+si],al
000028E7  0000              add [bx+si],al
000028E9  0000              add [bx+si],al
000028EB  0000              add [bx+si],al
000028ED  0000              add [bx+si],al
000028EF  0000              add [bx+si],al
000028F1  0000              add [bx+si],al
000028F3  0000              add [bx+si],al
000028F5  0000              add [bx+si],al
000028F7  0000              add [bx+si],al
000028F9  0000              add [bx+si],al
000028FB  0000              add [bx+si],al
000028FD  0000              add [bx+si],al
000028FF  0000              add [bx+si],al
00002901  0000              add [bx+si],al
00002903  0000              add [bx+si],al
00002905  0000              add [bx+si],al
00002907  0000              add [bx+si],al
00002909  0000              add [bx+si],al
0000290B  0000              add [bx+si],al
0000290D  0000              add [bx+si],al
0000290F  0000              add [bx+si],al
00002911  0000              add [bx+si],al
00002913  0000              add [bx+si],al
00002915  0000              add [bx+si],al
00002917  0000              add [bx+si],al
00002919  0000              add [bx+si],al
0000291B  0000              add [bx+si],al
0000291D  0000              add [bx+si],al
0000291F  0000              add [bx+si],al
00002921  0000              add [bx+si],al
00002923  0000              add [bx+si],al
00002925  0000              add [bx+si],al
00002927  0000              add [bx+si],al
00002929  0000              add [bx+si],al
0000292B  0000              add [bx+si],al
0000292D  0000              add [bx+si],al
0000292F  0000              add [bx+si],al
00002931  0000              add [bx+si],al
00002933  0000              add [bx+si],al
00002935  0000              add [bx+si],al
00002937  0000              add [bx+si],al
00002939  0000              add [bx+si],al
0000293B  0000              add [bx+si],al
0000293D  0000              add [bx+si],al
0000293F  0000              add [bx+si],al
00002941  0000              add [bx+si],al
00002943  0000              add [bx+si],al
00002945  0000              add [bx+si],al
00002947  0000              add [bx+si],al
00002949  0000              add [bx+si],al
0000294B  0000              add [bx+si],al
0000294D  0000              add [bx+si],al
0000294F  0000              add [bx+si],al
00002951  0000              add [bx+si],al
00002953  0000              add [bx+si],al
00002955  0000              add [bx+si],al
00002957  0000              add [bx+si],al
00002959  0000              add [bx+si],al
0000295B  0000              add [bx+si],al
0000295D  0000              add [bx+si],al
0000295F  0000              add [bx+si],al
00002961  0000              add [bx+si],al
00002963  0000              add [bx+si],al
00002965  0000              add [bx+si],al
00002967  0000              add [bx+si],al
00002969  0000              add [bx+si],al
0000296B  0000              add [bx+si],al
0000296D  0000              add [bx+si],al
0000296F  0000              add [bx+si],al
00002971  0000              add [bx+si],al
00002973  0000              add [bx+si],al
00002975  0000              add [bx+si],al
00002977  0000              add [bx+si],al
00002979  0000              add [bx+si],al
0000297B  0000              add [bx+si],al
0000297D  0000              add [bx+si],al
0000297F  0000              add [bx+si],al
00002981  0000              add [bx+si],al
00002983  0000              add [bx+si],al
00002985  0000              add [bx+si],al
00002987  0000              add [bx+si],al
00002989  0000              add [bx+si],al
0000298B  0000              add [bx+si],al
0000298D  0000              add [bx+si],al
0000298F  0000              add [bx+si],al
00002991  0000              add [bx+si],al
00002993  0000              add [bx+si],al
00002995  0000              add [bx+si],al
00002997  0000              add [bx+si],al
00002999  0000              add [bx+si],al
0000299B  0000              add [bx+si],al
0000299D  0000              add [bx+si],al
0000299F  0000              add [bx+si],al
000029A1  0000              add [bx+si],al
000029A3  0000              add [bx+si],al
000029A5  0000              add [bx+si],al
000029A7  0000              add [bx+si],al
000029A9  0000              add [bx+si],al
000029AB  0000              add [bx+si],al
000029AD  0000              add [bx+si],al
000029AF  0000              add [bx+si],al
000029B1  0000              add [bx+si],al
000029B3  0000              add [bx+si],al
000029B5  0000              add [bx+si],al
000029B7  0000              add [bx+si],al
000029B9  0000              add [bx+si],al
000029BB  0000              add [bx+si],al
000029BD  0000              add [bx+si],al
000029BF  0000              add [bx+si],al
000029C1  0000              add [bx+si],al
000029C3  0000              add [bx+si],al
000029C5  0000              add [bx+si],al
000029C7  0000              add [bx+si],al
000029C9  0000              add [bx+si],al
000029CB  0000              add [bx+si],al
000029CD  0000              add [bx+si],al
000029CF  0000              add [bx+si],al
000029D1  0000              add [bx+si],al
000029D3  0000              add [bx+si],al
000029D5  0000              add [bx+si],al
000029D7  0000              add [bx+si],al
000029D9  0000              add [bx+si],al
000029DB  0000              add [bx+si],al
000029DD  0000              add [bx+si],al
000029DF  0000              add [bx+si],al
000029E1  0000              add [bx+si],al
000029E3  0000              add [bx+si],al
000029E5  0000              add [bx+si],al
000029E7  0000              add [bx+si],al
000029E9  0000              add [bx+si],al
000029EB  0000              add [bx+si],al
000029ED  0000              add [bx+si],al
000029EF  0000              add [bx+si],al
000029F1  0000              add [bx+si],al
000029F3  0000              add [bx+si],al
000029F5  0000              add [bx+si],al
000029F7  0000              add [bx+si],al
000029F9  0000              add [bx+si],al
000029FB  0000              add [bx+si],al
000029FD  0000              add [bx+si],al
000029FF  0000              add [bx+si],al
00002A01  0000              add [bx+si],al
00002A03  0000              add [bx+si],al
00002A05  0000              add [bx+si],al
00002A07  0000              add [bx+si],al
00002A09  0000              add [bx+si],al
00002A0B  0000              add [bx+si],al
00002A0D  0000              add [bx+si],al
00002A0F  0000              add [bx+si],al
00002A11  0000              add [bx+si],al
00002A13  0000              add [bx+si],al
00002A15  0000              add [bx+si],al
00002A17  0000              add [bx+si],al
00002A19  0000              add [bx+si],al
00002A1B  0000              add [bx+si],al
00002A1D  0000              add [bx+si],al
00002A1F  0000              add [bx+si],al
00002A21  0000              add [bx+si],al
00002A23  0000              add [bx+si],al
00002A25  0000              add [bx+si],al
00002A27  0000              add [bx+si],al
00002A29  0000              add [bx+si],al
00002A2B  0000              add [bx+si],al
00002A2D  0000              add [bx+si],al
00002A2F  0000              add [bx+si],al
00002A31  0000              add [bx+si],al
00002A33  0000              add [bx+si],al
00002A35  0000              add [bx+si],al
00002A37  0000              add [bx+si],al
00002A39  0000              add [bx+si],al
00002A3B  0000              add [bx+si],al
00002A3D  0000              add [bx+si],al
00002A3F  0000              add [bx+si],al
00002A41  0000              add [bx+si],al
00002A43  0000              add [bx+si],al
00002A45  0000              add [bx+si],al
00002A47  0000              add [bx+si],al
00002A49  0000              add [bx+si],al
00002A4B  0000              add [bx+si],al
00002A4D  0000              add [bx+si],al
00002A4F  0000              add [bx+si],al
00002A51  0000              add [bx+si],al
00002A53  0000              add [bx+si],al
00002A55  0000              add [bx+si],al
00002A57  0000              add [bx+si],al
00002A59  0000              add [bx+si],al
00002A5B  0000              add [bx+si],al
00002A5D  0000              add [bx+si],al
00002A5F  0000              add [bx+si],al
00002A61  0000              add [bx+si],al
00002A63  0000              add [bx+si],al
00002A65  0000              add [bx+si],al
00002A67  0000              add [bx+si],al
00002A69  0000              add [bx+si],al
00002A6B  0000              add [bx+si],al
00002A6D  0000              add [bx+si],al
00002A6F  0000              add [bx+si],al
00002A71  0000              add [bx+si],al
00002A73  0000              add [bx+si],al
00002A75  0000              add [bx+si],al
00002A77  0000              add [bx+si],al
00002A79  0000              add [bx+si],al
00002A7B  0000              add [bx+si],al
00002A7D  0000              add [bx+si],al
00002A7F  0000              add [bx+si],al
00002A81  0000              add [bx+si],al
00002A83  0000              add [bx+si],al
00002A85  0000              add [bx+si],al
00002A87  0000              add [bx+si],al
00002A89  0000              add [bx+si],al
00002A8B  0000              add [bx+si],al
00002A8D  0000              add [bx+si],al
00002A8F  0000              add [bx+si],al
00002A91  0000              add [bx+si],al
00002A93  0000              add [bx+si],al
00002A95  0000              add [bx+si],al
00002A97  0000              add [bx+si],al
00002A99  0000              add [bx+si],al
00002A9B  0000              add [bx+si],al
00002A9D  0000              add [bx+si],al
00002A9F  0000              add [bx+si],al
00002AA1  0000              add [bx+si],al
00002AA3  0000              add [bx+si],al
00002AA5  0000              add [bx+si],al
00002AA7  0000              add [bx+si],al
00002AA9  0000              add [bx+si],al
00002AAB  0000              add [bx+si],al
00002AAD  0000              add [bx+si],al
00002AAF  0000              add [bx+si],al
00002AB1  0000              add [bx+si],al
00002AB3  0000              add [bx+si],al
00002AB5  0000              add [bx+si],al
00002AB7  0000              add [bx+si],al
00002AB9  0000              add [bx+si],al
00002ABB  0000              add [bx+si],al
00002ABD  0000              add [bx+si],al
00002ABF  0000              add [bx+si],al
00002AC1  0000              add [bx+si],al
00002AC3  0000              add [bx+si],al
00002AC5  0000              add [bx+si],al
00002AC7  0000              add [bx+si],al
00002AC9  0000              add [bx+si],al
00002ACB  0000              add [bx+si],al
00002ACD  0000              add [bx+si],al
00002ACF  0000              add [bx+si],al
00002AD1  0000              add [bx+si],al
00002AD3  0000              add [bx+si],al
00002AD5  0000              add [bx+si],al
00002AD7  0000              add [bx+si],al
00002AD9  0000              add [bx+si],al
00002ADB  0000              add [bx+si],al
00002ADD  0000              add [bx+si],al
00002ADF  0000              add [bx+si],al
00002AE1  0000              add [bx+si],al
00002AE3  0000              add [bx+si],al
00002AE5  0000              add [bx+si],al
00002AE7  0000              add [bx+si],al
00002AE9  0000              add [bx+si],al
00002AEB  0000              add [bx+si],al
00002AED  0000              add [bx+si],al
00002AEF  0000              add [bx+si],al
00002AF1  0000              add [bx+si],al
00002AF3  0000              add [bx+si],al
00002AF5  0000              add [bx+si],al
00002AF7  0000              add [bx+si],al
00002AF9  0000              add [bx+si],al
00002AFB  0000              add [bx+si],al
00002AFD  0000              add [bx+si],al
00002AFF  0000              add [bx+si],al
00002B01  0000              add [bx+si],al
00002B03  0000              add [bx+si],al
00002B05  0000              add [bx+si],al
00002B07  0000              add [bx+si],al
00002B09  0000              add [bx+si],al
00002B0B  0000              add [bx+si],al
00002B0D  0000              add [bx+si],al
00002B0F  0000              add [bx+si],al
00002B11  0000              add [bx+si],al
00002B13  0000              add [bx+si],al
00002B15  0000              add [bx+si],al
00002B17  0000              add [bx+si],al
00002B19  0000              add [bx+si],al
00002B1B  0000              add [bx+si],al
00002B1D  0000              add [bx+si],al
00002B1F  0000              add [bx+si],al
00002B21  0000              add [bx+si],al
00002B23  0000              add [bx+si],al
00002B25  0000              add [bx+si],al
00002B27  0000              add [bx+si],al
00002B29  0000              add [bx+si],al
00002B2B  0000              add [bx+si],al
00002B2D  0000              add [bx+si],al
00002B2F  0000              add [bx+si],al
00002B31  0000              add [bx+si],al
00002B33  0000              add [bx+si],al
00002B35  0000              add [bx+si],al
00002B37  0000              add [bx+si],al
00002B39  0000              add [bx+si],al
00002B3B  0000              add [bx+si],al
00002B3D  0000              add [bx+si],al
00002B3F  0000              add [bx+si],al
00002B41  0000              add [bx+si],al
00002B43  0000              add [bx+si],al
00002B45  0000              add [bx+si],al
00002B47  0000              add [bx+si],al
00002B49  0000              add [bx+si],al
00002B4B  0000              add [bx+si],al
00002B4D  0000              add [bx+si],al
00002B4F  0000              add [bx+si],al
00002B51  0000              add [bx+si],al
00002B53  0000              add [bx+si],al
00002B55  0000              add [bx+si],al
00002B57  0000              add [bx+si],al
00002B59  0000              add [bx+si],al
00002B5B  0000              add [bx+si],al
00002B5D  0000              add [bx+si],al
00002B5F  0000              add [bx+si],al
00002B61  0000              add [bx+si],al
00002B63  0000              add [bx+si],al
00002B65  0000              add [bx+si],al
00002B67  0000              add [bx+si],al
00002B69  0000              add [bx+si],al
00002B6B  0000              add [bx+si],al
00002B6D  0000              add [bx+si],al
00002B6F  0000              add [bx+si],al
00002B71  0000              add [bx+si],al
00002B73  0000              add [bx+si],al
00002B75  0000              add [bx+si],al
00002B77  0000              add [bx+si],al
00002B79  0000              add [bx+si],al
00002B7B  0000              add [bx+si],al
00002B7D  0000              add [bx+si],al
00002B7F  0000              add [bx+si],al
00002B81  0000              add [bx+si],al
00002B83  0000              add [bx+si],al
00002B85  0000              add [bx+si],al
00002B87  0000              add [bx+si],al
00002B89  0000              add [bx+si],al
00002B8B  0000              add [bx+si],al
00002B8D  0000              add [bx+si],al
00002B8F  0000              add [bx+si],al
00002B91  0000              add [bx+si],al
00002B93  0000              add [bx+si],al
00002B95  0000              add [bx+si],al
00002B97  0000              add [bx+si],al
00002B99  0000              add [bx+si],al
00002B9B  0000              add [bx+si],al
00002B9D  0000              add [bx+si],al
00002B9F  0000              add [bx+si],al
00002BA1  0000              add [bx+si],al
00002BA3  0000              add [bx+si],al
00002BA5  0000              add [bx+si],al
00002BA7  0000              add [bx+si],al
00002BA9  0000              add [bx+si],al
00002BAB  0000              add [bx+si],al
00002BAD  0000              add [bx+si],al
00002BAF  0000              add [bx+si],al
00002BB1  0000              add [bx+si],al
00002BB3  0000              add [bx+si],al
00002BB5  0000              add [bx+si],al
00002BB7  0000              add [bx+si],al
00002BB9  0000              add [bx+si],al
00002BBB  0000              add [bx+si],al
00002BBD  0000              add [bx+si],al
00002BBF  0000              add [bx+si],al
00002BC1  0000              add [bx+si],al
00002BC3  0000              add [bx+si],al
00002BC5  0000              add [bx+si],al
00002BC7  0000              add [bx+si],al
00002BC9  0000              add [bx+si],al
00002BCB  0000              add [bx+si],al
00002BCD  0000              add [bx+si],al
00002BCF  0000              add [bx+si],al
00002BD1  0000              add [bx+si],al
00002BD3  0000              add [bx+si],al
00002BD5  0000              add [bx+si],al
00002BD7  0000              add [bx+si],al
00002BD9  0000              add [bx+si],al
00002BDB  0000              add [bx+si],al
00002BDD  0000              add [bx+si],al
00002BDF  0000              add [bx+si],al
00002BE1  0000              add [bx+si],al
00002BE3  0000              add [bx+si],al
00002BE5  0000              add [bx+si],al
00002BE7  0000              add [bx+si],al
00002BE9  0000              add [bx+si],al
00002BEB  0000              add [bx+si],al
00002BED  0000              add [bx+si],al
00002BEF  0000              add [bx+si],al
00002BF1  0000              add [bx+si],al
00002BF3  0000              add [bx+si],al
00002BF5  0000              add [bx+si],al
00002BF7  0000              add [bx+si],al
00002BF9  0000              add [bx+si],al
00002BFB  0000              add [bx+si],al
00002BFD  0000              add [bx+si],al
00002BFF  0000              add [bx+si],al
00002C01  0000              add [bx+si],al
00002C03  0000              add [bx+si],al
00002C05  0000              add [bx+si],al
00002C07  0000              add [bx+si],al
00002C09  0000              add [bx+si],al
00002C0B  0000              add [bx+si],al
00002C0D  0000              add [bx+si],al
00002C0F  0000              add [bx+si],al
00002C11  0000              add [bx+si],al
00002C13  0000              add [bx+si],al
00002C15  0000              add [bx+si],al
00002C17  0000              add [bx+si],al
00002C19  0000              add [bx+si],al
00002C1B  0000              add [bx+si],al
00002C1D  0000              add [bx+si],al
00002C1F  0000              add [bx+si],al
00002C21  0000              add [bx+si],al
00002C23  0000              add [bx+si],al
00002C25  0000              add [bx+si],al
00002C27  0000              add [bx+si],al
00002C29  0000              add [bx+si],al
00002C2B  0000              add [bx+si],al
00002C2D  0000              add [bx+si],al
00002C2F  0000              add [bx+si],al
00002C31  0000              add [bx+si],al
00002C33  0000              add [bx+si],al
00002C35  0000              add [bx+si],al
00002C37  0000              add [bx+si],al
00002C39  0000              add [bx+si],al
00002C3B  0000              add [bx+si],al
00002C3D  0000              add [bx+si],al
00002C3F  0000              add [bx+si],al
00002C41  0000              add [bx+si],al
00002C43  0000              add [bx+si],al
00002C45  0000              add [bx+si],al
00002C47  0000              add [bx+si],al
00002C49  0000              add [bx+si],al
00002C4B  0000              add [bx+si],al
00002C4D  0000              add [bx+si],al
00002C4F  0000              add [bx+si],al
00002C51  0000              add [bx+si],al
00002C53  0000              add [bx+si],al
00002C55  0000              add [bx+si],al
00002C57  0000              add [bx+si],al
00002C59  0000              add [bx+si],al
00002C5B  0000              add [bx+si],al
00002C5D  0000              add [bx+si],al
00002C5F  0000              add [bx+si],al
00002C61  0000              add [bx+si],al
00002C63  0000              add [bx+si],al
00002C65  0000              add [bx+si],al
00002C67  0000              add [bx+si],al
00002C69  0000              add [bx+si],al
00002C6B  0000              add [bx+si],al
00002C6D  0000              add [bx+si],al
00002C6F  0000              add [bx+si],al
00002C71  0000              add [bx+si],al
00002C73  0000              add [bx+si],al
00002C75  0000              add [bx+si],al
00002C77  0000              add [bx+si],al
00002C79  0000              add [bx+si],al
00002C7B  0000              add [bx+si],al
00002C7D  0000              add [bx+si],al
00002C7F  0000              add [bx+si],al
00002C81  0000              add [bx+si],al
00002C83  0000              add [bx+si],al
00002C85  0000              add [bx+si],al
00002C87  0000              add [bx+si],al
00002C89  0000              add [bx+si],al
00002C8B  0000              add [bx+si],al
00002C8D  0000              add [bx+si],al
00002C8F  0000              add [bx+si],al
00002C91  0000              add [bx+si],al
00002C93  0000              add [bx+si],al
00002C95  0000              add [bx+si],al
00002C97  0000              add [bx+si],al
00002C99  0000              add [bx+si],al
00002C9B  0000              add [bx+si],al
00002C9D  0000              add [bx+si],al
00002C9F  0000              add [bx+si],al
00002CA1  0000              add [bx+si],al
00002CA3  0000              add [bx+si],al
00002CA5  0000              add [bx+si],al
00002CA7  0000              add [bx+si],al
00002CA9  0000              add [bx+si],al
00002CAB  0000              add [bx+si],al
00002CAD  0000              add [bx+si],al
00002CAF  0000              add [bx+si],al
00002CB1  0000              add [bx+si],al
00002CB3  0000              add [bx+si],al
00002CB5  0000              add [bx+si],al
00002CB7  0000              add [bx+si],al
00002CB9  0000              add [bx+si],al
00002CBB  0000              add [bx+si],al
00002CBD  0000              add [bx+si],al
00002CBF  0000              add [bx+si],al
00002CC1  0000              add [bx+si],al
00002CC3  0000              add [bx+si],al
00002CC5  0000              add [bx+si],al
00002CC7  0000              add [bx+si],al
00002CC9  0000              add [bx+si],al
00002CCB  0000              add [bx+si],al
00002CCD  0000              add [bx+si],al
00002CCF  0000              add [bx+si],al
00002CD1  0000              add [bx+si],al
00002CD3  0000              add [bx+si],al
00002CD5  0000              add [bx+si],al
00002CD7  0000              add [bx+si],al
00002CD9  0000              add [bx+si],al
00002CDB  0000              add [bx+si],al
00002CDD  0000              add [bx+si],al
00002CDF  0000              add [bx+si],al
00002CE1  0000              add [bx+si],al
00002CE3  0000              add [bx+si],al
00002CE5  0000              add [bx+si],al
00002CE7  0000              add [bx+si],al
00002CE9  0000              add [bx+si],al
00002CEB  0000              add [bx+si],al
00002CED  0000              add [bx+si],al
00002CEF  0000              add [bx+si],al
00002CF1  0000              add [bx+si],al
00002CF3  0000              add [bx+si],al
00002CF5  0000              add [bx+si],al
00002CF7  0000              add [bx+si],al
00002CF9  0000              add [bx+si],al
00002CFB  0000              add [bx+si],al
00002CFD  0000              add [bx+si],al
00002CFF  0000              add [bx+si],al
00002D01  0000              add [bx+si],al
00002D03  0000              add [bx+si],al
00002D05  0000              add [bx+si],al
00002D07  0000              add [bx+si],al
00002D09  0000              add [bx+si],al
00002D0B  0000              add [bx+si],al
00002D0D  0000              add [bx+si],al
00002D0F  0000              add [bx+si],al
00002D11  0000              add [bx+si],al
00002D13  0000              add [bx+si],al
00002D15  0000              add [bx+si],al
00002D17  0000              add [bx+si],al
00002D19  0000              add [bx+si],al
00002D1B  0000              add [bx+si],al
00002D1D  0000              add [bx+si],al
00002D1F  0000              add [bx+si],al
00002D21  0000              add [bx+si],al
00002D23  0000              add [bx+si],al
00002D25  0000              add [bx+si],al
00002D27  0000              add [bx+si],al
00002D29  0000              add [bx+si],al
00002D2B  0000              add [bx+si],al
00002D2D  0000              add [bx+si],al
00002D2F  0000              add [bx+si],al
00002D31  0000              add [bx+si],al
00002D33  0000              add [bx+si],al
00002D35  0000              add [bx+si],al
00002D37  0000              add [bx+si],al
00002D39  0000              add [bx+si],al
00002D3B  0000              add [bx+si],al
00002D3D  0000              add [bx+si],al
00002D3F  0000              add [bx+si],al
00002D41  0000              add [bx+si],al
00002D43  0000              add [bx+si],al
00002D45  0000              add [bx+si],al
00002D47  0000              add [bx+si],al
00002D49  0000              add [bx+si],al
00002D4B  0000              add [bx+si],al
00002D4D  0000              add [bx+si],al
00002D4F  0000              add [bx+si],al
00002D51  0000              add [bx+si],al
00002D53  0000              add [bx+si],al
00002D55  0000              add [bx+si],al
00002D57  0000              add [bx+si],al
00002D59  0000              add [bx+si],al
00002D5B  0000              add [bx+si],al
00002D5D  0000              add [bx+si],al
00002D5F  0000              add [bx+si],al
00002D61  0000              add [bx+si],al
00002D63  0000              add [bx+si],al
00002D65  0000              add [bx+si],al
00002D67  0000              add [bx+si],al
00002D69  0000              add [bx+si],al
00002D6B  0000              add [bx+si],al
00002D6D  0000              add [bx+si],al
00002D6F  0000              add [bx+si],al
00002D71  0000              add [bx+si],al
00002D73  0000              add [bx+si],al
00002D75  0000              add [bx+si],al
00002D77  0000              add [bx+si],al
00002D79  0000              add [bx+si],al
00002D7B  0000              add [bx+si],al
00002D7D  0000              add [bx+si],al
00002D7F  0000              add [bx+si],al
00002D81  0000              add [bx+si],al
00002D83  0000              add [bx+si],al
00002D85  0000              add [bx+si],al
00002D87  0000              add [bx+si],al
00002D89  0000              add [bx+si],al
00002D8B  0000              add [bx+si],al
00002D8D  0000              add [bx+si],al
00002D8F  0000              add [bx+si],al
00002D91  0000              add [bx+si],al
00002D93  0000              add [bx+si],al
00002D95  0000              add [bx+si],al
00002D97  0000              add [bx+si],al
00002D99  0000              add [bx+si],al
00002D9B  0000              add [bx+si],al
00002D9D  0000              add [bx+si],al
00002D9F  0000              add [bx+si],al
00002DA1  0000              add [bx+si],al
00002DA3  0000              add [bx+si],al
00002DA5  0000              add [bx+si],al
00002DA7  0000              add [bx+si],al
00002DA9  0000              add [bx+si],al
00002DAB  0000              add [bx+si],al
00002DAD  0000              add [bx+si],al
00002DAF  0000              add [bx+si],al
00002DB1  0000              add [bx+si],al
00002DB3  0000              add [bx+si],al
00002DB5  0000              add [bx+si],al
00002DB7  0000              add [bx+si],al
00002DB9  0000              add [bx+si],al
00002DBB  0000              add [bx+si],al
00002DBD  0000              add [bx+si],al
00002DBF  0000              add [bx+si],al
00002DC1  0000              add [bx+si],al
00002DC3  0000              add [bx+si],al
00002DC5  0000              add [bx+si],al
00002DC7  0000              add [bx+si],al
00002DC9  0000              add [bx+si],al
00002DCB  0000              add [bx+si],al
00002DCD  0000              add [bx+si],al
00002DCF  0000              add [bx+si],al
00002DD1  0000              add [bx+si],al
00002DD3  0000              add [bx+si],al
00002DD5  0000              add [bx+si],al
00002DD7  0000              add [bx+si],al
00002DD9  0000              add [bx+si],al
00002DDB  0000              add [bx+si],al
00002DDD  0000              add [bx+si],al
00002DDF  0000              add [bx+si],al
00002DE1  0000              add [bx+si],al
00002DE3  0000              add [bx+si],al
00002DE5  0000              add [bx+si],al
00002DE7  0000              add [bx+si],al
00002DE9  0000              add [bx+si],al
00002DEB  0000              add [bx+si],al
00002DED  0000              add [bx+si],al
00002DEF  0000              add [bx+si],al
00002DF1  0000              add [bx+si],al
00002DF3  0000              add [bx+si],al
00002DF5  0000              add [bx+si],al
00002DF7  0000              add [bx+si],al
00002DF9  0000              add [bx+si],al
00002DFB  0000              add [bx+si],al
00002DFD  0000              add [bx+si],al
00002DFF  0000              add [bx+si],al
00002E01  0000              add [bx+si],al
00002E03  0000              add [bx+si],al
00002E05  0000              add [bx+si],al
00002E07  0000              add [bx+si],al
00002E09  0000              add [bx+si],al
00002E0B  0000              add [bx+si],al
00002E0D  0000              add [bx+si],al
00002E0F  0000              add [bx+si],al
00002E11  0000              add [bx+si],al
00002E13  0000              add [bx+si],al
00002E15  0000              add [bx+si],al
00002E17  0000              add [bx+si],al
00002E19  0000              add [bx+si],al
00002E1B  0000              add [bx+si],al
00002E1D  0000              add [bx+si],al
00002E1F  0000              add [bx+si],al
00002E21  0000              add [bx+si],al
00002E23  0000              add [bx+si],al
00002E25  0000              add [bx+si],al
00002E27  0000              add [bx+si],al
00002E29  0000              add [bx+si],al
00002E2B  0000              add [bx+si],al
00002E2D  0000              add [bx+si],al
00002E2F  0000              add [bx+si],al
00002E31  0000              add [bx+si],al
00002E33  0000              add [bx+si],al
00002E35  0000              add [bx+si],al
00002E37  0000              add [bx+si],al
00002E39  0000              add [bx+si],al
00002E3B  0000              add [bx+si],al
00002E3D  0000              add [bx+si],al
00002E3F  0000              add [bx+si],al
00002E41  0000              add [bx+si],al
00002E43  0000              add [bx+si],al
00002E45  0000              add [bx+si],al
00002E47  0000              add [bx+si],al
00002E49  0000              add [bx+si],al
00002E4B  0000              add [bx+si],al
00002E4D  0000              add [bx+si],al
00002E4F  0000              add [bx+si],al
00002E51  0000              add [bx+si],al
00002E53  0000              add [bx+si],al
00002E55  0000              add [bx+si],al
00002E57  0000              add [bx+si],al
00002E59  0000              add [bx+si],al
00002E5B  0000              add [bx+si],al
00002E5D  0000              add [bx+si],al
00002E5F  0000              add [bx+si],al
00002E61  0000              add [bx+si],al
00002E63  0000              add [bx+si],al
00002E65  0000              add [bx+si],al
00002E67  0000              add [bx+si],al
00002E69  0000              add [bx+si],al
00002E6B  0000              add [bx+si],al
00002E6D  0000              add [bx+si],al
00002E6F  0000              add [bx+si],al
00002E71  0000              add [bx+si],al
00002E73  0000              add [bx+si],al
00002E75  0000              add [bx+si],al
00002E77  0000              add [bx+si],al
00002E79  0000              add [bx+si],al
00002E7B  0000              add [bx+si],al
00002E7D  0000              add [bx+si],al
00002E7F  0000              add [bx+si],al
00002E81  0000              add [bx+si],al
00002E83  0000              add [bx+si],al
00002E85  0000              add [bx+si],al
00002E87  0000              add [bx+si],al
00002E89  0000              add [bx+si],al
00002E8B  0000              add [bx+si],al
00002E8D  0000              add [bx+si],al
00002E8F  0000              add [bx+si],al
00002E91  0000              add [bx+si],al
00002E93  0000              add [bx+si],al
00002E95  0000              add [bx+si],al
00002E97  0000              add [bx+si],al
00002E99  0000              add [bx+si],al
00002E9B  0000              add [bx+si],al
00002E9D  0000              add [bx+si],al
00002E9F  0000              add [bx+si],al
00002EA1  0000              add [bx+si],al
00002EA3  0000              add [bx+si],al
00002EA5  0000              add [bx+si],al
00002EA7  0000              add [bx+si],al
00002EA9  0000              add [bx+si],al
00002EAB  0000              add [bx+si],al
00002EAD  0000              add [bx+si],al
00002EAF  0000              add [bx+si],al
00002EB1  0000              add [bx+si],al
00002EB3  0000              add [bx+si],al
00002EB5  0000              add [bx+si],al
00002EB7  0000              add [bx+si],al
00002EB9  0000              add [bx+si],al
00002EBB  0000              add [bx+si],al
00002EBD  0000              add [bx+si],al
00002EBF  0000              add [bx+si],al
00002EC1  0000              add [bx+si],al
00002EC3  0000              add [bx+si],al
00002EC5  0000              add [bx+si],al
00002EC7  0000              add [bx+si],al
00002EC9  0000              add [bx+si],al
00002ECB  0000              add [bx+si],al
00002ECD  0000              add [bx+si],al
00002ECF  0000              add [bx+si],al
00002ED1  0000              add [bx+si],al
00002ED3  0000              add [bx+si],al
00002ED5  0000              add [bx+si],al
00002ED7  0000              add [bx+si],al
00002ED9  0000              add [bx+si],al
00002EDB  0000              add [bx+si],al
00002EDD  0000              add [bx+si],al
00002EDF  0000              add [bx+si],al
00002EE1  0000              add [bx+si],al
00002EE3  0000              add [bx+si],al
00002EE5  0000              add [bx+si],al
00002EE7  0000              add [bx+si],al
00002EE9  0000              add [bx+si],al
00002EEB  0000              add [bx+si],al
00002EED  0000              add [bx+si],al
00002EEF  0000              add [bx+si],al
00002EF1  0000              add [bx+si],al
00002EF3  0000              add [bx+si],al
00002EF5  0000              add [bx+si],al
00002EF7  0000              add [bx+si],al
00002EF9  0000              add [bx+si],al
00002EFB  0000              add [bx+si],al
00002EFD  0000              add [bx+si],al
00002EFF  0000              add [bx+si],al
00002F01  0000              add [bx+si],al
00002F03  0000              add [bx+si],al
00002F05  0000              add [bx+si],al
00002F07  0000              add [bx+si],al
00002F09  0000              add [bx+si],al
00002F0B  0000              add [bx+si],al
00002F0D  0000              add [bx+si],al
00002F0F  0000              add [bx+si],al
00002F11  0000              add [bx+si],al
00002F13  0000              add [bx+si],al
00002F15  0000              add [bx+si],al
00002F17  0000              add [bx+si],al
00002F19  0000              add [bx+si],al
00002F1B  0000              add [bx+si],al
00002F1D  0000              add [bx+si],al
00002F1F  0000              add [bx+si],al
00002F21  0000              add [bx+si],al
00002F23  0000              add [bx+si],al
00002F25  0000              add [bx+si],al
00002F27  0000              add [bx+si],al
00002F29  0000              add [bx+si],al
00002F2B  0000              add [bx+si],al
00002F2D  0000              add [bx+si],al
00002F2F  0000              add [bx+si],al
00002F31  0000              add [bx+si],al
00002F33  0000              add [bx+si],al
00002F35  0000              add [bx+si],al
00002F37  0000              add [bx+si],al
00002F39  0000              add [bx+si],al
00002F3B  0000              add [bx+si],al
00002F3D  0000              add [bx+si],al
00002F3F  0000              add [bx+si],al
00002F41  0000              add [bx+si],al
00002F43  0000              add [bx+si],al
00002F45  0000              add [bx+si],al
00002F47  0000              add [bx+si],al
00002F49  0000              add [bx+si],al
00002F4B  0000              add [bx+si],al
00002F4D  0000              add [bx+si],al
00002F4F  0000              add [bx+si],al
00002F51  0000              add [bx+si],al
00002F53  0000              add [bx+si],al
00002F55  0000              add [bx+si],al
00002F57  0000              add [bx+si],al
00002F59  0000              add [bx+si],al
00002F5B  0000              add [bx+si],al
00002F5D  0000              add [bx+si],al
00002F5F  0000              add [bx+si],al
00002F61  0000              add [bx+si],al
00002F63  0000              add [bx+si],al
00002F65  0000              add [bx+si],al
00002F67  0000              add [bx+si],al
00002F69  0000              add [bx+si],al
00002F6B  0000              add [bx+si],al
00002F6D  0000              add [bx+si],al
00002F6F  0000              add [bx+si],al
00002F71  0000              add [bx+si],al
00002F73  0000              add [bx+si],al
00002F75  0000              add [bx+si],al
00002F77  0000              add [bx+si],al
00002F79  0000              add [bx+si],al
00002F7B  0000              add [bx+si],al
00002F7D  0000              add [bx+si],al
00002F7F  0000              add [bx+si],al
00002F81  0000              add [bx+si],al
00002F83  0000              add [bx+si],al
00002F85  0000              add [bx+si],al
00002F87  0000              add [bx+si],al
00002F89  0000              add [bx+si],al
00002F8B  0000              add [bx+si],al
00002F8D  0000              add [bx+si],al
00002F8F  0000              add [bx+si],al
00002F91  0000              add [bx+si],al
00002F93  0000              add [bx+si],al
00002F95  0000              add [bx+si],al
00002F97  0000              add [bx+si],al
00002F99  0000              add [bx+si],al
00002F9B  0000              add [bx+si],al
00002F9D  0000              add [bx+si],al
00002F9F  0000              add [bx+si],al
00002FA1  0000              add [bx+si],al
00002FA3  0000              add [bx+si],al
00002FA5  0000              add [bx+si],al
00002FA7  0000              add [bx+si],al
00002FA9  0000              add [bx+si],al
00002FAB  0000              add [bx+si],al
00002FAD  0000              add [bx+si],al
00002FAF  0000              add [bx+si],al
00002FB1  0000              add [bx+si],al
00002FB3  0000              add [bx+si],al
00002FB5  0000              add [bx+si],al
00002FB7  0000              add [bx+si],al
00002FB9  0000              add [bx+si],al
00002FBB  0000              add [bx+si],al
00002FBD  0000              add [bx+si],al
00002FBF  0000              add [bx+si],al
00002FC1  0000              add [bx+si],al
00002FC3  0000              add [bx+si],al
00002FC5  0000              add [bx+si],al
00002FC7  0000              add [bx+si],al
00002FC9  0000              add [bx+si],al
00002FCB  0000              add [bx+si],al
00002FCD  0000              add [bx+si],al
00002FCF  0000              add [bx+si],al
00002FD1  0000              add [bx+si],al
00002FD3  0000              add [bx+si],al
00002FD5  0000              add [bx+si],al
00002FD7  0000              add [bx+si],al
00002FD9  0000              add [bx+si],al
00002FDB  0000              add [bx+si],al
00002FDD  0000              add [bx+si],al
00002FDF  0000              add [bx+si],al
00002FE1  0000              add [bx+si],al
00002FE3  0000              add [bx+si],al
00002FE5  0000              add [bx+si],al
00002FE7  0000              add [bx+si],al
00002FE9  0000              add [bx+si],al
00002FEB  0000              add [bx+si],al
00002FED  0000              add [bx+si],al
00002FEF  0000              add [bx+si],al
00002FF1  0000              add [bx+si],al
00002FF3  0000              add [bx+si],al
00002FF5  0000              add [bx+si],al
00002FF7  0000              add [bx+si],al
00002FF9  0000              add [bx+si],al
00002FFB  0000              add [bx+si],al
00002FFD  0000              add [bx+si],al
00002FFF  0001              add [bx+di],al
00003001  0000              add [bx+si],al
00003003  00FD              add ch,bh
00003005  4F                dec di
00003006  52                push dx
00003007  E421              in al,0x21
00003009  0000              add [bx+si],al
0000300B  0014              add [si],dl
0000300D  0000              add [bx+si],al
0000300F  0000              add [bx+si],al
00003011  0000              add [bx+si],al
00003013  0001              add [bx+di],al
00003015  7A52              jpe 0x3069
00003017  0001              add [bx+di],al
00003019  7C08              jl 0x3023
0000301B  011B              add [bp+di],bx
0000301D  0C04              or al,0x4
0000301F  0488              add al,0x88
00003021  0100              add [bx+si],ax
00003023  0038              add [bx+si],bh
00003025  0000              add [bx+si],al
00003027  001C              add [si],bl
00003029  0000              add [bx+si],al
0000302B  002EE0FF          add [0xffe0],ch
0000302F  FF                db 0xff
00003030  BB0100            mov bx,0x1
00003033  0000              add [bx+si],al
00003035  44                inc sp
00003036  0C01              or al,0x1
00003038  004C10            add [si+0x10],cl
0000303B  050275            add ax,0x7502
0000303E  00430F            add [bp+di+0xf],al
00003041  037574            add si,[di+0x74]
00003044  06                push es
00003045  10060275          adc [0x7502],al
00003049  7C10              jl 0x305b
0000304B  0302              add ax,[bp+si]
0000304D  7578              jnz 0x30c7
0000304F  03A101C1          add sp,[bx+di-0x3eff]
00003053  0C01              or al,0x1
00003055  0041C3            add [bx+di-0x3d],al
00003058  41                inc cx
00003059  C641C543          mov byte [bx+di-0x3b],0x43
0000305D  0C04              or al,0x4
0000305F  0410              add al,0x10
00003061  0000              add [bx+si],al
00003063  005800            add [bx+si+0x0],bl
00003066  0000              add [bx+si],al
00003068  2E                cs
00003069  F0                lock
0000306A  FF                db 0xff
0000306B  FF04              inc word [si]
0000306D  0000              add [bx+si],al
0000306F  0000              add [bx+si],al
00003071  0000              add [bx+si],al
00003073  0020              add [bx+si],ah
00003075  0000              add [bx+si],al
00003077  006C00            add [si+0x0],ch
0000307A  0000              add [bx+si],al
0000307C  99                cwd
0000307D  E1FF              loope 0x307e
0000307F  FF                db 0xff
00003080  DA00              fiadd dword [bx+si]
00003082  0000              add [bx+si],al
00003084  00410E            add [bx+di+0xe],al
00003087  08850242          or [di+0x4202],al
0000308B  0D0544            or ax,0x4405
0000308E  830302            add word [bp+di],byte +0x2
00003091  D2C5              rol ch,cl
00003093  C3                ret
00003094  0C04              or al,0x4
00003096  0400              add al,0x0
00003098  2000              and [bx+si],al
0000309A  0000              add [bx+si],al
0000309C  90                nop
0000309D  0000              add [bx+si],al
0000309F  004FE2            add [bx-0x1e],cl
000030A2  FF                db 0xff
000030A3  FF8E0000          dec word [bp+0x0]
000030A7  0000              add [bx+si],al
000030A9  41                inc cx
000030AA  0E                push cs
000030AB  08850242          or [di+0x4202],al
000030AF  0D0544            or ax,0x4405
000030B2  830302            add word [bp+di],byte +0x2
000030B5  86C5              xchg ch,al
000030B7  C3                ret
000030B8  0C04              or al,0x4
000030BA  0400              add al,0x0
000030BC  1000              adc [bx+si],al
000030BE  0000              add [bx+si],al
000030C0  B400              mov ah,0x0
000030C2  0000              add [bx+si],al
000030C4  D6                salc
000030C5  EF                out dx,ax
000030C6  FF                db 0xff
000030C7  FF04              inc word [si]
000030C9  0000              add [bx+si],al
000030CB  0000              add [bx+si],al
000030CD  0000              add [bx+si],al
000030CF  001C              add [si],bl
000030D1  0000              add [bx+si],al
000030D3  00C8              add al,cl
000030D5  0000              add [bx+si],al
000030D7  00C6              add dh,al
000030D9  EF                out dx,ax
000030DA  FF                db 0xff
000030DB  FF19              call far [bx+di]
000030DD  0000              add [bx+si],al
000030DF  0000              add [bx+si],al
000030E1  41                inc cx
000030E2  0E                push cs
000030E3  08850242          or [di+0x4202],al
000030E7  0D0555            or ax,0x5505
000030EA  C50C              lds cx,[si]
000030EC  0404              add al,0x4
000030EE  0000              add [bx+si],al
000030F0  2000              and [bx+si],al
000030F2  0000              add [bx+si],al
000030F4  E80000            call 0x30f7
000030F7  0086E2FF          add [bp-0x1e],al
000030FB  FF6800            jmp far [bx+si+0x0]
000030FE  0000              add [bx+si],al
00003100  00410E            add [bx+di+0xe],al
00003103  08850242          or [di+0x4202],al
00003107  0D0544            or ax,0x4405
0000310A  830302            add word [bp+di],byte +0x2
0000310D  60                pusha
0000310E  C5                db 0xc5
0000310F  C3                ret
00003110  0C04              or al,0x4
00003112  0400              add al,0x0
00003114  2000              and [bx+si],al
00003116  0000              add [bx+si],al
00003118  0C01              or al,0x1
0000311A  0000              add [bx+si],al
0000311C  CAE2FF            retf 0xffe2
0000311F  FF                db 0xff
00003120  FE00              inc byte [bx+si]
00003122  0000              add [bx+si],al
00003124  00410E            add [bx+di+0xe],al
00003127  08850242          or [di+0x4202],al
0000312B  0D0544            or ax,0x4405
0000312E  830302            add word [bp+di],byte +0x2
00003131  F6C5C3            test ch,0xc3
00003134  0C04              or al,0x4
00003136  0400              add al,0x0
00003138  1000              adc [bx+si],al
0000313A  0000              add [bx+si],al
0000313C  3001              xor [bx+di],al
0000313E  0000              add [bx+si],al
00003140  77EF              ja 0x3131
00003142  FF                db 0xff
00003143  FF04              inc word [si]
00003145  0000              add [bx+si],al
00003147  0000              add [bx+si],al
00003149  0000              add [bx+si],al
0000314B  0020              add [bx+si],ah
0000314D  0000              add [bx+si],al
0000314F  004401            add [si+0x1],al
00003152  0000              add [bx+si],al
00003154  CE                into
00003155  E3FF              jcxz 0x3156
00003157  FF7700            push word [bx+0x0]
0000315A  0000              add [bx+si],al
0000315C  00410E            add [bx+di+0xe],al
0000315F  08850242          or [di+0x4202],al
00003163  0D0544            or ax,0x4405
00003166  830302            add word [bp+di],byte +0x2
00003169  6F                outsw
0000316A  C5                db 0xc5
0000316B  C3                ret
0000316C  0C04              or al,0x4
0000316E  0400              add al,0x0
00003170  2000              and [bx+si],al
00003172  0000              add [bx+si],al
00003174  680100            push word 0x1
00003177  0021              add [bx+di],ah
00003179  E4FF              in al,0xff
0000317B  FF6000            jmp [bx+si+0x0]
0000317E  0000              add [bx+si],al
00003180  00410E            add [bx+di+0xe],al
00003183  08850242          or [di+0x4202],al
00003187  0D0544            or ax,0x4405
0000318A  830302            add word [bp+di],byte +0x2
0000318D  58                pop ax
0000318E  C5                db 0xc5
0000318F  C3                ret
00003190  0C04              or al,0x4
00003192  0400              add al,0x0
00003194  2800              sub [bx+si],al
00003196  0000              add [bx+si],al
00003198  8C01              mov [bx+di],es
0000319A  0000              add [bx+si],al
0000319C  5D                pop bp
0000319D  E4FF              in al,0xff
0000319F  FF8F0000          dec word [bx+0x0]
000031A3  0000              add [bx+si],al
000031A5  41                inc cx
000031A6  0E                push cs
000031A7  08850242          or [di+0x4202],al
000031AB  0D0546            or ax,0x4605
000031AE  8703              xchg [bp+di],ax
000031B0  8604              xchg [si],al
000031B2  830502            add word [di],byte +0x2
000031B5  82                db 0x82
000031B6  C3                ret
000031B7  41                inc cx
000031B8  C641C741          mov byte [bx+di-0x39],0x41
000031BC  C50C              lds cx,[si]
000031BE  0404              add al,0x4
000031C0  2000              and [bx+si],al
000031C2  0000              add [bx+si],al
000031C4  B80100            mov ax,0x1
000031C7  00C0              add al,al
000031C9  E4FF              in al,0xff
000031CB  FF7500            push word [di+0x0]
000031CE  0000              add [bx+si],al
000031D0  00410E            add [bx+di+0xe],al
000031D3  08850242          or [di+0x4202],al
000031D7  0D0544            or ax,0x4405
000031DA  830302            add word [bp+di],byte +0x2
000031DD  6D                insw
000031DE  C5                db 0xc5
000031DF  C3                ret
000031E0  0C04              or al,0x4
000031E2  0400              add al,0x0
000031E4  2000              and [bx+si],al
000031E6  0000              add [bx+si],al
000031E8  DC01              fadd qword [bx+di]
000031EA  0000              add [bx+si],al
000031EC  11E5              adc bp,sp
000031EE  FF                db 0xff
000031EF  FF                db 0xff
000031F0  3800              cmp [bx+si],al
000031F2  0000              add [bx+si],al
000031F4  00410E            add [bx+di+0xe],al
000031F7  08850242          or [di+0x4202],al
000031FB  0D0544            or ax,0x4405
000031FE  830370            add word [bp+di],byte +0x70
00003201  C5                db 0xc5
00003202  C3                ret
00003203  0C04              or al,0x4
00003205  0400              add al,0x0
00003207  0020              add [bx+si],ah
00003209  0000              add [bx+si],al
0000320B  0000              add [bx+si],al
0000320D  0200              add al,[bx+si]
0000320F  0025              add [di],ah
00003211  E5FF              in ax,0xff
00003213  FF                db 0xff
00003214  3B00              cmp ax,[bx+si]
00003216  0000              add [bx+si],al
00003218  00410E            add [bx+di+0xe],al
0000321B  08850242          or [di+0x4202],al
0000321F  0D0544            or ax,0x4405
00003222  830373            add word [bp+di],byte +0x73
00003225  C5                db 0xc5
00003226  C3                ret
00003227  0C04              or al,0x4
00003229  0400              add al,0x0
0000322B  0020              add [bx+si],ah
0000322D  0000              add [bx+si],al
0000322F  0024              add [si],ah
00003231  0200              add al,[bx+si]
00003233  003C              add [si],bh
00003235  E5FF              in ax,0xff
00003237  FF                db 0xff
00003238  3800              cmp [bx+si],al
0000323A  0000              add [bx+si],al
0000323C  00410E            add [bx+di+0xe],al
0000323F  08850242          or [di+0x4202],al
00003243  0D0544            or ax,0x4405
00003246  830370            add word [bp+di],byte +0x70
00003249  C5                db 0xc5
0000324A  C3                ret
0000324B  0C04              or al,0x4
0000324D  0400              add al,0x0
0000324F  0020              add [bx+si],ah
00003251  0000              add [bx+si],al
00003253  004802            add [bx+si+0x2],cl
00003256  0000              add [bx+si],al
00003258  50                push ax
00003259  E5FF              in ax,0xff
0000325B  FF                db 0xff
0000325C  3B00              cmp ax,[bx+si]
0000325E  0000              add [bx+si],al
00003260  00410E            add [bx+di+0xe],al
00003263  08850242          or [di+0x4202],al
00003267  0D0544            or ax,0x4405
0000326A  830373            add word [bp+di],byte +0x73
0000326D  C5                db 0xc5
0000326E  C3                ret
0000326F  0C04              or al,0x4
00003271  0400              add al,0x0
00003273  001C              add [si],bl
00003275  0000              add [bx+si],al
00003277  006C02            add [si+0x2],ch
0000327A  0000              add [bx+si],al
0000327C  67E5FF            in ax,0xff
0000327F  FF5200            call [bp+si+0x0]
00003282  0000              add [bx+si],al
00003284  00410E            add [bx+di+0xe],al
00003287  08850242          or [di+0x4202],al
0000328B  0D0502            or ax,0x205
0000328E  4E                dec si
0000328F  C50C              lds cx,[si]
00003291  0404              add al,0x4
00003293  0020              add [bx+si],ah
00003295  0000              add [bx+si],al
00003297  008C0200          add [si+0x2],cl
0000329B  0099E5FF          add [bx+di-0x1b],bl
0000329F  FF5700            call [bx+0x0]
000032A2  0000              add [bx+si],al
000032A4  00410E            add [bx+di+0xe],al
000032A7  08850242          or [di+0x4202],al
000032AB  0D0544            or ax,0x4405
000032AE  830302            add word [bp+di],byte +0x2
000032B1  4F                dec di
000032B2  C5                db 0xc5
000032B3  C3                ret
000032B4  0C04              or al,0x4
000032B6  0400              add al,0x0
000032B8  1C00              sbb al,0x0
000032BA  0000              add [bx+si],al
000032BC  B002              mov al,0x2
000032BE  0000              add [bx+si],al
000032C0  CC                int3
000032C1  E5FF              in ax,0xff
000032C3  FF7000            push word [bx+si+0x0]
000032C6  0000              add [bx+si],al
000032C8  00410E            add [bx+di+0xe],al
000032CB  08850242          or [di+0x4202],al
000032CF  0D0502            or ax,0x205
000032D2  6C                insb
000032D3  C50C              lds cx,[si]
000032D5  0404              add al,0x4
000032D7  0020              add [bx+si],ah
000032D9  0000              add [bx+si],al
000032DB  00D0              add al,dl
000032DD  0200              add al,[bx+si]
000032DF  001C              add [si],bl
000032E1  E6FF              out 0xff,al
000032E3  FF4F00            dec word [bx+0x0]
000032E6  0000              add [bx+si],al
000032E8  00410E            add [bx+di+0xe],al
000032EB  08850242          or [di+0x4202],al
000032EF  0D0544            or ax,0x4405
000032F2  830302            add word [bp+di],byte +0x2
000032F5  47                inc di
000032F6  C5                db 0xc5
000032F7  C3                ret
000032F8  0C04              or al,0x4
000032FA  0400              add al,0x0
000032FC  1C00              sbb al,0x0
000032FE  0000              add [bx+si],al
00003300  F4                hlt
00003301  0200              add al,[bx+si]
00003303  0047E6            add [bx-0x1a],al
00003306  FF                db 0xff
00003307  FF20              jmp [bx+si]
00003309  0000              add [bx+si],al
0000330B  0000              add [bx+si],al
0000330D  41                inc cx
0000330E  0E                push cs
0000330F  08850242          or [di+0x4202],al
00003313  0D055C            or ax,0x5c05
00003316  C50C              lds cx,[si]
00003318  0404              add al,0x4
0000331A  0000              add [bx+si],al
0000331C  2000              and [bx+si],al
0000331E  0000              add [bx+si],al
00003320  1403              adc al,0x3
00003322  0000              add [bx+si],al
00003324  47                inc di
00003325  E6FF              out 0xff,al
00003327  FF4300            inc word [bp+di+0x0]
0000332A  0000              add [bx+si],al
0000332C  00410E            add [bx+di+0xe],al
0000332F  08850242          or [di+0x4202],al
00003333  0D0544            or ax,0x4405
00003336  83037B            add word [bp+di],byte +0x7b
00003339  C5                db 0xc5
0000333A  C3                ret
0000333B  0C04              or al,0x4
0000333D  0400              add al,0x0
0000333F  001C              add [si],bl
00003341  0000              add [bx+si],al
00003343  0038              add [bx+si],bh
00003345  0300              add ax,[bx+si]
00003347  0066E6            add [bp-0x1a],ah
0000334A  FF                db 0xff
0000334B  FF6500            jmp [di+0x0]
0000334E  0000              add [bx+si],al
00003350  00410E            add [bx+di+0xe],al
00003353  08850242          or [di+0x4202],al
00003357  0D0502            or ax,0x205
0000335A  61                popa
0000335B  C50C              lds cx,[si]
0000335D  0404              add al,0x4
0000335F  0020              add [bx+si],ah
00003361  0000              add [bx+si],al
00003363  005803            add [bx+si+0x3],bl
00003366  0000              add [bx+si],al
00003368  AB                stosw
00003369  E6FF              out 0xff,al
0000336B  FF7400            push word [si+0x0]
0000336E  0000              add [bx+si],al
00003370  00410E            add [bx+di+0xe],al
00003373  08850242          or [di+0x4202],al
00003377  0D0544            or ax,0x4405
0000337A  830302            add word [bp+di],byte +0x2
0000337D  6C                insb
0000337E  C5                db 0xc5
0000337F  C3                ret
00003380  0C04              or al,0x4
00003382  0400              add al,0x0
00003384  2000              and [bx+si],al
00003386  0000              add [bx+si],al
00003388  7C03              jl 0x338d
0000338A  0000              add [bx+si],al
0000338C  B0E8              mov al,0xe8
0000338E  FF                db 0xff
0000338F  FF                db 0xff
00003390  DA00              fiadd dword [bx+si]
00003392  0000              add [bx+si],al
00003394  00410E            add [bx+di+0xe],al
00003397  08850242          or [di+0x4202],al
0000339B  0D0544            or ax,0x4405
0000339E  830302            add word [bp+di],byte +0x2
000033A1  D2C5              rol ch,cl
000033A3  C3                ret
000033A4  0C04              or al,0x4
000033A6  0400              add al,0x0
000033A8  1C00              sbb al,0x0
000033AA  0000              add [bx+si],al
000033AC  A00300            mov al,[0x3]
000033AF  0078E9            add [bx+si-0x17],bh
000033B2  FF                db 0xff
000033B3  FF                db 0xff
000033B4  3F                aas
000033B5  0000              add [bx+si],al
000033B7  0000              add [bx+si],al
000033B9  41                inc cx
000033BA  0E                push cs
000033BB  08850242          or [di+0x4202],al
000033BF  0D057B            or ax,0x7b05
000033C2  C50C              lds cx,[si]
000033C4  0404              add al,0x4
000033C6  0000              add [bx+si],al
000033C8  1C00              sbb al,0x0
000033CA  0000              add [bx+si],al
000033CC  C00300            rol byte [bp+di],byte 0x0
000033CF  0097E9FF          add [bx-0x17],dl
000033D3  FF860000          inc word [bp+0x0]
000033D7  0000              add [bx+si],al
000033D9  41                inc cx
000033DA  0E                push cs
000033DB  08850242          or [di+0x4202],al
000033DF  0D0502            or ax,0x205
000033E2  82                db 0x82
000033E3  C50C              lds cx,[si]
000033E5  0404              add al,0x4
000033E7  001C              add [si],bl
000033E9  0000              add [bx+si],al
000033EB  00E0              add al,ah
000033ED  0300              add ax,[bx+si]
000033EF  00FD              add ch,bh
000033F1  E9FFFF            jmp 0x33f3
000033F4  3800              cmp [bx+si],al
000033F6  0000              add [bx+si],al
000033F8  00410E            add [bx+di+0xe],al
000033FB  08850242          or [di+0x4202],al
000033FF  0D0574            or ax,0x7405
00003402  C50C              lds cx,[si]
00003404  0404              add al,0x4
00003406  0000              add [bx+si],al
00003408  2400              and al,0x0
0000340A  0000              add [bx+si],al
0000340C  0004              add [si],al
0000340E  0000              add [bx+si],al
00003410  15EAFF            adc ax,0xffea
00003413  FF940000          call [si+0x0]
00003417  0000              add [bx+si],al
00003419  41                inc cx
0000341A  0E                push cs
0000341B  08850242          or [di+0x4202],al
0000341F  0D0545            or ax,0x4505
00003422  8603              xchg [bp+di],al
00003424  830402            add word [si],byte +0x2
00003427  89C3              mov bx,ax
00003429  41                inc cx
0000342A  C641C50C          mov byte [bx+di-0x3b],0xc
0000342E  0404              add al,0x4
00003430  1C00              sbb al,0x0
00003432  0000              add [bx+si],al
00003434  2804              sub [si],al
00003436  0000              add [bx+si],al
00003438  81EAFFFF          sub dx,0xffff
0000343C  650000            add [gs:bx+si],al
0000343F  0000              add [bx+si],al
00003441  41                inc cx
00003442  0E                push cs
00003443  08850242          or [di+0x4202],al
00003447  0D0502            or ax,0x205
0000344A  61                popa
0000344B  C50C              lds cx,[si]
0000344D  0404              add al,0x4
0000344F  0020              add [bx+si],ah
00003451  0000              add [bx+si],al
00003453  004804            add [bx+si+0x4],cl
00003456  0000              add [bx+si],al
00003458  C6                db 0xc6
00003459  EAFFFF3900        jmp 0x39:0xffff
0000345E  0000              add [bx+si],al
00003460  00410E            add [bx+di+0xe],al
00003463  08850242          or [di+0x4202],al
00003467  0D0544            or ax,0x4405
0000346A  830371            add word [bp+di],byte +0x71
0000346D  C5                db 0xc5
0000346E  C3                ret
0000346F  0C04              or al,0x4
00003471  0400              add al,0x0
00003473  0020              add [bx+si],ah
00003475  0000              add [bx+si],al
00003477  006C04            add [si+0x4],ch
0000347A  0000              add [bx+si],al
0000347C  DBEA              fucomi st2
0000347E  FF                db 0xff
0000347F  FF                db 0xff
00003480  3D0000            cmp ax,0x0
00003483  0000              add [bx+si],al
00003485  41                inc cx
00003486  0E                push cs
00003487  08850242          or [di+0x4202],al
0000348B  0D0544            or ax,0x4405
0000348E  830375            add word [bp+di],byte +0x75
00003491  C5                db 0xc5
00003492  C3                ret
00003493  0C04              or al,0x4
00003495  0400              add al,0x0
00003497  0020              add [bx+si],ah
00003499  0000              add [bx+si],al
0000349B  00900400          add [bx+si+0x4],dl
0000349F  00F4              add ah,dh
000034A1  EAFFFF8400        jmp 0x84:0xffff
000034A6  0000              add [bx+si],al
000034A8  00410E            add [bx+di+0xe],al
000034AB  08850242          or [di+0x4202],al
000034AF  0D0544            or ax,0x4405
000034B2  830302            add word [bp+di],byte +0x2
000034B5  7CC5              jl 0x347c
000034B7  C3                ret
000034B8  0C04              or al,0x4
000034BA  0400              add al,0x0
000034BC  1C00              sbb al,0x0
000034BE  0000              add [bx+si],al
000034C0  B404              mov ah,0x4
000034C2  0000              add [bx+si],al
000034C4  54                push sp
000034C5  EBFF              jmp short 0x34c6
000034C7  FF35              push word [di]
000034C9  0000              add [bx+si],al
000034CB  0000              add [bx+si],al
000034CD  41                inc cx
000034CE  0E                push cs
000034CF  08850242          or [di+0x4202],al
000034D3  0D0571            or ax,0x7105
000034D6  C50C              lds cx,[si]
000034D8  0404              add al,0x4
000034DA  0000              add [bx+si],al
000034DC  1C00              sbb al,0x0
000034DE  0000              add [bx+si],al
000034E0  D404              aam 0x4
000034E2  0000              add [bx+si],al
000034E4  82                db 0x82
000034E5  EBFF              jmp short 0x34e6
000034E7  FF30              push word [bx+si]
000034E9  0000              add [bx+si],al
000034EB  0000              add [bx+si],al
000034ED  41                inc cx
000034EE  0E                push cs
000034EF  08850242          or [di+0x4202],al
000034F3  0D056C            or ax,0x6c05
000034F6  C50C              lds cx,[si]
000034F8  0404              add al,0x4
000034FA  0000              add [bx+si],al
000034FC  0000              add [bx+si],al
000034FE  0000              add [bx+si],al
00003500  0000              add [bx+si],al
00003502  0000              add [bx+si],al
00003504  0000              add [bx+si],al
00003506  0000              add [bx+si],al
00003508  0000              add [bx+si],al
0000350A  0000              add [bx+si],al
0000350C  0000              add [bx+si],al
0000350E  0000              add [bx+si],al
00003510  0000              add [bx+si],al
00003512  0000              add [bx+si],al
00003514  0000              add [bx+si],al
00003516  0000              add [bx+si],al
00003518  0000              add [bx+si],al
0000351A  0000              add [bx+si],al
0000351C  0000              add [bx+si],al
0000351E  0000              add [bx+si],al
00003520  0000              add [bx+si],al
00003522  0000              add [bx+si],al
00003524  0000              add [bx+si],al
00003526  0000              add [bx+si],al
00003528  0000              add [bx+si],al
0000352A  0000              add [bx+si],al
0000352C  0000              add [bx+si],al
0000352E  0000              add [bx+si],al
00003530  0000              add [bx+si],al
00003532  0000              add [bx+si],al
00003534  0000              add [bx+si],al
00003536  0000              add [bx+si],al
00003538  0000              add [bx+si],al
0000353A  0000              add [bx+si],al
0000353C  0000              add [bx+si],al
0000353E  0000              add [bx+si],al
00003540  0000              add [bx+si],al
00003542  0000              add [bx+si],al
00003544  0000              add [bx+si],al
00003546  0000              add [bx+si],al
00003548  0000              add [bx+si],al
0000354A  0000              add [bx+si],al
0000354C  0000              add [bx+si],al
0000354E  0000              add [bx+si],al
00003550  0000              add [bx+si],al
00003552  0000              add [bx+si],al
00003554  0000              add [bx+si],al
00003556  0000              add [bx+si],al
00003558  0000              add [bx+si],al
0000355A  0000              add [bx+si],al
0000355C  0000              add [bx+si],al
0000355E  0000              add [bx+si],al
00003560  0000              add [bx+si],al
00003562  0000              add [bx+si],al
00003564  0000              add [bx+si],al
00003566  0000              add [bx+si],al
00003568  0000              add [bx+si],al
0000356A  0000              add [bx+si],al
0000356C  0000              add [bx+si],al
0000356E  0000              add [bx+si],al
00003570  0000              add [bx+si],al
00003572  0000              add [bx+si],al
00003574  0000              add [bx+si],al
00003576  0000              add [bx+si],al
00003578  0000              add [bx+si],al
0000357A  0000              add [bx+si],al
0000357C  0000              add [bx+si],al
0000357E  0000              add [bx+si],al
00003580  0000              add [bx+si],al
00003582  0000              add [bx+si],al
00003584  0000              add [bx+si],al
00003586  0000              add [bx+si],al
00003588  0000              add [bx+si],al
0000358A  0000              add [bx+si],al
0000358C  0000              add [bx+si],al
0000358E  0000              add [bx+si],al
00003590  0000              add [bx+si],al
00003592  0000              add [bx+si],al
00003594  0000              add [bx+si],al
00003596  0000              add [bx+si],al
00003598  0000              add [bx+si],al
0000359A  0000              add [bx+si],al
0000359C  0000              add [bx+si],al
0000359E  0000              add [bx+si],al
000035A0  0000              add [bx+si],al
000035A2  0000              add [bx+si],al
000035A4  0000              add [bx+si],al
000035A6  0000              add [bx+si],al
000035A8  0000              add [bx+si],al
000035AA  0000              add [bx+si],al
000035AC  0000              add [bx+si],al
000035AE  0000              add [bx+si],al
000035B0  0000              add [bx+si],al
000035B2  0000              add [bx+si],al
000035B4  0000              add [bx+si],al
000035B6  0000              add [bx+si],al
000035B8  0000              add [bx+si],al
000035BA  0000              add [bx+si],al
000035BC  0000              add [bx+si],al
000035BE  0000              add [bx+si],al
000035C0  0000              add [bx+si],al
000035C2  0000              add [bx+si],al
000035C4  0000              add [bx+si],al
000035C6  0000              add [bx+si],al
000035C8  0000              add [bx+si],al
000035CA  0000              add [bx+si],al
000035CC  0000              add [bx+si],al
000035CE  0000              add [bx+si],al
000035D0  0000              add [bx+si],al
000035D2  0000              add [bx+si],al
000035D4  0000              add [bx+si],al
000035D6  0000              add [bx+si],al
000035D8  0000              add [bx+si],al
000035DA  0000              add [bx+si],al
000035DC  0000              add [bx+si],al
000035DE  0000              add [bx+si],al
000035E0  0000              add [bx+si],al
000035E2  0000              add [bx+si],al
000035E4  0000              add [bx+si],al
000035E6  0000              add [bx+si],al
000035E8  0000              add [bx+si],al
000035EA  0000              add [bx+si],al
000035EC  0000              add [bx+si],al
000035EE  0000              add [bx+si],al
000035F0  0000              add [bx+si],al
000035F2  0000              add [bx+si],al
000035F4  0000              add [bx+si],al
000035F6  0000              add [bx+si],al
000035F8  0000              add [bx+si],al
000035FA  0000              add [bx+si],al
000035FC  0000              add [bx+si],al
000035FE  0000              add [bx+si],al
00003600  0000              add [bx+si],al
00003602  0000              add [bx+si],al
00003604  0000              add [bx+si],al
00003606  0000              add [bx+si],al
00003608  0000              add [bx+si],al
0000360A  0000              add [bx+si],al
0000360C  0000              add [bx+si],al
0000360E  0000              add [bx+si],al
00003610  0000              add [bx+si],al
00003612  0000              add [bx+si],al
00003614  0000              add [bx+si],al
00003616  0000              add [bx+si],al
00003618  0000              add [bx+si],al
0000361A  0000              add [bx+si],al
0000361C  0000              add [bx+si],al
0000361E  0000              add [bx+si],al
00003620  0000              add [bx+si],al
00003622  0000              add [bx+si],al
00003624  0000              add [bx+si],al
00003626  0000              add [bx+si],al
00003628  0000              add [bx+si],al
0000362A  0000              add [bx+si],al
0000362C  0000              add [bx+si],al
0000362E  0000              add [bx+si],al
00003630  0000              add [bx+si],al
00003632  0000              add [bx+si],al
00003634  0000              add [bx+si],al
00003636  0000              add [bx+si],al
00003638  0000              add [bx+si],al
0000363A  0000              add [bx+si],al
0000363C  0000              add [bx+si],al
0000363E  0000              add [bx+si],al
00003640  0000              add [bx+si],al
00003642  0000              add [bx+si],al
00003644  0000              add [bx+si],al
00003646  0000              add [bx+si],al
00003648  0000              add [bx+si],al
0000364A  0000              add [bx+si],al
0000364C  0000              add [bx+si],al
0000364E  0000              add [bx+si],al
00003650  0000              add [bx+si],al
00003652  0000              add [bx+si],al
00003654  0000              add [bx+si],al
00003656  0000              add [bx+si],al
00003658  0000              add [bx+si],al
0000365A  0000              add [bx+si],al
0000365C  0000              add [bx+si],al
0000365E  0000              add [bx+si],al
00003660  0000              add [bx+si],al
00003662  0000              add [bx+si],al
00003664  0000              add [bx+si],al
00003666  0000              add [bx+si],al
00003668  0000              add [bx+si],al
0000366A  0000              add [bx+si],al
0000366C  0000              add [bx+si],al
0000366E  0000              add [bx+si],al
00003670  0000              add [bx+si],al
00003672  0000              add [bx+si],al
00003674  0000              add [bx+si],al
00003676  0000              add [bx+si],al
00003678  0000              add [bx+si],al
0000367A  0000              add [bx+si],al
0000367C  0000              add [bx+si],al
0000367E  0000              add [bx+si],al
00003680  0000              add [bx+si],al
00003682  0000              add [bx+si],al
00003684  0000              add [bx+si],al
00003686  0000              add [bx+si],al
00003688  0000              add [bx+si],al
0000368A  0000              add [bx+si],al
0000368C  0000              add [bx+si],al
0000368E  0000              add [bx+si],al
00003690  0000              add [bx+si],al
00003692  0000              add [bx+si],al
00003694  0000              add [bx+si],al
00003696  0000              add [bx+si],al
00003698  0000              add [bx+si],al
0000369A  0000              add [bx+si],al
0000369C  0000              add [bx+si],al
0000369E  0000              add [bx+si],al
000036A0  0000              add [bx+si],al
000036A2  0000              add [bx+si],al
000036A4  0000              add [bx+si],al
000036A6  0000              add [bx+si],al
000036A8  0000              add [bx+si],al
000036AA  0000              add [bx+si],al
000036AC  0000              add [bx+si],al
000036AE  0000              add [bx+si],al
000036B0  0000              add [bx+si],al
000036B2  0000              add [bx+si],al
000036B4  0000              add [bx+si],al
000036B6  0000              add [bx+si],al
000036B8  0000              add [bx+si],al
000036BA  0000              add [bx+si],al
000036BC  0000              add [bx+si],al
000036BE  0000              add [bx+si],al
000036C0  0000              add [bx+si],al
000036C2  0000              add [bx+si],al
000036C4  0000              add [bx+si],al
000036C6  0000              add [bx+si],al
000036C8  0000              add [bx+si],al
000036CA  0000              add [bx+si],al
000036CC  0000              add [bx+si],al
000036CE  0000              add [bx+si],al
000036D0  0000              add [bx+si],al
000036D2  0000              add [bx+si],al
000036D4  0000              add [bx+si],al
000036D6  0000              add [bx+si],al
000036D8  0000              add [bx+si],al
000036DA  0000              add [bx+si],al
000036DC  0000              add [bx+si],al
000036DE  0000              add [bx+si],al
000036E0  0000              add [bx+si],al
000036E2  0000              add [bx+si],al
000036E4  0000              add [bx+si],al
000036E6  0000              add [bx+si],al
000036E8  0000              add [bx+si],al
000036EA  0000              add [bx+si],al
000036EC  0000              add [bx+si],al
000036EE  0000              add [bx+si],al
000036F0  0000              add [bx+si],al
000036F2  0000              add [bx+si],al
000036F4  0000              add [bx+si],al
000036F6  0000              add [bx+si],al
000036F8  0000              add [bx+si],al
000036FA  0000              add [bx+si],al
000036FC  0000              add [bx+si],al
000036FE  0000              add [bx+si],al
00003700  0000              add [bx+si],al
00003702  0000              add [bx+si],al
00003704  0000              add [bx+si],al
00003706  0000              add [bx+si],al
00003708  0000              add [bx+si],al
0000370A  0000              add [bx+si],al
0000370C  0000              add [bx+si],al
0000370E  0000              add [bx+si],al
00003710  0000              add [bx+si],al
00003712  0000              add [bx+si],al
00003714  0000              add [bx+si],al
00003716  0000              add [bx+si],al
00003718  0000              add [bx+si],al
0000371A  0000              add [bx+si],al
0000371C  0000              add [bx+si],al
0000371E  0000              add [bx+si],al
00003720  0000              add [bx+si],al
00003722  0000              add [bx+si],al
00003724  0000              add [bx+si],al
00003726  0000              add [bx+si],al
00003728  0000              add [bx+si],al
0000372A  0000              add [bx+si],al
0000372C  0000              add [bx+si],al
0000372E  0000              add [bx+si],al
00003730  0000              add [bx+si],al
00003732  0000              add [bx+si],al
00003734  0000              add [bx+si],al
00003736  0000              add [bx+si],al
00003738  0000              add [bx+si],al
0000373A  0000              add [bx+si],al
0000373C  0000              add [bx+si],al
0000373E  0000              add [bx+si],al
00003740  0000              add [bx+si],al
00003742  0000              add [bx+si],al
00003744  0000              add [bx+si],al
00003746  0000              add [bx+si],al
00003748  0000              add [bx+si],al
0000374A  0000              add [bx+si],al
0000374C  0000              add [bx+si],al
0000374E  0000              add [bx+si],al
00003750  0000              add [bx+si],al
00003752  0000              add [bx+si],al
00003754  0000              add [bx+si],al
00003756  0000              add [bx+si],al
00003758  0000              add [bx+si],al
0000375A  0000              add [bx+si],al
0000375C  0000              add [bx+si],al
0000375E  0000              add [bx+si],al
00003760  0000              add [bx+si],al
00003762  0000              add [bx+si],al
00003764  0000              add [bx+si],al
00003766  0000              add [bx+si],al
00003768  0000              add [bx+si],al
0000376A  0000              add [bx+si],al
0000376C  0000              add [bx+si],al
0000376E  0000              add [bx+si],al
00003770  0000              add [bx+si],al
00003772  0000              add [bx+si],al
00003774  0000              add [bx+si],al
00003776  0000              add [bx+si],al
00003778  0000              add [bx+si],al
0000377A  0000              add [bx+si],al
0000377C  0000              add [bx+si],al
0000377E  0000              add [bx+si],al
00003780  0000              add [bx+si],al
00003782  0000              add [bx+si],al
00003784  0000              add [bx+si],al
00003786  0000              add [bx+si],al
00003788  0000              add [bx+si],al
0000378A  0000              add [bx+si],al
0000378C  0000              add [bx+si],al
0000378E  0000              add [bx+si],al
00003790  0000              add [bx+si],al
00003792  0000              add [bx+si],al
00003794  0000              add [bx+si],al
00003796  0000              add [bx+si],al
00003798  0000              add [bx+si],al
0000379A  0000              add [bx+si],al
0000379C  0000              add [bx+si],al
0000379E  0000              add [bx+si],al
000037A0  0000              add [bx+si],al
000037A2  0000              add [bx+si],al
000037A4  0000              add [bx+si],al
000037A6  0000              add [bx+si],al
000037A8  0000              add [bx+si],al
000037AA  0000              add [bx+si],al
000037AC  0000              add [bx+si],al
000037AE  0000              add [bx+si],al
000037B0  0000              add [bx+si],al
000037B2  0000              add [bx+si],al
000037B4  0000              add [bx+si],al
000037B6  0000              add [bx+si],al
000037B8  0000              add [bx+si],al
000037BA  0000              add [bx+si],al
000037BC  0000              add [bx+si],al
000037BE  0000              add [bx+si],al
000037C0  0000              add [bx+si],al
000037C2  0000              add [bx+si],al
000037C4  0000              add [bx+si],al
000037C6  0000              add [bx+si],al
000037C8  0000              add [bx+si],al
000037CA  0000              add [bx+si],al
000037CC  0000              add [bx+si],al
000037CE  0000              add [bx+si],al
000037D0  0000              add [bx+si],al
000037D2  0000              add [bx+si],al
000037D4  0000              add [bx+si],al
000037D6  0000              add [bx+si],al
000037D8  0000              add [bx+si],al
000037DA  0000              add [bx+si],al
000037DC  0000              add [bx+si],al
000037DE  0000              add [bx+si],al
000037E0  0000              add [bx+si],al
000037E2  0000              add [bx+si],al
000037E4  0000              add [bx+si],al
000037E6  0000              add [bx+si],al
000037E8  0000              add [bx+si],al
000037EA  0000              add [bx+si],al
000037EC  0000              add [bx+si],al
000037EE  0000              add [bx+si],al
000037F0  0000              add [bx+si],al
000037F2  0000              add [bx+si],al
000037F4  0000              add [bx+si],al
000037F6  0000              add [bx+si],al
000037F8  0000              add [bx+si],al
000037FA  0000              add [bx+si],al
000037FC  0000              add [bx+si],al
000037FE  0000              add [bx+si],al
00003800  0000              add [bx+si],al
00003802  0000              add [bx+si],al
00003804  0000              add [bx+si],al
00003806  0000              add [bx+si],al
00003808  0000              add [bx+si],al
0000380A  0000              add [bx+si],al
0000380C  0000              add [bx+si],al
0000380E  0000              add [bx+si],al
00003810  0000              add [bx+si],al
00003812  0000              add [bx+si],al
00003814  0000              add [bx+si],al
00003816  0000              add [bx+si],al
00003818  0000              add [bx+si],al
0000381A  0000              add [bx+si],al
0000381C  0000              add [bx+si],al
0000381E  0000              add [bx+si],al
00003820  0000              add [bx+si],al
00003822  0000              add [bx+si],al
00003824  0000              add [bx+si],al
00003826  0000              add [bx+si],al
00003828  0000              add [bx+si],al
0000382A  0000              add [bx+si],al
0000382C  0000              add [bx+si],al
0000382E  0000              add [bx+si],al
00003830  0000              add [bx+si],al
00003832  0000              add [bx+si],al
00003834  0000              add [bx+si],al
00003836  0000              add [bx+si],al
00003838  0000              add [bx+si],al
0000383A  0000              add [bx+si],al
0000383C  0000              add [bx+si],al
0000383E  0000              add [bx+si],al
00003840  0000              add [bx+si],al
00003842  0000              add [bx+si],al
00003844  0000              add [bx+si],al
00003846  0000              add [bx+si],al
00003848  0000              add [bx+si],al
0000384A  0000              add [bx+si],al
0000384C  0000              add [bx+si],al
0000384E  0000              add [bx+si],al
00003850  0000              add [bx+si],al
00003852  0000              add [bx+si],al
00003854  0000              add [bx+si],al
00003856  0000              add [bx+si],al
00003858  0000              add [bx+si],al
0000385A  0000              add [bx+si],al
0000385C  0000              add [bx+si],al
0000385E  0000              add [bx+si],al
00003860  0000              add [bx+si],al
00003862  0000              add [bx+si],al
00003864  0000              add [bx+si],al
00003866  0000              add [bx+si],al
00003868  0000              add [bx+si],al
0000386A  0000              add [bx+si],al
0000386C  0000              add [bx+si],al
0000386E  0000              add [bx+si],al
00003870  0000              add [bx+si],al
00003872  0000              add [bx+si],al
00003874  0000              add [bx+si],al
00003876  0000              add [bx+si],al
00003878  0000              add [bx+si],al
0000387A  0000              add [bx+si],al
0000387C  0000              add [bx+si],al
0000387E  0000              add [bx+si],al
00003880  0000              add [bx+si],al
00003882  0000              add [bx+si],al
00003884  0000              add [bx+si],al
00003886  0000              add [bx+si],al
00003888  0000              add [bx+si],al
0000388A  0000              add [bx+si],al
0000388C  0000              add [bx+si],al
0000388E  0000              add [bx+si],al
00003890  0000              add [bx+si],al
00003892  0000              add [bx+si],al
00003894  0000              add [bx+si],al
00003896  0000              add [bx+si],al
00003898  0000              add [bx+si],al
0000389A  0000              add [bx+si],al
0000389C  0000              add [bx+si],al
0000389E  0000              add [bx+si],al
000038A0  0000              add [bx+si],al
000038A2  0000              add [bx+si],al
000038A4  0000              add [bx+si],al
000038A6  0000              add [bx+si],al
000038A8  0000              add [bx+si],al
000038AA  0000              add [bx+si],al
000038AC  0000              add [bx+si],al
000038AE  0000              add [bx+si],al
000038B0  0000              add [bx+si],al
000038B2  0000              add [bx+si],al
000038B4  0000              add [bx+si],al
000038B6  0000              add [bx+si],al
000038B8  0000              add [bx+si],al
000038BA  0000              add [bx+si],al
000038BC  0000              add [bx+si],al
000038BE  0000              add [bx+si],al
000038C0  0000              add [bx+si],al
000038C2  0000              add [bx+si],al
000038C4  0000              add [bx+si],al
000038C6  0000              add [bx+si],al
000038C8  0000              add [bx+si],al
000038CA  0000              add [bx+si],al
000038CC  0000              add [bx+si],al
000038CE  0000              add [bx+si],al
000038D0  0000              add [bx+si],al
000038D2  0000              add [bx+si],al
000038D4  0000              add [bx+si],al
000038D6  0000              add [bx+si],al
000038D8  0000              add [bx+si],al
000038DA  0000              add [bx+si],al
000038DC  0000              add [bx+si],al
000038DE  0000              add [bx+si],al
000038E0  0000              add [bx+si],al
000038E2  0000              add [bx+si],al
000038E4  0000              add [bx+si],al
000038E6  0000              add [bx+si],al
000038E8  0000              add [bx+si],al
000038EA  0000              add [bx+si],al
000038EC  0000              add [bx+si],al
000038EE  0000              add [bx+si],al
000038F0  0000              add [bx+si],al
000038F2  0000              add [bx+si],al
000038F4  0000              add [bx+si],al
000038F6  0000              add [bx+si],al
000038F8  0000              add [bx+si],al
000038FA  0000              add [bx+si],al
000038FC  0000              add [bx+si],al
000038FE  0000              add [bx+si],al
00003900  0000              add [bx+si],al
00003902  0000              add [bx+si],al
00003904  0000              add [bx+si],al
00003906  0000              add [bx+si],al
00003908  0000              add [bx+si],al
0000390A  0000              add [bx+si],al
0000390C  0000              add [bx+si],al
0000390E  0000              add [bx+si],al
00003910  0000              add [bx+si],al
00003912  0000              add [bx+si],al
00003914  0000              add [bx+si],al
00003916  0000              add [bx+si],al
00003918  0000              add [bx+si],al
0000391A  0000              add [bx+si],al
0000391C  0000              add [bx+si],al
0000391E  0000              add [bx+si],al
00003920  0000              add [bx+si],al
00003922  0000              add [bx+si],al
00003924  0000              add [bx+si],al
00003926  0000              add [bx+si],al
00003928  0000              add [bx+si],al
0000392A  0000              add [bx+si],al
0000392C  0000              add [bx+si],al
0000392E  0000              add [bx+si],al
00003930  0000              add [bx+si],al
00003932  0000              add [bx+si],al
00003934  0000              add [bx+si],al
00003936  0000              add [bx+si],al
00003938  0000              add [bx+si],al
0000393A  0000              add [bx+si],al
0000393C  0000              add [bx+si],al
0000393E  0000              add [bx+si],al
00003940  0000              add [bx+si],al
00003942  0000              add [bx+si],al
00003944  0000              add [bx+si],al
00003946  0000              add [bx+si],al
00003948  0000              add [bx+si],al
0000394A  0000              add [bx+si],al
0000394C  0000              add [bx+si],al
0000394E  0000              add [bx+si],al
00003950  0000              add [bx+si],al
00003952  0000              add [bx+si],al
00003954  0000              add [bx+si],al
00003956  0000              add [bx+si],al
00003958  0000              add [bx+si],al
0000395A  0000              add [bx+si],al
0000395C  0000              add [bx+si],al
0000395E  0000              add [bx+si],al
00003960  0000              add [bx+si],al
00003962  0000              add [bx+si],al
00003964  0000              add [bx+si],al
00003966  0000              add [bx+si],al
00003968  0000              add [bx+si],al
0000396A  0000              add [bx+si],al
0000396C  0000              add [bx+si],al
0000396E  0000              add [bx+si],al
00003970  0000              add [bx+si],al
00003972  0000              add [bx+si],al
00003974  0000              add [bx+si],al
00003976  0000              add [bx+si],al
00003978  0000              add [bx+si],al
0000397A  0000              add [bx+si],al
0000397C  0000              add [bx+si],al
0000397E  0000              add [bx+si],al
00003980  0000              add [bx+si],al
00003982  0000              add [bx+si],al
00003984  0000              add [bx+si],al
00003986  0000              add [bx+si],al
00003988  0000              add [bx+si],al
0000398A  0000              add [bx+si],al
0000398C  0000              add [bx+si],al
0000398E  0000              add [bx+si],al
00003990  0000              add [bx+si],al
00003992  0000              add [bx+si],al
00003994  0000              add [bx+si],al
00003996  0000              add [bx+si],al
00003998  0000              add [bx+si],al
0000399A  0000              add [bx+si],al
0000399C  0000              add [bx+si],al
0000399E  0000              add [bx+si],al
000039A0  0000              add [bx+si],al
000039A2  0000              add [bx+si],al
000039A4  0000              add [bx+si],al
000039A6  0000              add [bx+si],al
000039A8  0000              add [bx+si],al
000039AA  0000              add [bx+si],al
000039AC  0000              add [bx+si],al
000039AE  0000              add [bx+si],al
000039B0  0000              add [bx+si],al
000039B2  0000              add [bx+si],al
000039B4  0000              add [bx+si],al
000039B6  0000              add [bx+si],al
000039B8  0000              add [bx+si],al
000039BA  0000              add [bx+si],al
000039BC  0000              add [bx+si],al
000039BE  0000              add [bx+si],al
000039C0  0000              add [bx+si],al
000039C2  0000              add [bx+si],al
000039C4  0000              add [bx+si],al
000039C6  0000              add [bx+si],al
000039C8  0000              add [bx+si],al
000039CA  0000              add [bx+si],al
000039CC  0000              add [bx+si],al
000039CE  0000              add [bx+si],al
000039D0  0000              add [bx+si],al
000039D2  0000              add [bx+si],al
000039D4  0000              add [bx+si],al
000039D6  0000              add [bx+si],al
000039D8  0000              add [bx+si],al
000039DA  0000              add [bx+si],al
000039DC  0000              add [bx+si],al
000039DE  0000              add [bx+si],al
000039E0  0000              add [bx+si],al
000039E2  0000              add [bx+si],al
000039E4  0000              add [bx+si],al
000039E6  0000              add [bx+si],al
000039E8  0000              add [bx+si],al
000039EA  0000              add [bx+si],al
000039EC  0000              add [bx+si],al
000039EE  0000              add [bx+si],al
000039F0  0000              add [bx+si],al
000039F2  0000              add [bx+si],al
000039F4  0000              add [bx+si],al
000039F6  0000              add [bx+si],al
000039F8  0000              add [bx+si],al
000039FA  0000              add [bx+si],al
000039FC  0000              add [bx+si],al
000039FE  0000              add [bx+si],al
00003A00  0000              add [bx+si],al
00003A02  0000              add [bx+si],al
00003A04  0000              add [bx+si],al
00003A06  0000              add [bx+si],al
00003A08  0000              add [bx+si],al
00003A0A  0000              add [bx+si],al
00003A0C  0000              add [bx+si],al
00003A0E  0000              add [bx+si],al
00003A10  0000              add [bx+si],al
00003A12  0000              add [bx+si],al
00003A14  0000              add [bx+si],al
00003A16  0000              add [bx+si],al
00003A18  0000              add [bx+si],al
00003A1A  0000              add [bx+si],al
00003A1C  0000              add [bx+si],al
00003A1E  0000              add [bx+si],al
00003A20  0000              add [bx+si],al
00003A22  0000              add [bx+si],al
00003A24  0000              add [bx+si],al
00003A26  0000              add [bx+si],al
00003A28  0000              add [bx+si],al
00003A2A  0000              add [bx+si],al
00003A2C  0000              add [bx+si],al
00003A2E  0000              add [bx+si],al
00003A30  0000              add [bx+si],al
00003A32  0000              add [bx+si],al
00003A34  0000              add [bx+si],al
00003A36  0000              add [bx+si],al
00003A38  0000              add [bx+si],al
00003A3A  0000              add [bx+si],al
00003A3C  0000              add [bx+si],al
00003A3E  0000              add [bx+si],al
00003A40  0000              add [bx+si],al
00003A42  0000              add [bx+si],al
00003A44  0000              add [bx+si],al
00003A46  0000              add [bx+si],al
00003A48  0000              add [bx+si],al
00003A4A  0000              add [bx+si],al
00003A4C  0000              add [bx+si],al
00003A4E  0000              add [bx+si],al
00003A50  0000              add [bx+si],al
00003A52  0000              add [bx+si],al
00003A54  0000              add [bx+si],al
00003A56  0000              add [bx+si],al
00003A58  0000              add [bx+si],al
00003A5A  0000              add [bx+si],al
00003A5C  0000              add [bx+si],al
00003A5E  0000              add [bx+si],al
00003A60  0000              add [bx+si],al
00003A62  0000              add [bx+si],al
00003A64  0000              add [bx+si],al
00003A66  0000              add [bx+si],al
00003A68  0000              add [bx+si],al
00003A6A  0000              add [bx+si],al
00003A6C  0000              add [bx+si],al
00003A6E  0000              add [bx+si],al
00003A70  0000              add [bx+si],al
00003A72  0000              add [bx+si],al
00003A74  0000              add [bx+si],al
00003A76  0000              add [bx+si],al
00003A78  0000              add [bx+si],al
00003A7A  0000              add [bx+si],al
00003A7C  0000              add [bx+si],al
00003A7E  0000              add [bx+si],al
00003A80  0000              add [bx+si],al
00003A82  0000              add [bx+si],al
00003A84  0000              add [bx+si],al
00003A86  0000              add [bx+si],al
00003A88  0000              add [bx+si],al
00003A8A  0000              add [bx+si],al
00003A8C  0000              add [bx+si],al
00003A8E  0000              add [bx+si],al
00003A90  0000              add [bx+si],al
00003A92  0000              add [bx+si],al
00003A94  0000              add [bx+si],al
00003A96  0000              add [bx+si],al
00003A98  0000              add [bx+si],al
00003A9A  0000              add [bx+si],al
00003A9C  0000              add [bx+si],al
00003A9E  0000              add [bx+si],al
00003AA0  0000              add [bx+si],al
00003AA2  0000              add [bx+si],al
00003AA4  0000              add [bx+si],al
00003AA6  0000              add [bx+si],al
00003AA8  0000              add [bx+si],al
00003AAA  0000              add [bx+si],al
00003AAC  0000              add [bx+si],al
00003AAE  0000              add [bx+si],al
00003AB0  0000              add [bx+si],al
00003AB2  0000              add [bx+si],al
00003AB4  0000              add [bx+si],al
00003AB6  0000              add [bx+si],al
00003AB8  0000              add [bx+si],al
00003ABA  0000              add [bx+si],al
00003ABC  0000              add [bx+si],al
00003ABE  0000              add [bx+si],al
00003AC0  0000              add [bx+si],al
00003AC2  0000              add [bx+si],al
00003AC4  0000              add [bx+si],al
00003AC6  0000              add [bx+si],al
00003AC8  0000              add [bx+si],al
00003ACA  0000              add [bx+si],al
00003ACC  0000              add [bx+si],al
00003ACE  0000              add [bx+si],al
00003AD0  0000              add [bx+si],al
00003AD2  0000              add [bx+si],al
00003AD4  0000              add [bx+si],al
00003AD6  0000              add [bx+si],al
00003AD8  0000              add [bx+si],al
00003ADA  0000              add [bx+si],al
00003ADC  0000              add [bx+si],al
00003ADE  0000              add [bx+si],al
00003AE0  0000              add [bx+si],al
00003AE2  0000              add [bx+si],al
00003AE4  0000              add [bx+si],al
00003AE6  0000              add [bx+si],al
00003AE8  0000              add [bx+si],al
00003AEA  0000              add [bx+si],al
00003AEC  0000              add [bx+si],al
00003AEE  0000              add [bx+si],al
00003AF0  0000              add [bx+si],al
00003AF2  0000              add [bx+si],al
00003AF4  0000              add [bx+si],al
00003AF6  0000              add [bx+si],al
00003AF8  0000              add [bx+si],al
00003AFA  0000              add [bx+si],al
00003AFC  0000              add [bx+si],al
00003AFE  0000              add [bx+si],al
00003B00  0000              add [bx+si],al
00003B02  0000              add [bx+si],al
00003B04  0000              add [bx+si],al
00003B06  0000              add [bx+si],al
00003B08  0000              add [bx+si],al
00003B0A  0000              add [bx+si],al
00003B0C  0000              add [bx+si],al
00003B0E  0000              add [bx+si],al
00003B10  0000              add [bx+si],al
00003B12  0000              add [bx+si],al
00003B14  0000              add [bx+si],al
00003B16  0000              add [bx+si],al
00003B18  0000              add [bx+si],al
00003B1A  0000              add [bx+si],al
00003B1C  0000              add [bx+si],al
00003B1E  0000              add [bx+si],al
00003B20  0000              add [bx+si],al
00003B22  0000              add [bx+si],al
00003B24  0000              add [bx+si],al
00003B26  0000              add [bx+si],al
00003B28  0000              add [bx+si],al
00003B2A  0000              add [bx+si],al
00003B2C  0000              add [bx+si],al
00003B2E  0000              add [bx+si],al
00003B30  0000              add [bx+si],al
00003B32  0000              add [bx+si],al
00003B34  0000              add [bx+si],al
00003B36  0000              add [bx+si],al
00003B38  0000              add [bx+si],al
00003B3A  0000              add [bx+si],al
00003B3C  0000              add [bx+si],al
00003B3E  0000              add [bx+si],al
00003B40  0000              add [bx+si],al
00003B42  0000              add [bx+si],al
00003B44  0000              add [bx+si],al
00003B46  0000              add [bx+si],al
00003B48  0000              add [bx+si],al
00003B4A  0000              add [bx+si],al
00003B4C  0000              add [bx+si],al
00003B4E  0000              add [bx+si],al
00003B50  0000              add [bx+si],al
00003B52  0000              add [bx+si],al
00003B54  0000              add [bx+si],al
00003B56  0000              add [bx+si],al
00003B58  0000              add [bx+si],al
00003B5A  0000              add [bx+si],al
00003B5C  0000              add [bx+si],al
00003B5E  0000              add [bx+si],al
00003B60  0000              add [bx+si],al
00003B62  0000              add [bx+si],al
00003B64  0000              add [bx+si],al
00003B66  0000              add [bx+si],al
00003B68  0000              add [bx+si],al
00003B6A  0000              add [bx+si],al
00003B6C  0000              add [bx+si],al
00003B6E  0000              add [bx+si],al
00003B70  0000              add [bx+si],al
00003B72  0000              add [bx+si],al
00003B74  0000              add [bx+si],al
00003B76  0000              add [bx+si],al
00003B78  0000              add [bx+si],al
00003B7A  0000              add [bx+si],al
00003B7C  0000              add [bx+si],al
00003B7E  0000              add [bx+si],al
00003B80  0000              add [bx+si],al
00003B82  0000              add [bx+si],al
00003B84  0000              add [bx+si],al
00003B86  0000              add [bx+si],al
00003B88  0000              add [bx+si],al
00003B8A  0000              add [bx+si],al
00003B8C  0000              add [bx+si],al
00003B8E  0000              add [bx+si],al
00003B90  0000              add [bx+si],al
00003B92  0000              add [bx+si],al
00003B94  0000              add [bx+si],al
00003B96  0000              add [bx+si],al
00003B98  0000              add [bx+si],al
00003B9A  0000              add [bx+si],al
00003B9C  0000              add [bx+si],al
00003B9E  0000              add [bx+si],al
00003BA0  0000              add [bx+si],al
00003BA2  0000              add [bx+si],al
00003BA4  0000              add [bx+si],al
00003BA6  0000              add [bx+si],al
00003BA8  0000              add [bx+si],al
00003BAA  0000              add [bx+si],al
00003BAC  0000              add [bx+si],al
00003BAE  0000              add [bx+si],al
00003BB0  0000              add [bx+si],al
00003BB2  0000              add [bx+si],al
00003BB4  0000              add [bx+si],al
00003BB6  0000              add [bx+si],al
00003BB8  0000              add [bx+si],al
00003BBA  0000              add [bx+si],al
00003BBC  0000              add [bx+si],al
00003BBE  0000              add [bx+si],al
00003BC0  0000              add [bx+si],al
00003BC2  0000              add [bx+si],al
00003BC4  0000              add [bx+si],al
00003BC6  0000              add [bx+si],al
00003BC8  0000              add [bx+si],al
00003BCA  0000              add [bx+si],al
00003BCC  0000              add [bx+si],al
00003BCE  0000              add [bx+si],al
00003BD0  0000              add [bx+si],al
00003BD2  0000              add [bx+si],al
00003BD4  0000              add [bx+si],al
00003BD6  0000              add [bx+si],al
00003BD8  0000              add [bx+si],al
00003BDA  0000              add [bx+si],al
00003BDC  0000              add [bx+si],al
00003BDE  0000              add [bx+si],al
00003BE0  0000              add [bx+si],al
00003BE2  0000              add [bx+si],al
00003BE4  0000              add [bx+si],al
00003BE6  0000              add [bx+si],al
00003BE8  0000              add [bx+si],al
00003BEA  0000              add [bx+si],al
00003BEC  0000              add [bx+si],al
00003BEE  0000              add [bx+si],al
00003BF0  0000              add [bx+si],al
00003BF2  0000              add [bx+si],al
00003BF4  0000              add [bx+si],al
00003BF6  0000              add [bx+si],al
00003BF8  0000              add [bx+si],al
00003BFA  0000              add [bx+si],al
00003BFC  0000              add [bx+si],al
00003BFE  0000              add [bx+si],al
00003C00  0000              add [bx+si],al
00003C02  0000              add [bx+si],al
00003C04  0000              add [bx+si],al
00003C06  0000              add [bx+si],al
00003C08  0000              add [bx+si],al
00003C0A  0000              add [bx+si],al
00003C0C  0000              add [bx+si],al
00003C0E  0000              add [bx+si],al
00003C10  0000              add [bx+si],al
00003C12  0000              add [bx+si],al
00003C14  0000              add [bx+si],al
00003C16  0000              add [bx+si],al
00003C18  0000              add [bx+si],al
00003C1A  0000              add [bx+si],al
00003C1C  0000              add [bx+si],al
00003C1E  0000              add [bx+si],al
00003C20  0000              add [bx+si],al
00003C22  0000              add [bx+si],al
00003C24  0000              add [bx+si],al
00003C26  0000              add [bx+si],al
00003C28  0000              add [bx+si],al
00003C2A  0000              add [bx+si],al
00003C2C  0000              add [bx+si],al
00003C2E  0000              add [bx+si],al
00003C30  0000              add [bx+si],al
00003C32  0000              add [bx+si],al
00003C34  0000              add [bx+si],al
00003C36  0000              add [bx+si],al
00003C38  0000              add [bx+si],al
00003C3A  0000              add [bx+si],al
00003C3C  0000              add [bx+si],al
00003C3E  0000              add [bx+si],al
00003C40  0000              add [bx+si],al
00003C42  0000              add [bx+si],al
00003C44  0000              add [bx+si],al
00003C46  0000              add [bx+si],al
00003C48  0000              add [bx+si],al
00003C4A  0000              add [bx+si],al
00003C4C  0000              add [bx+si],al
00003C4E  0000              add [bx+si],al
00003C50  0000              add [bx+si],al
00003C52  0000              add [bx+si],al
00003C54  0000              add [bx+si],al
00003C56  0000              add [bx+si],al
00003C58  0000              add [bx+si],al
00003C5A  0000              add [bx+si],al
00003C5C  0000              add [bx+si],al
00003C5E  0000              add [bx+si],al
00003C60  0000              add [bx+si],al
00003C62  0000              add [bx+si],al
00003C64  0000              add [bx+si],al
00003C66  0000              add [bx+si],al
00003C68  0000              add [bx+si],al
00003C6A  0000              add [bx+si],al
00003C6C  0000              add [bx+si],al
00003C6E  0000              add [bx+si],al
00003C70  0000              add [bx+si],al
00003C72  0000              add [bx+si],al
00003C74  0000              add [bx+si],al
00003C76  0000              add [bx+si],al
00003C78  0000              add [bx+si],al
00003C7A  0000              add [bx+si],al
00003C7C  0000              add [bx+si],al
00003C7E  0000              add [bx+si],al
00003C80  0000              add [bx+si],al
00003C82  0000              add [bx+si],al
00003C84  0000              add [bx+si],al
00003C86  0000              add [bx+si],al
00003C88  0000              add [bx+si],al
00003C8A  0000              add [bx+si],al
00003C8C  0000              add [bx+si],al
00003C8E  0000              add [bx+si],al
00003C90  0000              add [bx+si],al
00003C92  0000              add [bx+si],al
00003C94  0000              add [bx+si],al
00003C96  0000              add [bx+si],al
00003C98  0000              add [bx+si],al
00003C9A  0000              add [bx+si],al
00003C9C  0000              add [bx+si],al
00003C9E  0000              add [bx+si],al
00003CA0  0000              add [bx+si],al
00003CA2  0000              add [bx+si],al
00003CA4  0000              add [bx+si],al
00003CA6  0000              add [bx+si],al
00003CA8  0000              add [bx+si],al
00003CAA  0000              add [bx+si],al
00003CAC  0000              add [bx+si],al
00003CAE  0000              add [bx+si],al
00003CB0  0000              add [bx+si],al
00003CB2  0000              add [bx+si],al
00003CB4  0000              add [bx+si],al
00003CB6  0000              add [bx+si],al
00003CB8  0000              add [bx+si],al
00003CBA  0000              add [bx+si],al
00003CBC  0000              add [bx+si],al
00003CBE  0000              add [bx+si],al
00003CC0  0000              add [bx+si],al
00003CC2  0000              add [bx+si],al
00003CC4  0000              add [bx+si],al
00003CC6  0000              add [bx+si],al
00003CC8  0000              add [bx+si],al
00003CCA  0000              add [bx+si],al
00003CCC  0000              add [bx+si],al
00003CCE  0000              add [bx+si],al
00003CD0  0000              add [bx+si],al
00003CD2  0000              add [bx+si],al
00003CD4  0000              add [bx+si],al
00003CD6  0000              add [bx+si],al
00003CD8  0000              add [bx+si],al
00003CDA  0000              add [bx+si],al
00003CDC  0000              add [bx+si],al
00003CDE  0000              add [bx+si],al
00003CE0  0000              add [bx+si],al
00003CE2  0000              add [bx+si],al
00003CE4  0000              add [bx+si],al
00003CE6  0000              add [bx+si],al
00003CE8  0000              add [bx+si],al
00003CEA  0000              add [bx+si],al
00003CEC  0000              add [bx+si],al
00003CEE  0000              add [bx+si],al
00003CF0  0000              add [bx+si],al
00003CF2  0000              add [bx+si],al
00003CF4  0000              add [bx+si],al
00003CF6  0000              add [bx+si],al
00003CF8  0000              add [bx+si],al
00003CFA  0000              add [bx+si],al
00003CFC  0000              add [bx+si],al
00003CFE  0000              add [bx+si],al
00003D00  0000              add [bx+si],al
00003D02  0000              add [bx+si],al
00003D04  0000              add [bx+si],al
00003D06  0000              add [bx+si],al
00003D08  0000              add [bx+si],al
00003D0A  0000              add [bx+si],al
00003D0C  0000              add [bx+si],al
00003D0E  0000              add [bx+si],al
00003D10  0000              add [bx+si],al
00003D12  0000              add [bx+si],al
00003D14  0000              add [bx+si],al
00003D16  0000              add [bx+si],al
00003D18  0000              add [bx+si],al
00003D1A  0000              add [bx+si],al
00003D1C  0000              add [bx+si],al
00003D1E  0000              add [bx+si],al
00003D20  0000              add [bx+si],al
00003D22  0000              add [bx+si],al
00003D24  0000              add [bx+si],al
00003D26  0000              add [bx+si],al
00003D28  0000              add [bx+si],al
00003D2A  0000              add [bx+si],al
00003D2C  0000              add [bx+si],al
00003D2E  0000              add [bx+si],al
00003D30  0000              add [bx+si],al
00003D32  0000              add [bx+si],al
00003D34  0000              add [bx+si],al
00003D36  0000              add [bx+si],al
00003D38  0000              add [bx+si],al
00003D3A  0000              add [bx+si],al
00003D3C  0000              add [bx+si],al
00003D3E  0000              add [bx+si],al
00003D40  0000              add [bx+si],al
00003D42  0000              add [bx+si],al
00003D44  0000              add [bx+si],al
00003D46  0000              add [bx+si],al
00003D48  0000              add [bx+si],al
00003D4A  0000              add [bx+si],al
00003D4C  0000              add [bx+si],al
00003D4E  0000              add [bx+si],al
00003D50  0000              add [bx+si],al
00003D52  0000              add [bx+si],al
00003D54  0000              add [bx+si],al
00003D56  0000              add [bx+si],al
00003D58  0000              add [bx+si],al
00003D5A  0000              add [bx+si],al
00003D5C  0000              add [bx+si],al
00003D5E  0000              add [bx+si],al
00003D60  0000              add [bx+si],al
00003D62  0000              add [bx+si],al
00003D64  0000              add [bx+si],al
00003D66  0000              add [bx+si],al
00003D68  0000              add [bx+si],al
00003D6A  0000              add [bx+si],al
00003D6C  0000              add [bx+si],al
00003D6E  0000              add [bx+si],al
00003D70  0000              add [bx+si],al
00003D72  0000              add [bx+si],al
00003D74  0000              add [bx+si],al
00003D76  0000              add [bx+si],al
00003D78  0000              add [bx+si],al
00003D7A  0000              add [bx+si],al
00003D7C  0000              add [bx+si],al
00003D7E  0000              add [bx+si],al
00003D80  0000              add [bx+si],al
00003D82  0000              add [bx+si],al
00003D84  0000              add [bx+si],al
00003D86  0000              add [bx+si],al
00003D88  0000              add [bx+si],al
00003D8A  0000              add [bx+si],al
00003D8C  0000              add [bx+si],al
00003D8E  0000              add [bx+si],al
00003D90  0000              add [bx+si],al
00003D92  0000              add [bx+si],al
00003D94  0000              add [bx+si],al
00003D96  0000              add [bx+si],al
00003D98  0000              add [bx+si],al
00003D9A  0000              add [bx+si],al
00003D9C  0000              add [bx+si],al
00003D9E  0000              add [bx+si],al
00003DA0  0000              add [bx+si],al
00003DA2  0000              add [bx+si],al
00003DA4  0000              add [bx+si],al
00003DA6  0000              add [bx+si],al
00003DA8  0000              add [bx+si],al
00003DAA  0000              add [bx+si],al
00003DAC  0000              add [bx+si],al
00003DAE  0000              add [bx+si],al
00003DB0  0000              add [bx+si],al
00003DB2  0000              add [bx+si],al
00003DB4  0000              add [bx+si],al
00003DB6  0000              add [bx+si],al
00003DB8  0000              add [bx+si],al
00003DBA  0000              add [bx+si],al
00003DBC  0000              add [bx+si],al
00003DBE  0000              add [bx+si],al
00003DC0  0000              add [bx+si],al
00003DC2  0000              add [bx+si],al
00003DC4  0000              add [bx+si],al
00003DC6  0000              add [bx+si],al
00003DC8  0000              add [bx+si],al
00003DCA  0000              add [bx+si],al
00003DCC  0000              add [bx+si],al
00003DCE  0000              add [bx+si],al
00003DD0  0000              add [bx+si],al
00003DD2  0000              add [bx+si],al
00003DD4  0000              add [bx+si],al
00003DD6  0000              add [bx+si],al
00003DD8  0000              add [bx+si],al
00003DDA  0000              add [bx+si],al
00003DDC  0000              add [bx+si],al
00003DDE  0000              add [bx+si],al
00003DE0  0000              add [bx+si],al
00003DE2  0000              add [bx+si],al
00003DE4  0000              add [bx+si],al
00003DE6  0000              add [bx+si],al
00003DE8  0000              add [bx+si],al
00003DEA  0000              add [bx+si],al
00003DEC  0000              add [bx+si],al
00003DEE  0000              add [bx+si],al
00003DF0  0000              add [bx+si],al
00003DF2  0000              add [bx+si],al
00003DF4  0000              add [bx+si],al
00003DF6  0000              add [bx+si],al
00003DF8  0000              add [bx+si],al
00003DFA  0000              add [bx+si],al
00003DFC  0000              add [bx+si],al
00003DFE  0000              add [bx+si],al
00003E00  0000              add [bx+si],al
00003E02  0000              add [bx+si],al
00003E04  0000              add [bx+si],al
00003E06  0000              add [bx+si],al
00003E08  0000              add [bx+si],al
00003E0A  0000              add [bx+si],al
00003E0C  0000              add [bx+si],al
00003E0E  0000              add [bx+si],al
00003E10  0000              add [bx+si],al
00003E12  0000              add [bx+si],al
00003E14  0000              add [bx+si],al
00003E16  0000              add [bx+si],al
00003E18  0000              add [bx+si],al
00003E1A  0000              add [bx+si],al
00003E1C  0000              add [bx+si],al
00003E1E  0000              add [bx+si],al
00003E20  0000              add [bx+si],al
00003E22  0000              add [bx+si],al
00003E24  0000              add [bx+si],al
00003E26  0000              add [bx+si],al
00003E28  0000              add [bx+si],al
00003E2A  0000              add [bx+si],al
00003E2C  0000              add [bx+si],al
00003E2E  0000              add [bx+si],al
00003E30  0000              add [bx+si],al
00003E32  0000              add [bx+si],al
00003E34  0000              add [bx+si],al
00003E36  0000              add [bx+si],al
00003E38  0000              add [bx+si],al
00003E3A  0000              add [bx+si],al
00003E3C  0000              add [bx+si],al
00003E3E  0000              add [bx+si],al
00003E40  0000              add [bx+si],al
00003E42  0000              add [bx+si],al
00003E44  0000              add [bx+si],al
00003E46  0000              add [bx+si],al
00003E48  0000              add [bx+si],al
00003E4A  0000              add [bx+si],al
00003E4C  0000              add [bx+si],al
00003E4E  0000              add [bx+si],al
00003E50  0000              add [bx+si],al
00003E52  0000              add [bx+si],al
00003E54  0000              add [bx+si],al
00003E56  0000              add [bx+si],al
00003E58  0000              add [bx+si],al
00003E5A  0000              add [bx+si],al
00003E5C  0000              add [bx+si],al
00003E5E  0000              add [bx+si],al
00003E60  0000              add [bx+si],al
00003E62  0000              add [bx+si],al
00003E64  0000              add [bx+si],al
00003E66  0000              add [bx+si],al
00003E68  0000              add [bx+si],al
00003E6A  0000              add [bx+si],al
00003E6C  0000              add [bx+si],al
00003E6E  0000              add [bx+si],al
00003E70  0000              add [bx+si],al
00003E72  0000              add [bx+si],al
00003E74  0000              add [bx+si],al
00003E76  0000              add [bx+si],al
00003E78  0000              add [bx+si],al
00003E7A  0000              add [bx+si],al
00003E7C  0000              add [bx+si],al
00003E7E  0000              add [bx+si],al
00003E80  0000              add [bx+si],al
00003E82  0000              add [bx+si],al
00003E84  0000              add [bx+si],al
00003E86  0000              add [bx+si],al
00003E88  0000              add [bx+si],al
00003E8A  0000              add [bx+si],al
00003E8C  0000              add [bx+si],al
00003E8E  0000              add [bx+si],al
00003E90  0000              add [bx+si],al
00003E92  0000              add [bx+si],al
00003E94  0000              add [bx+si],al
00003E96  0000              add [bx+si],al
00003E98  0000              add [bx+si],al
00003E9A  0000              add [bx+si],al
00003E9C  0000              add [bx+si],al
00003E9E  0000              add [bx+si],al
00003EA0  0000              add [bx+si],al
00003EA2  0000              add [bx+si],al
00003EA4  0000              add [bx+si],al
00003EA6  0000              add [bx+si],al
00003EA8  0000              add [bx+si],al
00003EAA  0000              add [bx+si],al
00003EAC  0000              add [bx+si],al
00003EAE  0000              add [bx+si],al
00003EB0  0000              add [bx+si],al
00003EB2  0000              add [bx+si],al
00003EB4  0000              add [bx+si],al
00003EB6  0000              add [bx+si],al
00003EB8  0000              add [bx+si],al
00003EBA  0000              add [bx+si],al
00003EBC  0000              add [bx+si],al
00003EBE  0000              add [bx+si],al
00003EC0  0000              add [bx+si],al
00003EC2  0000              add [bx+si],al
00003EC4  0000              add [bx+si],al
00003EC6  0000              add [bx+si],al
00003EC8  0000              add [bx+si],al
00003ECA  0000              add [bx+si],al
00003ECC  0000              add [bx+si],al
00003ECE  0000              add [bx+si],al
00003ED0  0000              add [bx+si],al
00003ED2  0000              add [bx+si],al
00003ED4  0000              add [bx+si],al
00003ED6  0000              add [bx+si],al
00003ED8  0000              add [bx+si],al
00003EDA  0000              add [bx+si],al
00003EDC  0000              add [bx+si],al
00003EDE  0000              add [bx+si],al
00003EE0  0000              add [bx+si],al
00003EE2  0000              add [bx+si],al
00003EE4  0000              add [bx+si],al
00003EE6  0000              add [bx+si],al
00003EE8  0000              add [bx+si],al
00003EEA  0000              add [bx+si],al
00003EEC  0000              add [bx+si],al
00003EEE  0000              add [bx+si],al
00003EF0  0000              add [bx+si],al
00003EF2  0000              add [bx+si],al
00003EF4  0000              add [bx+si],al
00003EF6  0000              add [bx+si],al
00003EF8  0000              add [bx+si],al
00003EFA  0000              add [bx+si],al
00003EFC  0000              add [bx+si],al
00003EFE  0000              add [bx+si],al
00003F00  0000              add [bx+si],al
00003F02  0000              add [bx+si],al
00003F04  0000              add [bx+si],al
00003F06  0000              add [bx+si],al
00003F08  0000              add [bx+si],al
00003F0A  0000              add [bx+si],al
00003F0C  0000              add [bx+si],al
00003F0E  0000              add [bx+si],al
00003F10  0000              add [bx+si],al
00003F12  0000              add [bx+si],al
00003F14  0000              add [bx+si],al
00003F16  0000              add [bx+si],al
00003F18  0000              add [bx+si],al
00003F1A  0000              add [bx+si],al
00003F1C  0000              add [bx+si],al
00003F1E  0000              add [bx+si],al
00003F20  0000              add [bx+si],al
00003F22  0000              add [bx+si],al
00003F24  0000              add [bx+si],al
00003F26  0000              add [bx+si],al
00003F28  0000              add [bx+si],al
00003F2A  0000              add [bx+si],al
00003F2C  0000              add [bx+si],al
00003F2E  0000              add [bx+si],al
00003F30  0000              add [bx+si],al
00003F32  0000              add [bx+si],al
00003F34  0000              add [bx+si],al
00003F36  0000              add [bx+si],al
00003F38  0000              add [bx+si],al
00003F3A  0000              add [bx+si],al
00003F3C  0000              add [bx+si],al
00003F3E  0000              add [bx+si],al
00003F40  0000              add [bx+si],al
00003F42  0000              add [bx+si],al
00003F44  0000              add [bx+si],al
00003F46  0000              add [bx+si],al
00003F48  0000              add [bx+si],al
00003F4A  0000              add [bx+si],al
00003F4C  0000              add [bx+si],al
00003F4E  0000              add [bx+si],al
00003F50  0000              add [bx+si],al
00003F52  0000              add [bx+si],al
00003F54  0000              add [bx+si],al
00003F56  0000              add [bx+si],al
00003F58  0000              add [bx+si],al
00003F5A  0000              add [bx+si],al
00003F5C  0000              add [bx+si],al
00003F5E  0000              add [bx+si],al
00003F60  0000              add [bx+si],al
00003F62  0000              add [bx+si],al
00003F64  0000              add [bx+si],al
00003F66  0000              add [bx+si],al
00003F68  0000              add [bx+si],al
00003F6A  0000              add [bx+si],al
00003F6C  0000              add [bx+si],al
00003F6E  0000              add [bx+si],al
00003F70  0000              add [bx+si],al
00003F72  0000              add [bx+si],al
00003F74  0000              add [bx+si],al
00003F76  0000              add [bx+si],al
00003F78  0000              add [bx+si],al
00003F7A  0000              add [bx+si],al
00003F7C  0000              add [bx+si],al
00003F7E  0000              add [bx+si],al
00003F80  0000              add [bx+si],al
00003F82  0000              add [bx+si],al
00003F84  0000              add [bx+si],al
00003F86  0000              add [bx+si],al
00003F88  0000              add [bx+si],al
00003F8A  0000              add [bx+si],al
00003F8C  0000              add [bx+si],al
00003F8E  0000              add [bx+si],al
00003F90  0000              add [bx+si],al
00003F92  0000              add [bx+si],al
00003F94  0000              add [bx+si],al
00003F96  0000              add [bx+si],al
00003F98  0000              add [bx+si],al
00003F9A  0000              add [bx+si],al
00003F9C  0000              add [bx+si],al
00003F9E  0000              add [bx+si],al
00003FA0  0000              add [bx+si],al
00003FA2  0000              add [bx+si],al
00003FA4  0000              add [bx+si],al
00003FA6  0000              add [bx+si],al
00003FA8  0000              add [bx+si],al
00003FAA  0000              add [bx+si],al
00003FAC  0000              add [bx+si],al
00003FAE  0000              add [bx+si],al
00003FB0  0000              add [bx+si],al
00003FB2  0000              add [bx+si],al
00003FB4  0000              add [bx+si],al
00003FB6  0000              add [bx+si],al
00003FB8  0000              add [bx+si],al
00003FBA  0000              add [bx+si],al
00003FBC  0000              add [bx+si],al
00003FBE  0000              add [bx+si],al
00003FC0  0000              add [bx+si],al
00003FC2  0000              add [bx+si],al
00003FC4  0000              add [bx+si],al
00003FC6  0000              add [bx+si],al
00003FC8  0000              add [bx+si],al
00003FCA  0000              add [bx+si],al
00003FCC  0000              add [bx+si],al
00003FCE  0000              add [bx+si],al
00003FD0  0000              add [bx+si],al
00003FD2  0000              add [bx+si],al
00003FD4  0000              add [bx+si],al
00003FD6  0000              add [bx+si],al
00003FD8  0000              add [bx+si],al
00003FDA  0000              add [bx+si],al
00003FDC  0000              add [bx+si],al
00003FDE  0000              add [bx+si],al
00003FE0  0000              add [bx+si],al
00003FE2  0000              add [bx+si],al
00003FE4  0000              add [bx+si],al
00003FE6  0000              add [bx+si],al
00003FE8  0000              add [bx+si],al
00003FEA  0000              add [bx+si],al
00003FEC  0000              add [bx+si],al
00003FEE  0000              add [bx+si],al
00003FF0  0000              add [bx+si],al
00003FF2  0000              add [bx+si],al
00003FF4  0000              add [bx+si],al
00003FF6  0000              add [bx+si],al
00003FF8  0000              add [bx+si],al
00003FFA  0000              add [bx+si],al
00003FFC  0000              add [bx+si],al
00003FFE  0000              add [bx+si],al
00004000  00800B00          add [bx+si+0xb],al
00004004  90                nop
00004005  0A10              or dl,[bx+si]
00004007  009D0A10          add [di+0x100a],bl
0000400B  00AA0A10          add [bp+si+0x100a],ch
0000400F  00B70A10          add [bx+0x100a],dh
00004013  00C4              add ah,al
00004015  0A10              or dl,[bx+si]
00004017  00D1              add cl,dl
00004019  0A10              or dl,[bx+si]
0000401B  00DE              add dh,bl
0000401D  0A10              or dl,[bx+si]
0000401F  00EB              add bl,ch
00004021  0A10              or dl,[bx+si]
00004023  00F8              add al,bh
00004025  0A10              or dl,[bx+si]
00004027  00FE              add dh,bh
00004029  0A10              or dl,[bx+si]
0000402B  000B              add [bp+di],cl
0000402D  0B10              or dx,[bx+si]
0000402F  0018              add [bx+si],bl
00004031  0B10              or dx,[bx+si]
00004033  0025              add [di],ah
00004035  0B10              or dx,[bx+si]
00004037  0032              add [bp+si],dh
00004039  0B10              or dx,[bx+si]
0000403B  003F              add [bx],bh
0000403D  0B10              or dx,[bx+si]
0000403F  00450B            add [di+0xb],al
00004042  1000              adc [bx+si],al
00004044  52                push dx
00004045  0B10              or dx,[bx+si]
00004047  005F0B            add [bx+0xb],bl
0000404A  1000              adc [bx+si],al
0000404C  6C                insb
0000404D  0B10              or dx,[bx+si]
0000404F  00790B            add [bx+di+0xb],bh
00004052  1000              adc [bx+si],al
00004054  860B              xchg [bp+di],cl
00004056  1000              adc [bx+si],al
00004058  93                xchg ax,bx
00004059  0B10              or dx,[bx+si]
0000405B  00A00B10          add [bx+si+0x100b],ah
0000405F  00AD0B10          add [di+0x100b],ch
00004063  00BA0B10          add [bp+si+0x100b],bh
00004067  00C7              add bh,al
00004069  0B10              or dx,[bx+si]
0000406B  00D4              add ah,dl
0000406D  0B10              or dx,[bx+si]
0000406F  00E1              add cl,ah
00004071  0B10              or dx,[bx+si]
00004073  00EE              add dh,ch
00004075  0B10              or dx,[bx+si]
00004077  00FB              add bl,bh
00004079  0B10              or dx,[bx+si]
0000407B  0008              add [bx+si],cl
0000407D  0C10              or al,0x10
0000407F  0015              add [di],dl
00004081  0C10              or al,0x10
00004083  0022              add [bp+si],ah
00004085  0C10              or al,0x10
00004087  0000              add [bx+si],al
00004089  0000              add [bx+si],al
0000408B  0000              add [bx+si],al
0000408D  0000              add [bx+si],al
0000408F  0000              add [bx+si],al
00004091  0000              add [bx+si],al
00004093  004743            add [bx+0x43],al
00004096  43                inc bx
00004097  3A20              cmp ah,[bx+si]
00004099  28474E            sub [bx+0x4e],al
0000409C  55                push bp
0000409D  2920              sub [bx+si],sp
0000409F  3134              xor [si],si
000040A1  2E322E3120        xor ch,[cs:0x2031]
000040A6  3230              xor dh,[bx+si]
000040A8  3234              xor dh,[si]
000040AA  3039              xor [bx+di],bh
000040AC  3130              xor [bx+si],si
000040AE  0000              add [bx+si],al
000040B0  0000              add [bx+si],al
000040B2  0000              add [bx+si],al
000040B4  0000              add [bx+si],al
000040B6  0000              add [bx+si],al
000040B8  0000              add [bx+si],al
000040BA  0000              add [bx+si],al
000040BC  0000              add [bx+si],al
000040BE  0000              add [bx+si],al
000040C0  0100              add [bx+si],ax
000040C2  0000              add [bx+si],al
000040C4  0000              add [bx+si],al
000040C6  0000              add [bx+si],al
000040C8  0000              add [bx+si],al
000040CA  0000              add [bx+si],al
000040CC  0400              add al,0x0
000040CE  F1                int1
000040CF  FF0F              dec word [bx]
000040D1  0000              add [bx+si],al
000040D3  0000              add [bx+si],al
000040D5  2010              and [bx+si],dl
000040D7  0004              add [si],al
000040D9  0000              add [bx+si],al
000040DB  0001              add [bx+di],al
000040DD  00060024          add [0x2400],al
000040E1  0000              add [bx+si],al
000040E3  0004              add [si],al
000040E5  2010              and [bx+si],dl
000040E7  0004              add [si],al
000040E9  0000              add [bx+si],al
000040EB  0001              add [bx+di],al
000040ED  00060031          add [0x3100],al
000040F1  0000              add [bx+si],al
000040F3  0000              add [bx+si],al
000040F5  0010              add [bx+si],dl
000040F7  0030              add [bx+si],dh
000040F9  0000              add [bx+si],al
000040FB  0001              add [bx+di],al
000040FD  0001              add [bx+di],al
000040FF  003F              add [bx],bh
00004101  0000              add [bx+si],al
00004103  0000              add [bx+si],al
00004105  0000              add [bx+si],al
00004107  0000              add [bx+si],al
00004109  0000              add [bx+si],al
0000410B  0004              add [si],al
0000410D  00F1              add cl,dh
0000410F  FF4C00            dec word [si+0x0]
00004112  0000              add [bx+si],al
00004114  0010              add [bx+si],dl
00004116  0000              add [bx+si],al
00004118  0000              add [bx+si],al
0000411A  0000              add [bx+si],al
0000411C  0000              add [bx+si],al
0000411E  F1                int1
0000411F  FF5E00            call far [bp+0x0]
00004122  0000              add [bx+si],al
00004124  004010            add [bx+si+0x10],al
00004127  0000              add [bx+si],al
00004129  0000              add [bx+si],al
0000412B  0000              add [bx+si],al
0000412D  000A              add [bp+si],cl
0000412F  006B00            add [bp+di+0x0],ch
00004132  0000              add [bx+si],al
00004134  0000              add [bx+si],al
00004136  0000              add [bx+si],al
00004138  0000              add [bx+si],al
0000413A  0000              add [bx+si],al
0000413C  0400              add al,0x0
0000413E  F1                int1
0000413F  FF7500            push word [di+0x0]
00004142  0000              add [bx+si],al
00004144  0000              add [bx+si],al
00004146  0000              add [bx+si],al
00004148  0000              add [bx+si],al
0000414A  0000              add [bx+si],al
0000414C  0400              add al,0x0
0000414E  F1                int1
0000414F  FF                db 0xff
00004150  7D00              jnl 0x4152
00004152  0000              add [bx+si],al
00004154  0000              add [bx+si],al
00004156  0000              add [bx+si],al
00004158  0000              add [bx+si],al
0000415A  0000              add [bx+si],al
0000415C  0400              add al,0x0
0000415E  F1                int1
0000415F  FF890000          dec word [bx+di+0x0]
00004163  0000              add [bx+si],al
00004165  0000              add [bx+si],al
00004167  0000              add [bx+si],al
00004169  0000              add [bx+si],al
0000416B  0004              add [si],al
0000416D  00F1              add cl,dh
0000416F  FF9C0000          call far [si+0x0]
00004173  00FE              add dh,bh
00004175  0410              add al,0x10
00004177  0000              add [bx+si],al
00004179  0000              add [bx+si],al
0000417B  0000              add [bx+si],al
0000417D  0001              add [bx+di],al
0000417F  00AE0000          add [bp+0x0],ch
00004183  0009              add [bx+di],cl
00004185  051000            add ax,0x10
00004188  0000              add [bx+si],al
0000418A  0000              add [bx+si],al
0000418C  0000              add [bx+si],al
0000418E  0100              add [bx+si],ax
00004190  C00000            rol byte [bx+si],byte 0x0
00004193  0000              add [bx+si],al
00004195  0000              add [bx+si],al
00004197  0000              add [bx+si],al
00004199  0000              add [bx+si],al
0000419B  0004              add [si],al
0000419D  00F1              add cl,dh
0000419F  FFD0              call ax
000041A1  0000              add [bx+si],al
000041A3  0000              add [bx+si],al
000041A5  0000              add [bx+si],al
000041A7  0000              add [bx+si],al
000041A9  0000              add [bx+si],al
000041AB  0004              add [si],al
000041AD  00F1              add cl,dh
000041AF  FFE1              jmp cx
000041B1  0000              add [bx+si],al
000041B3  0000              add [bx+si],al
000041B5  3010              xor [bx+si],dl
000041B7  0004              add [si],al
000041B9  0000              add [bx+si],al
000041BB  0001              add [bx+di],al
000041BD  0008              add [bx+si],cl
000041BF  00E8              add al,ch
000041C1  0000              add [bx+si],al
000041C3  0000              add [bx+si],al
000041C5  0000              add [bx+si],al
000041C7  0000              add [bx+si],al
000041C9  0000              add [bx+si],al
000041CB  0004              add [si],al
000041CD  00F1              add cl,dh
000041CF  FF                db 0xff
000041D0  F8                clc
000041D1  0000              add [bx+si],al
000041D3  0038              add [bx+si],bh
000041D5  50                push ax
000041D6  1000              adc [bx+si],al
000041D8  0400              add al,0x0
000041DA  0000              add [bx+si],al
000041DC  0100              add [bx+si],ax
000041DE  0A00              or al,[bx+si]
000041E0  0C01              or al,0x1
000041E2  0000              add [bx+si],al
000041E4  0000              add [bx+si],al
000041E6  0000              add [bx+si],al
000041E8  0000              add [bx+si],al
000041EA  0000              add [bx+si],al
000041EC  0400              add al,0x0
000041EE  F1                int1
000041EF  FF1C              call far [si]
000041F1  0100              add [bx+si],ax
000041F3  0000              add [bx+si],al
000041F5  0000              add [bx+si],al
000041F7  0000              add [bx+si],al
000041F9  0000              add [bx+si],al
000041FB  0004              add [si],al
000041FD  00F1              add cl,dh
000041FF  FF24              jmp [si]
00004201  0100              add [bx+si],ax
00004203  0008              add [bx+si],cl
00004205  2010              and [bx+si],dl
00004207  0004              add [si],al
00004209  0000              add [bx+si],al
0000420B  0001              add [bx+di],al
0000420D  00060035          add [0x3500],al
00004211  0100              add [bx+si],ax
00004213  004050            add [bx+si+0x50],al
00004216  1000              adc [bx+si],al
00004218  0008              add [bx+si],cl
0000421A  0000              add [bx+si],al
0000421C  0100              add [bx+si],ax
0000421E  0A00              or al,[bx+si]
00004220  3D0100            cmp ax,0x1
00004223  004058            add [bx+si+0x58],al
00004226  1000              adc [bx+si],al
00004228  06                push es
00004229  0000              add [bx+si],al
0000422B  0001              add [bx+di],al
0000422D  000A              add [bp+si],cl
0000422F  004601            add [bp+0x1],al
00004232  0000              add [bx+si],al
00004234  60                pusha
00004235  58                pop ax
00004236  1000              adc [bx+si],al
00004238  2100              and [bx+si],ax
0000423A  0000              add [bx+si],al
0000423C  0100              add [bx+si],ax
0000423E  0A00              or al,[bx+si]
00004240  52                push dx
00004241  0100              add [bx+si],ax
00004243  0000              add [bx+si],al
00004245  0000              add [bx+si],al
00004247  0000              add [bx+si],al
00004249  0000              add [bx+si],al
0000424B  0004              add [si],al
0000424D  00F1              add cl,dh
0000424F  FF6E01            jmp far [bp+0x1]
00004252  0000              add [bx+si],al
00004254  90                nop
00004255  0A10              or dl,[bx+si]
00004257  0000              add [bx+si],al
00004259  0000              add [bx+si],al
0000425B  0000              add [bx+si],al
0000425D  0001              add [bx+di],al
0000425F  007901            add [bx+di+0x1],bh
00004262  0000              add [bx+si],al
00004264  9D                popf
00004265  0A10              or dl,[bx+si]
00004267  0000              add [bx+si],al
00004269  0000              add [bx+si],al
0000426B  0000              add [bx+si],al
0000426D  0001              add [bx+di],al
0000426F  00840100          add [si+0x1],al
00004273  00AA0A10          add [bp+si+0x100a],ch
00004277  0000              add [bx+si],al
00004279  0000              add [bx+si],al
0000427B  0000              add [bx+si],al
0000427D  0001              add [bx+di],al
0000427F  008F0100          add [bx+0x1],cl
00004283  00B70A10          add [bx+0x100a],dh
00004287  0000              add [bx+si],al
00004289  0000              add [bx+si],al
0000428B  0000              add [bx+si],al
0000428D  0001              add [bx+di],al
0000428F  009A0100          add [bp+si+0x1],bl
00004293  00C4              add ah,al
00004295  0A10              or dl,[bx+si]
00004297  0000              add [bx+si],al
00004299  0000              add [bx+si],al
0000429B  0000              add [bx+si],al
0000429D  0001              add [bx+di],al
0000429F  00A50100          add [di+0x1],ah
000042A3  00D1              add cl,dl
000042A5  0A10              or dl,[bx+si]
000042A7  0000              add [bx+si],al
000042A9  0000              add [bx+si],al
000042AB  0000              add [bx+si],al
000042AD  0001              add [bx+di],al
000042AF  00B00100          add [bx+si+0x1],dh
000042B3  00DE              add dh,bl
000042B5  0A10              or dl,[bx+si]
000042B7  0000              add [bx+si],al
000042B9  0000              add [bx+si],al
000042BB  0000              add [bx+si],al
000042BD  0001              add [bx+di],al
000042BF  00BB0100          add [bp+di+0x1],bh
000042C3  00EB              add bl,ch
000042C5  0A10              or dl,[bx+si]
000042C7  0000              add [bx+si],al
000042C9  0000              add [bx+si],al
000042CB  0000              add [bx+si],al
000042CD  0001              add [bx+di],al
000042CF  00C6              add dh,al
000042D1  0100              add [bx+si],ax
000042D3  00F8              add al,bh
000042D5  0A10              or dl,[bx+si]
000042D7  0000              add [bx+si],al
000042D9  0000              add [bx+si],al
000042DB  0000              add [bx+si],al
000042DD  0001              add [bx+di],al
000042DF  00D1              add cl,dl
000042E1  0100              add [bx+si],ax
000042E3  00FE              add dh,bh
000042E5  0A10              or dl,[bx+si]
000042E7  0000              add [bx+si],al
000042E9  0000              add [bx+si],al
000042EB  0000              add [bx+si],al
000042ED  0001              add [bx+di],al
000042EF  00DC              add ah,bl
000042F1  0100              add [bx+si],ax
000042F3  000B              add [bp+di],cl
000042F5  0B10              or dx,[bx+si]
000042F7  0000              add [bx+si],al
000042F9  0000              add [bx+si],al
000042FB  0000              add [bx+si],al
000042FD  0001              add [bx+di],al
000042FF  00E8              add al,ch
00004301  0100              add [bx+si],ax
00004303  0018              add [bx+si],bl
00004305  0B10              or dx,[bx+si]
00004307  0000              add [bx+si],al
00004309  0000              add [bx+si],al
0000430B  0000              add [bx+si],al
0000430D  0001              add [bx+di],al
0000430F  00F4              add ah,dh
00004311  0100              add [bx+si],ax
00004313  0025              add [di],ah
00004315  0B10              or dx,[bx+si]
00004317  0000              add [bx+si],al
00004319  0000              add [bx+si],al
0000431B  0000              add [bx+si],al
0000431D  0001              add [bx+di],al
0000431F  0000              add [bx+si],al
00004321  0200              add al,[bx+si]
00004323  0032              add [bp+si],dh
00004325  0B10              or dx,[bx+si]
00004327  0000              add [bx+si],al
00004329  0000              add [bx+si],al
0000432B  0000              add [bx+si],al
0000432D  0001              add [bx+di],al
0000432F  000C              add [si],cl
00004331  0200              add al,[bx+si]
00004333  003F              add [bx],bh
00004335  0B10              or dx,[bx+si]
00004337  0000              add [bx+si],al
00004339  0000              add [bx+si],al
0000433B  0000              add [bx+si],al
0000433D  0001              add [bx+di],al
0000433F  0018              add [bx+si],bl
00004341  0200              add al,[bx+si]
00004343  00450B            add [di+0xb],al
00004346  1000              adc [bx+si],al
00004348  0000              add [bx+si],al
0000434A  0000              add [bx+si],al
0000434C  0000              add [bx+si],al
0000434E  0100              add [bx+si],ax
00004350  2402              and al,0x2
00004352  0000              add [bx+si],al
00004354  52                push dx
00004355  0B10              or dx,[bx+si]
00004357  0000              add [bx+si],al
00004359  0000              add [bx+si],al
0000435B  0000              add [bx+si],al
0000435D  0001              add [bx+di],al
0000435F  0030              add [bx+si],dh
00004361  0200              add al,[bx+si]
00004363  005F0B            add [bx+0xb],bl
00004366  1000              adc [bx+si],al
00004368  0000              add [bx+si],al
0000436A  0000              add [bx+si],al
0000436C  0000              add [bx+si],al
0000436E  0100              add [bx+si],ax
00004370  3C02              cmp al,0x2
00004372  0000              add [bx+si],al
00004374  6C                insb
00004375  0B10              or dx,[bx+si]
00004377  0000              add [bx+si],al
00004379  0000              add [bx+si],al
0000437B  0000              add [bx+si],al
0000437D  0001              add [bx+di],al
0000437F  004802            add [bx+si+0x2],cl
00004382  0000              add [bx+si],al
00004384  790B              jns 0x4391
00004386  1000              adc [bx+si],al
00004388  0000              add [bx+si],al
0000438A  0000              add [bx+si],al
0000438C  0000              add [bx+si],al
0000438E  0100              add [bx+si],ax
00004390  54                push sp
00004391  0200              add al,[bx+si]
00004393  00860B10          add [bp+0x100b],al
00004397  0000              add [bx+si],al
00004399  0000              add [bx+si],al
0000439B  0000              add [bx+si],al
0000439D  0001              add [bx+di],al
0000439F  006002            add [bx+si+0x2],ah
000043A2  0000              add [bx+si],al
000043A4  93                xchg ax,bx
000043A5  0B10              or dx,[bx+si]
000043A7  0000              add [bx+si],al
000043A9  0000              add [bx+si],al
000043AB  0000              add [bx+si],al
000043AD  0001              add [bx+di],al
000043AF  006C02            add [si+0x2],ch
000043B2  0000              add [bx+si],al
000043B4  A00B10            mov al,[0x100b]
000043B7  0000              add [bx+si],al
000043B9  0000              add [bx+si],al
000043BB  0000              add [bx+si],al
000043BD  0001              add [bx+di],al
000043BF  007802            add [bx+si+0x2],bh
000043C2  0000              add [bx+si],al
000043C4  AD                lodsw
000043C5  0B10              or dx,[bx+si]
000043C7  0000              add [bx+si],al
000043C9  0000              add [bx+si],al
000043CB  0000              add [bx+si],al
000043CD  0001              add [bx+di],al
000043CF  00840200          add [si+0x2],al
000043D3  00BA0B10          add [bp+si+0x100b],bh
000043D7  0000              add [bx+si],al
000043D9  0000              add [bx+si],al
000043DB  0000              add [bx+si],al
000043DD  0001              add [bx+di],al
000043DF  00900200          add [bx+si+0x2],dl
000043E3  00C7              add bh,al
000043E5  0B10              or dx,[bx+si]
000043E7  0000              add [bx+si],al
000043E9  0000              add [bx+si],al
000043EB  0000              add [bx+si],al
000043ED  0001              add [bx+di],al
000043EF  009C0200          add [si+0x2],bl
000043F3  00D4              add ah,dl
000043F5  0B10              or dx,[bx+si]
000043F7  0000              add [bx+si],al
000043F9  0000              add [bx+si],al
000043FB  0000              add [bx+si],al
000043FD  0001              add [bx+di],al
000043FF  00A80200          add [bx+si+0x2],ch
00004403  00E1              add cl,ah
00004405  0B10              or dx,[bx+si]
00004407  0000              add [bx+si],al
00004409  0000              add [bx+si],al
0000440B  0000              add [bx+si],al
0000440D  0001              add [bx+di],al
0000440F  00B40200          add [si+0x2],dh
00004413  00EE              add dh,ch
00004415  0B10              or dx,[bx+si]
00004417  0000              add [bx+si],al
00004419  0000              add [bx+si],al
0000441B  0000              add [bx+si],al
0000441D  0001              add [bx+di],al
0000441F  00C0              add al,al
00004421  0200              add al,[bx+si]
00004423  00FB              add bl,bh
00004425  0B10              or dx,[bx+si]
00004427  0000              add [bx+si],al
00004429  0000              add [bx+si],al
0000442B  0000              add [bx+si],al
0000442D  0001              add [bx+di],al
0000442F  00CC              add ah,cl
00004431  0200              add al,[bx+si]
00004433  0008              add [bx+si],cl
00004435  0C10              or al,0x10
00004437  0000              add [bx+si],al
00004439  0000              add [bx+si],al
0000443B  0000              add [bx+si],al
0000443D  0001              add [bx+di],al
0000443F  00D8              add al,bl
00004441  0200              add al,[bx+si]
00004443  0015              add [di],dl
00004445  0C10              or al,0x10
00004447  0000              add [bx+si],al
00004449  0000              add [bx+si],al
0000444B  0000              add [bx+si],al
0000444D  0001              add [bx+di],al
0000444F  00E4              add ah,ah
00004451  0200              add al,[bx+si]
00004453  0022              add [bp+si],ah
00004455  0C10              or al,0x10
00004457  0000              add [bx+si],al
00004459  0000              add [bx+si],al
0000445B  0000              add [bx+si],al
0000445D  0001              add [bx+di],al
0000445F  0029              add [bx+di],ch
00004461  0100              add [bx+si],ax
00004463  0021              add [bx+di],ah
00004465  0000              add [bx+si],al
00004467  0000              add [bx+si],al
00004469  0000              add [bx+si],al
0000446B  0000              add [bx+si],al
0000446D  00F1              add cl,dh
0000446F  FFF0              push ax
00004471  0200              add al,[bx+si]
00004473  0000              add [bx+si],al
00004475  0000              add [bx+si],al
00004477  0000              add [bx+si],al
00004479  0000              add [bx+si],al
0000447B  0004              add [si],al
0000447D  00F1              add cl,dh
0000447F  FF0B              dec word [bp+di]
00004481  0300              add ax,[bx+si]
00004483  0000              add [bx+si],al
00004485  0000              add [bx+si],al
00004487  0000              add [bx+si],al
00004489  0000              add [bx+si],al
0000448B  0004              add [si],al
0000448D  00F1              add cl,dh
0000448F  FF22              jmp [bp+si]
00004491  0300              add ax,[bx+si]
00004493  0000              add [bx+si],al
00004495  0000              add [bx+si],al
00004497  0000              add [bx+si],al
00004499  0000              add [bx+si],al
0000449B  0004              add [si],al
0000449D  00F1              add cl,dh
0000449F  FF17              call [bx]
000044A1  0300              add ax,[bx+si]
000044A3  0000              add [bx+si],al
000044A5  0000              add [bx+si],al
000044A7  0000              add [bx+si],al
000044A9  0000              add [bx+si],al
000044AB  0004              add [si],al
000044AD  00F1              add cl,dh
000044AF  FF4303            inc word [bp+di+0x3]
000044B2  0000              add [bx+si],al
000044B4  0000              add [bx+si],al
000044B6  0000              add [bx+si],al
000044B8  0000              add [bx+si],al
000044BA  0000              add [bx+si],al
000044BC  0400              add al,0x0
000044BE  F1                int1
000044BF  FF                db 0xff
000044C0  F8                clc
000044C1  0000              add [bx+si],al
000044C3  0000              add [bx+si],al
000044C5  801200            adc byte [bp+si],0x0
000044C8  0400              add al,0x0
000044CA  0000              add [bx+si],al
000044CC  0100              add [bx+si],ax
000044CE  0A00              or al,[bx+si]
000044D0  4E                dec si
000044D1  0300              add ax,[bx+si]
000044D3  0000              add [bx+si],al
000044D5  0000              add [bx+si],al
000044D7  0000              add [bx+si],al
000044D9  0000              add [bx+si],al
000044DB  0004              add [si],al
000044DD  00F1              add cl,dh
000044DF  FF6303            jmp [bp+di+0x3]
000044E2  0000              add [bx+si],al
000044E4  5C                pop sp
000044E5  1010              adc [bx+si],dl
000044E7  0000              add [bx+si],al
000044E9  0000              add [bx+si],al
000044EB  0000              add [bx+si],al
000044ED  0001              add [bx+di],al
000044EF  007003            add [bx+si+0x3],dh
000044F2  0000              add [bx+si],al
000044F4  0000              add [bx+si],al
000044F6  0000              add [bx+si],al
000044F8  0000              add [bx+si],al
000044FA  0000              add [bx+si],al
000044FC  0400              add al,0x0
000044FE  F1                int1
000044FF  FF00              inc word [bx+si]
00004501  0000              add [bx+si],al
00004503  0000              add [bx+si],al
00004505  0000              add [bx+si],al
00004507  0000              add [bx+si],al
00004509  0000              add [bx+si],al
0000450B  0004              add [si],al
0000450D  00F1              add cl,dh
0000450F  FF                db 0xff
00004510  7903              jns 0x4515
00004512  0000              add [bx+si],al
00004514  8830              mov [bx+si],dh
00004516  1000              adc [bx+si],al
00004518  0000              add [bx+si],al
0000451A  0000              add [bx+si],al
0000451C  0100              add [bx+si],ax
0000451E  0900              or [bx+si],ax
00004520  8F03              pop word [bp+di]
00004522  0000              add [bx+si],al
00004524  9A10100000        call 0x0:0x1010
00004529  0000              add [bx+si],al
0000452B  0012              add [bp+si],dl
0000452D  0203              add al,[bp+di]
0000452F  00A50300          add [di+0x3],ah
00004533  001B              add [bp+di],bl
00004535  051000            add ax,0x10
00004538  0000              add [bx+si],al
0000453A  0000              add [bx+si],al
0000453C  1000              adc [bx+si],al
0000453E  0100              add [bx+si],ax
00004540  A90300            test ax,0x3
00004543  00E6              add dh,ah
00004545  0310              add dx,[bx+si]
00004547  00FE              add dh,bh
00004549  0000              add [bx+si],al
0000454B  0012              add [bp+si],dl
0000454D  0001              add [bx+di],al
0000454F  00BC0300          add [si+0x3],bh
00004553  00B90E10          add [bx+di+0x100e],bh
00004557  006500            add [di+0x0],ah
0000455A  0000              add [bx+si],al
0000455C  1200              adc al,[bx+si]
0000455E  0100              add [bx+si],ax
00004560  D803              fadd dword [bp+di]
00004562  0000              add [bx+si],al
00004564  670D1000          or ax,0x10
00004568  8600              xchg [bx+si],al
0000456A  0000              add [bx+si],al
0000456C  1200              adc al,[bx+si]
0000456E  0100              add [bx+si],ax
00004570  E80300            call 0x4576
00004573  0015              add [di],dl
00004575  0210              add dl,[bx+si]
00004577  00DA              add dl,bl
00004579  0000              add [bx+si],al
0000457B  0012              add [bp+si],dl
0000457D  0001              add [bx+di],al
0000457F  0002              add [bp+si],al
00004581  0400              add al,0x0
00004583  005010            add [bx+si+0x10],dl
00004586  1000              adc [bx+si],al
00004588  0000              add [bx+si],al
0000458A  0000              add [bx+si],al
0000458C  1000              adc [bx+si],al
0000458E  0100              add [bx+si],ax
00004590  0A04              or al,[si]
00004592  0000              add [bx+si],al
00004594  94                xchg ax,sp
00004595  0F1000            movups xmm0,oword [bx+si]
00004598  8400              test [bx+si],al
0000459A  0000              add [bx+si],al
0000459C  1200              adc al,[bx+si]
0000459E  0100              add [bx+si],ax
000045A0  1304              adc ax,[si]
000045A2  0000              add [bx+si],al
000045A4  2205              and al,[di]
000045A6  1000              adc [bx+si],al
000045A8  7700              ja 0x45aa
000045AA  0000              add [bx+si],al
000045AC  1200              adc al,[bx+si]
000045AE  0100              add [bx+si],ax
000045B0  27                daa
000045B1  0400              add al,0x0
000045B3  0000              add [bx+si],al
000045B5  7010              jo 0x45c7
000045B7  0000              add [bx+si],al
000045B9  1000              adc [bx+si],al
000045BB  0011              add [bx+di],dl
000045BD  000A              add [bp+si],cl
000045BF  0038              add [bx+si],bh
000045C1  0400              add al,0x0
000045C3  00AE0910          add [bp+0x1009],ch
000045C7  006500            add [di+0x0],ah
000045CA  0000              add [bx+si],al
000045CC  1200              adc al,[bx+si]
000045CE  0100              add [bx+si],ax
000045D0  53                push bx
000045D1  0400              add al,0x0
000045D3  006610            add [bp+0x10],ah
000045D6  1000              adc [bx+si],al
000045D8  3000              xor [bx+si],al
000045DA  0000              add [bx+si],al
000045DC  1200              adc al,[bx+si]
000045DE  0100              add [bx+si],ax
000045E0  5F                pop di
000045E1  0400              add al,0x0
000045E3  007007            add [bx+si+0x7],dh
000045E6  1000              adc [bx+si],al
000045E8  3800              cmp [bx+si],al
000045EA  0000              add [bx+si],al
000045EC  1200              adc al,[bx+si]
000045EE  0100              add [bx+si],ax
000045F0  CA0400            retf 0x4
000045F3  0000              add [bx+si],al
000045F5  50                push ax
000045F6  1000              adc [bx+si],al
000045F8  2800              sub [bx+si],al
000045FA  0000              add [bx+si],al
000045FC  1100              adc [bx+si],ax
000045FE  0A00              or al,[bx+si]
00004600  7B04              jpo 0x4606
00004602  0000              add [bx+si],al
00004604  B710              mov bh,0x10
00004606  1000              adc [bx+si],al
00004608  0000              add [bx+si],al
0000460A  0000              add [bx+si],al
0000460C  1202              adc al,[bp+si]
0000460E  050091            add ax,0x9100
00004611  0400              add al,0x0
00004613  008C0810          add [si+0x1008],cl
00004617  007000            add [bx+si+0x0],dh
0000461A  0000              add [bx+si],al
0000461C  1200              adc al,[bx+si]
0000461E  0100              add [bx+si],ax
00004620  A804              test al,0x4
00004622  0000              add [bx+si],al
00004624  FD                std
00004625  06                push es
00004626  1000              adc [bx+si],al
00004628  3800              cmp [bx+si],al
0000462A  0000              add [bx+si],al
0000462C  1200              adc al,[bx+si]
0000462E  0100              add [bx+si],ax
00004630  C3                ret
00004631  0400              add al,0x0
00004633  00EF              add bh,ch
00004635  0210              add dl,[bx+si]
00004637  008E0000          add [bp+0x0],cl
0000463B  0012              add [bp+si],dl
0000463D  0001              add [bx+di],al
0000463F  00CE              add dh,cl
00004641  0400              add al,0x0
00004643  0018              add [bx+si],bl
00004645  1010              adc [bx+si],dl
00004647  0035              add [di],dh
00004649  0000              add [bx+si],al
0000464B  0012              add [bp+si],dl
0000464D  0001              add [bx+di],al
0000464F  00D6              add dh,dl
00004651  0400              add al,0x0
00004653  0030              add [bx+si],dh
00004655  0C10              or al,0x10
00004657  0000              add [bx+si],al
00004659  0000              add [bx+si],al
0000465B  0010              add [bx+si],dl
0000465D  0001              add [bx+di],al
0000465F  00E3              add bl,ah
00004661  0400              add al,0x0
00004663  0013              add [bp+di],dl
00004665  0A10              or dl,[bx+si]
00004667  007400            add [si+0x0],dh
0000466A  0000              add [bx+si],al
0000466C  1200              adc al,[bx+si]
0000466E  0100              add [bx+si],ax
00004670  EC                in al,dx
00004671  0400              add al,0x0
00004673  009E1010          add [bp+0x1010],bl
00004677  0019              add [bx+di],bl
00004679  0000              add [bx+si],al
0000467B  0022              add [bp+si],ah
0000467D  0004              add [si],al
0000467F  00FF              add bh,bh
00004681  0400              add al,0x0
00004683  00A80710          add [bx+si+0x1007],ch
00004687  003B              add [bp+di],bh
00004689  0000              add [bx+si],al
0000468B  0012              add [bp+si],dl
0000468D  0001              add [bx+di],al
0000468F  0022              add [bp+si],ah
00004691  050000            add ax,0x0
00004694  FC                cld
00004695  0810              or [bx+si],dl
00004697  004F00            add [bx+0x0],cl
0000469A  0000              add [bx+si],al
0000469C  1200              adc al,[bx+si]
0000469E  0100              add [bx+si],ax
000046A0  3905              cmp [di],ax
000046A2  0000              add [bx+si],al
000046A4  6B0910            imul cx,[bx+di],byte +0x10
000046A7  004300            add [bp+di+0x0],al
000046AA  0000              add [bx+si],al
000046AC  1200              adc al,[bx+si]
000046AE  0100              add [bx+si],ax
000046B0  51                push cx
000046B1  050000            add ax,0x0
000046B4  57                push di
000046B5  0F1000            movups xmm0,oword [bx+si]
000046B8  3D0000            cmp ax,0x0
000046BB  0012              add [bp+si],dl
000046BD  0001              add [bx+di],al
000046BF  006A05            add [bp+si+0x5],ch
000046C2  0000              add [bx+si],al
000046C4  200D              and [di],cl
000046C6  1000              adc [bx+si],al
000046C8  0000              add [bx+si],al
000046CA  0000              add [bx+si],al
000046CC  1000              adc [bx+si],al
000046CE  0100              add [bx+si],ax
000046D0  7C05              jl 0x46d7
000046D2  0000              add [bx+si],al
000046D4  280D              sub [di],cl
000046D6  1000              adc [bx+si],al
000046D8  3F                aas
000046D9  0000              add [bx+si],al
000046DB  0012              add [bp+si],dl
000046DD  0001              add [bx+di],al
000046DF  00960500          add [bp+0x5],dl
000046E3  0000              add [bx+si],al
000046E5  801000            adc byte [bx+si],0x0
000046E8  0000              add [bx+si],al
000046EA  0200              add al,[bx+si]
000046EC  1100              adc [bx+si],ax
000046EE  0A00              or al,[bx+si]
000046F0  A10500            mov ax,[0x5]
000046F3  0000              add [bx+si],al
000046F5  60                pusha
000046F6  1000              adc [bx+si],al
000046F8  0010              add [bx+si],dl
000046FA  0000              add [bx+si],al
000046FC  1100              adc [bx+si],ax
000046FE  0A00              or al,[bx+si]
00004700  B705              mov bh,0x5
00004702  0000              add [bx+si],al
00004704  9E                sahf
00004705  1010              adc [bx+si],dl
00004707  0019              add [bx+di],bl
00004709  0000              add [bx+si],al
0000470B  0022              add [bp+si],ah
0000470D  0004              add [si],al
0000470F  00CA              add dl,cl
00004711  050000            add ax,0x0
00004714  250E10            and ax,0x100e
00004717  00940000          add [si+0x0],dl
0000471B  0012              add [bp+si],dl
0000471D  0001              add [bx+di],al
0000471F  00DD              add ch,bl
00004721  050000            add ax,0x0
00004724  ED                in ax,dx
00004725  0D1000            or ax,0x10
00004728  3800              cmp [bx+si],al
0000472A  0000              add [bx+si],al
0000472C  1200              adc al,[bx+si]
0000472E  0100              add [bx+si],ax
00004730  F2050000          repne add ax,0x0
00004734  96                xchg ax,si
00004735  1010              adc [bx+si],dl
00004737  0000              add [bx+si],al
00004739  0000              add [bx+si],al
0000473B  0012              add [bp+si],dl
0000473D  0202              add al,[bp+si]
0000473F  0008              add [bx+si],cl
00004741  06                push es
00004742  0000              add [bx+si],al
00004744  1005              adc [di],al
00004746  1000              adc [bx+si],al
00004748  0000              add [bx+si],al
0000474A  0000              add [bx+si],al
0000474C  1000              adc [bx+si],al
0000474E  0100              add [bx+si],ax
00004750  0D0600            or ax,0x6
00004753  004B09            add [bp+di+0x9],cl
00004756  1000              adc [bx+si],al
00004758  2000              and [bx+si],al
0000475A  0000              add [bx+si],al
0000475C  1200              adc al,[bx+si]
0000475E  0100              add [bx+si],ax
00004760  20060000          and [0x0],al
00004764  1E                push ds
00004765  0F1000            movups xmm0,oword [bx+si]
00004768  3900              cmp [bx+si],ax
0000476A  0000              add [bx+si],al
0000476C  1200              adc al,[bx+si]
0000476E  0100              add [bx+si],ax
00004770  350600            xor ax,0x6
00004773  0028              add [bx+si],ch
00004775  50                push ax
00004776  1000              adc [bx+si],al
00004778  06                push es
00004779  0000              add [bx+si],al
0000477B  0011              add [bx+di],dl
0000477D  000A              add [bp+si],cl
0000477F  003D              add [di],bh
00004781  06                push es
00004782  0000              add [bx+si],al
00004784  F00410            lock add al,0x10
00004787  0000              add [bx+si],al
00004789  0000              add [bx+si],al
0000478B  0010              add [bx+si],dl
0000478D  0001              add [bx+di],al
0000478F  004A06            add [bp+si+0x6],cl
00004792  0000              add [bx+si],al
00004794  99                cwd
00004795  051000            add ax,0x10
00004798  60                pusha
00004799  0000              add [bx+si],al
0000479B  0012              add [bp+si],dl
0000479D  0001              add [bx+di],al
0000479F  006006            add [bx+si+0x6],ah
000047A2  0000              add [bx+si],al
000047A4  350810            xor ax,0x1008
000047A7  005700            add [bx+0x0],dl
000047AA  0000              add [bx+si],al
000047AC  1200              adc al,[bx+si]
000047AE  0100              add [bx+si],ax
000047B0  7806              js 0x47b8
000047B2  0000              add [bx+si],al
000047B4  3000              xor [bx+si],al
000047B6  1000              adc [bx+si],al
000047B8  0000              add [bx+si],al
000047BA  0000              add [bx+si],al
000047BC  1000              adc [bx+si],al
000047BE  0100              add [bx+si],ax
000047C0  7F06              jg 0x47c8
000047C2  0000              add [bx+si],al
000047C4  7E03              jng 0x47c9
000047C6  1000              adc [bx+si],al
000047C8  680000            push word 0x0
000047CB  0012              add [bp+si],dl
000047CD  0001              add [bx+di],al
000047CF  00A30600          add [bp+di+0x6],ah
000047D3  007E03            add [bp+0x3],bh
000047D6  1000              adc [bx+si],al
000047D8  680000            push word 0x0
000047DB  0012              add [bp+si],dl
000047DD  0001              add [bx+di],al
000047DF  00C7              add bh,al
000047E1  06                push es
000047E2  0000              add [bx+si],al
000047E4  350710            xor ax,0x1007
000047E7  003B              add [bp+di],bh
000047E9  0000              add [bx+si],al
000047EB  0012              add [bp+si],dl
000047ED  0001              add [bx+di],al
000047EF  00E9              add cl,ch
000047F1  06                push es
000047F2  0000              add [bx+si],al
000047F4  0430              add al,0x30
000047F6  1000              adc [bx+si],al
000047F8  0000              add [bx+si],al
000047FA  0000              add [bx+si],al
000047FC  1000              adc [bx+si],al
000047FE  0800              or [bx+si],al
00004800  F8                clc
00004801  06                push es
00004802  0000              add [bx+si],al
00004804  F9                stc
00004805  051000            add ax,0x10
00004808  8F00              pop word [bx+si]
0000480A  0000              add [bx+si],al
0000480C  1200              adc al,[bx+si]
0000480E  0100              add [bx+si],ax
00004810  0907              or [bx],ax
00004812  0000              add [bx+si],al
00004814  3450              xor al,0x50
00004816  1000              adc [bx+si],al
00004818  0400              add al,0x0
0000481A  0000              add [bx+si],al
0000481C  1100              adc [bx+si],ax
0000481E  0A00              or al,[bx+si]
00004820  17                pop ss
00004821  07                pop es
00004822  0000              add [bx+si],al
00004824  5A                pop dx
00004825  0010              add [bx+si],dl
00004827  00BB0100          add [bp+di+0x1],bh
0000482B  0012              add [bp+si],dl
0000482D  0001              add [bx+di],al
0000482F  001D              add [di],bl
00004831  07                pop es
00004832  0000              add [bx+si],al
00004834  E307              jcxz 0x483d
00004836  1000              adc [bx+si],al
00004838  52                push dx
00004839  0000              add [bx+si],al
0000483B  0012              add [bp+si],dl
0000483D  0001              add [bx+di],al
0000483F  0032              add [bp+si],dh
00004841  07                pop es
00004842  0000              add [bx+si],al
00004844  3C0C              cmp al,0xc
00004846  1000              adc [bx+si],al
00004848  DA00              fiadd dword [bx+si]
0000484A  0000              add [bx+si],al
0000484C  1200              adc al,[bx+si]
0000484E  0100              add [bx+si],ax
00004850  45                inc bp
00004851  07                pop es
00004852  0000              add [bx+si],al
00004854  88061000          mov [0x10],al
00004858  7500              jnz 0x485a
0000485A  0000              add [bx+si],al
0000485C  1200              adc al,[bx+si]
0000485E  0100              add [bx+si],ax
00004860  6607              o32 pop es
00004862  0000              add [bx+si],al
00004864  305010            xor [bx+si+0x10],dl
00004867  0004              add [si],al
00004869  0000              add [bx+si],al
0000486B  0011              add [bx+di],dl
0000486D  000A              add [bp+si],cl
0000486F  0000              add [bx+si],al
00004871  6D                insw
00004872  756C              jnz 0x48e0
00004874  7469              jz 0x48df
00004876  626F6F            bound bp,[bx+0x6f]
00004879  742E              jz 0x48a9
0000487B  637070            arpl [bx+si+0x70],si
0000487E  005F5A            add [bx+0x5a],bl
00004881  4C                dec sp
00004882  3135              xor [di],si
00004884  4D                dec bp
00004885  55                push bp
00004886  4C                dec sp
00004887  54                push sp
00004888  49                dec cx
00004889  42                inc dx
0000488A  4F                dec di
0000488B  4F                dec di
0000488C  54                push sp
0000488D  5F                pop di
0000488E  46                inc si
0000488F  4C                dec sp
00004890  41                inc cx
00004891  47                inc di
00004892  53                push bx
00004893  005F5A            add [bx+0x5a],bl
00004896  4C                dec sp
00004897  384348            cmp [bp+di+0x48],al
0000489A  45                inc bp
0000489B  43                inc bx
0000489C  4B                dec bx
0000489D  53                push bx
0000489E  55                push bp
0000489F  4D                dec bp
000048A0  005F5A            add [bx+0x5a],bl
000048A3  4C                dec sp
000048A4  396D62            cmp [di+0x62],bp
000048A7  5F                pop di
000048A8  686561            push word 0x6165
000048AB  64657200          gs jc 0x48af
000048AF  7372              jnc 0x4923
000048B1  632F              arpl [bx],bp
000048B3  6C                insb
000048B4  6F                outsw
000048B5  61                popa
000048B6  6465722E          gs jc 0x48e8
000048BA  7300              jnc 0x48bc
000048BC  4B                dec bx
000048BD  45                inc bp
000048BE  52                push dx
000048BF  4E                dec si
000048C0  45                inc bp
000048C1  4C                dec sp
000048C2  5F                pop di
000048C3  53                push bx
000048C4  54                push sp
000048C5  41                inc cx
000048C6  43                inc bx
000048C7  4B                dec bx
000048C8  5F                pop di
000048C9  53                push bx
000048CA  49                dec cx
000048CB  5A                pop dx
000048CC  45                inc bp
000048CD  006B65            add [bp+di+0x65],ch
000048D0  726E              jc 0x4940
000048D2  656C              gs insb
000048D4  5F                pop di
000048D5  7374              jnc 0x494b
000048D7  61                popa
000048D8  636B00            arpl [bp+di+0x0],bp
000048DB  6B6D6169          imul bp,[di+0x61],byte +0x69
000048DF  6E                outsb
000048E0  2E637070          arpl [cs:bx+si+0x70],si
000048E4  006764            add [bx+0x64],ah
000048E7  742E              jz 0x4917
000048E9  637070            arpl [bx+si+0x70],si
000048EC  007072            add [bx+si+0x72],dh
000048EF  6F                outsw
000048F0  636573            arpl [di+0x73],sp
000048F3  732E              jnc 0x4923
000048F5  637070            arpl [bx+si+0x70],si
000048F8  007372            add [bp+di+0x72],dh
000048FB  632F              arpl [bx],bp
000048FD  63616C            arpl [bx+di+0x6c],sp
00004900  6C                insb
00004901  5F                pop di
00004902  7072              jo 0x4976
00004904  6F                outsw
00004905  636573            arpl [di+0x73],sp
00004908  732E              jnc 0x4938
0000490A  7300              jnc 0x490c
0000490C  63616C            arpl [bx+di+0x6c],sp
0000490F  6C                insb
00004910  5F                pop di
00004911  7072              jo 0x4985
00004913  6F                outsw
00004914  636573            arpl [di+0x73],sp
00004917  732E              jnc 0x4947
00004919  6C                insb
0000491A  6F                outsw
0000491B  6F                outsw
0000491C  7000              jo 0x491e
0000491E  63616C            arpl [bx+di+0x6c],sp
00004921  6C                insb
00004922  5F                pop di
00004923  7072              jo 0x4997
00004925  6F                outsw
00004926  636573            arpl [di+0x73],sp
00004929  732E              jnc 0x4959
0000492B  63616C            arpl [bx+di+0x6c],sp
0000492E  6C                insb
0000492F  007372            add [bp+di+0x72],dh
00004932  632F              arpl [bx],bp
00004934  6F                outsw
00004935  7574              jnz 0x49ab
00004937  7075              jo 0x49ae
00004939  742F              jz 0x496a
0000493B  696F2E7300        imul bp,[bx+0x2e],word 0x73
00004940  667261            o32 jc 0x49a4
00004943  6D                insw
00004944  655F              gs pop di
00004946  627566            bound si,[di+0x66]
00004949  6665722E          gs o32 jc 0x497b
0000494D  637070            arpl [bx+si+0x70],si
00004950  005F5A            add [bx+0x5a],bl
00004953  4C                dec sp
00004954  326662            xor ah,[bp+0x62]
00004957  007365            add [bp+di+0x65],dh
0000495A  7269              jc 0x49c5
0000495C  61                popa
0000495D  6C                insb
0000495E  5F                pop di
0000495F  706F              jo 0x49d0
00004961  7274              jc 0x49d7
00004963  2E637070          arpl [cs:bx+si+0x70],si
00004967  005F5A            add [bx+0x5a],bl
0000496A  4C                dec sp
0000496B  3134              xor [si],si
0000496D  636F6E            arpl [bx+0x6e],bp
00004970  666967757265645F  imul esp,[bx+0x75],dword 0x5f646572
00004978  636F6D            arpl [bx+0x6d],bp
0000497B  006578            add [di+0x78],ah
0000497E  5F                pop di
0000497F  68616E            push word 0x6e61
00004982  646C              fs insb
00004984  657273            gs jc 0x49fa
00004987  2E637070          arpl [cs:bx+si+0x70],si
0000498B  006964            add [bx+di+0x64],ch
0000498E  742E              jz 0x49be
00004990  637070            arpl [bx+si+0x70],si
00004993  005F5A            add [bx+0x5a],bl
00004996  4C                dec sp
00004997  3131              xor [bx+di],si
00004999  49                dec cx
0000499A  44                inc sp
0000499B  54                push sp
0000499C  5F                pop di
0000499D  45                inc bp
0000499E  4E                dec si
0000499F  54                push sp
000049A0  52                push dx
000049A1  49                dec cx
000049A2  45                inc bp
000049A3  53                push bx
000049A4  005F5A            add [bx+0x5a],bl
000049A7  4C                dec sp
000049A8  336964            xor bp,[bx+di+0x64]
000049AB  7400              jz 0x49ad
000049AD  5F                pop di
000049AE  5A                pop dx
000049AF  4C                dec sp
000049B0  3469              xor al,0x69
000049B2  647472            fs jz 0x4a27
000049B5  005F5A            add [bx+0x5a],bl
000049B8  4C                dec sp
000049B9  37                aaa
000049BA  7665              jna 0x4a21
000049BC  63746F            arpl [si+0x6f],si
000049BF  7273              jc 0x4a34
000049C1  007372            add [bp+di+0x72],dh
000049C4  632F              arpl [bx],bp
000049C6  696E746572        imul bp,[bp+0x74],word 0x7265
000049CB  7275              jc 0x4a42
000049CD  7074              jo 0x4a43
000049CF  732F              jnc 0x4a00
000049D1  696E746572        imul bp,[bp+0x74],word 0x7265
000049D6  7275              jc 0x4a4d
000049D8  7074              jo 0x4a4e
000049DA  732E              jnc 0x4a0a
000049DC  7300              jnc 0x49de
000049DE  6973725F73        imul si,[bp+di+0x72],word 0x735f
000049E3  7475              jz 0x4a5a
000049E5  625F30            bound bx,[bx+0x30]
000049E8  006973            add [bx+di+0x73],ch
000049EB  725F              jc 0x4a4c
000049ED  7374              jnc 0x4a63
000049EF  7562              jnz 0x4a53
000049F1  5F                pop di
000049F2  3100              xor [bx+si],ax
000049F4  6973725F73        imul si,[bp+di+0x72],word 0x735f
000049F9  7475              jz 0x4a70
000049FB  625F32            bound bx,[bx+0x32]
000049FE  006973            add [bx+di+0x73],ch
00004A01  725F              jc 0x4a62
00004A03  7374              jnc 0x4a79
00004A05  7562              jnz 0x4a69
00004A07  5F                pop di
00004A08  3300              xor ax,[bx+si]
00004A0A  6973725F73        imul si,[bp+di+0x72],word 0x735f
00004A0F  7475              jz 0x4a86
00004A11  625F34            bound bx,[bx+0x34]
00004A14  006973            add [bx+di+0x73],ch
00004A17  725F              jc 0x4a78
00004A19  7374              jnc 0x4a8f
00004A1B  7562              jnz 0x4a7f
00004A1D  5F                pop di
00004A1E  350069            xor ax,0x6900
00004A21  7372              jnc 0x4a95
00004A23  5F                pop di
00004A24  7374              jnc 0x4a9a
00004A26  7562              jnz 0x4a8a
00004A28  5F                pop di
00004A29  36006973          add [ss:bx+di+0x73],ch
00004A2D  725F              jc 0x4a8e
00004A2F  7374              jnc 0x4aa5
00004A31  7562              jnz 0x4a95
00004A33  5F                pop di
00004A34  37                aaa
00004A35  006973            add [bx+di+0x73],ch
00004A38  725F              jc 0x4a99
00004A3A  7374              jnc 0x4ab0
00004A3C  7562              jnz 0x4aa0
00004A3E  5F                pop di
00004A3F  3800              cmp [bx+si],al
00004A41  6973725F73        imul si,[bp+di+0x72],word 0x735f
00004A46  7475              jz 0x4abd
00004A48  625F39            bound bx,[bx+0x39]
00004A4B  006973            add [bx+di+0x73],ch
00004A4E  725F              jc 0x4aaf
00004A50  7374              jnc 0x4ac6
00004A52  7562              jnz 0x4ab6
00004A54  5F                pop di
00004A55  3130              xor [bx+si],si
00004A57  006973            add [bx+di+0x73],ch
00004A5A  725F              jc 0x4abb
00004A5C  7374              jnc 0x4ad2
00004A5E  7562              jnz 0x4ac2
00004A60  5F                pop di
00004A61  3131              xor [bx+di],si
00004A63  006973            add [bx+di+0x73],ch
00004A66  725F              jc 0x4ac7
00004A68  7374              jnc 0x4ade
00004A6A  7562              jnz 0x4ace
00004A6C  5F                pop di
00004A6D  3132              xor [bp+si],si
00004A6F  006973            add [bx+di+0x73],ch
00004A72  725F              jc 0x4ad3
00004A74  7374              jnc 0x4aea
00004A76  7562              jnz 0x4ada
00004A78  5F                pop di
00004A79  3133              xor [bp+di],si
00004A7B  006973            add [bx+di+0x73],ch
00004A7E  725F              jc 0x4adf
00004A80  7374              jnc 0x4af6
00004A82  7562              jnz 0x4ae6
00004A84  5F                pop di
00004A85  3134              xor [si],si
00004A87  006973            add [bx+di+0x73],ch
00004A8A  725F              jc 0x4aeb
00004A8C  7374              jnc 0x4b02
00004A8E  7562              jnz 0x4af2
00004A90  5F                pop di
00004A91  3135              xor [di],si
00004A93  006973            add [bx+di+0x73],ch
00004A96  725F              jc 0x4af7
00004A98  7374              jnc 0x4b0e
00004A9A  7562              jnz 0x4afe
00004A9C  5F                pop di
00004A9D  31360069          xor [0x6900],si
00004AA1  7372              jnc 0x4b15
00004AA3  5F                pop di
00004AA4  7374              jnc 0x4b1a
00004AA6  7562              jnz 0x4b0a
00004AA8  5F                pop di
00004AA9  3137              xor [bx],si
00004AAB  006973            add [bx+di+0x73],ch
00004AAE  725F              jc 0x4b0f
00004AB0  7374              jnc 0x4b26
00004AB2  7562              jnz 0x4b16
00004AB4  5F                pop di
00004AB5  3138              xor [bx+si],di
00004AB7  006973            add [bx+di+0x73],ch
00004ABA  725F              jc 0x4b1b
00004ABC  7374              jnc 0x4b32
00004ABE  7562              jnz 0x4b22
00004AC0  5F                pop di
00004AC1  3139              xor [bx+di],di
00004AC3  006973            add [bx+di+0x73],ch
00004AC6  725F              jc 0x4b27
00004AC8  7374              jnc 0x4b3e
00004ACA  7562              jnz 0x4b2e
00004ACC  5F                pop di
00004ACD  3230              xor dh,[bx+si]
00004ACF  006973            add [bx+di+0x73],ch
00004AD2  725F              jc 0x4b33
00004AD4  7374              jnc 0x4b4a
00004AD6  7562              jnz 0x4b3a
00004AD8  5F                pop di
00004AD9  3231              xor dh,[bx+di]
00004ADB  006973            add [bx+di+0x73],ch
00004ADE  725F              jc 0x4b3f
00004AE0  7374              jnc 0x4b56
00004AE2  7562              jnz 0x4b46
00004AE4  5F                pop di
00004AE5  3232              xor dh,[bp+si]
00004AE7  006973            add [bx+di+0x73],ch
00004AEA  725F              jc 0x4b4b
00004AEC  7374              jnc 0x4b62
00004AEE  7562              jnz 0x4b52
00004AF0  5F                pop di
00004AF1  3233              xor dh,[bp+di]
00004AF3  006973            add [bx+di+0x73],ch
00004AF6  725F              jc 0x4b57
00004AF8  7374              jnc 0x4b6e
00004AFA  7562              jnz 0x4b5e
00004AFC  5F                pop di
00004AFD  3234              xor dh,[si]
00004AFF  006973            add [bx+di+0x73],ch
00004B02  725F              jc 0x4b63
00004B04  7374              jnc 0x4b7a
00004B06  7562              jnz 0x4b6a
00004B08  5F                pop di
00004B09  3235              xor dh,[di]
00004B0B  006973            add [bx+di+0x73],ch
00004B0E  725F              jc 0x4b6f
00004B10  7374              jnc 0x4b86
00004B12  7562              jnz 0x4b76
00004B14  5F                pop di
00004B15  32360069          xor dh,[0x6900]
00004B19  7372              jnc 0x4b8d
00004B1B  5F                pop di
00004B1C  7374              jnc 0x4b92
00004B1E  7562              jnz 0x4b82
00004B20  5F                pop di
00004B21  3237              xor dh,[bx]
00004B23  006973            add [bx+di+0x73],ch
00004B26  725F              jc 0x4b87
00004B28  7374              jnc 0x4b9e
00004B2A  7562              jnz 0x4b8e
00004B2C  5F                pop di
00004B2D  3238              xor bh,[bx+si]
00004B2F  006973            add [bx+di+0x73],ch
00004B32  725F              jc 0x4b93
00004B34  7374              jnc 0x4baa
00004B36  7562              jnz 0x4b9a
00004B38  5F                pop di
00004B39  3239              xor bh,[bx+di]
00004B3B  006973            add [bx+di+0x73],ch
00004B3E  725F              jc 0x4b9f
00004B40  7374              jnc 0x4bb6
00004B42  7562              jnz 0x4ba6
00004B44  5F                pop di
00004B45  3330              xor si,[bx+si]
00004B47  006973            add [bx+di+0x73],ch
00004B4A  725F              jc 0x4bab
00004B4C  7374              jnc 0x4bc2
00004B4E  7562              jnz 0x4bb2
00004B50  5F                pop di
00004B51  3331              xor si,[bx+di]
00004B53  006973            add [bx+di+0x73],ch
00004B56  725F              jc 0x4bb7
00004B58  7374              jnc 0x4bce
00004B5A  7562              jnz 0x4bbe
00004B5C  5F                pop di
00004B5D  3332              xor si,[bp+si]
00004B5F  007372            add [bp+di+0x72],dh
00004B62  632F              arpl [bx],bp
00004B64  7061              jo 0x4bc7
00004B66  67696E672F65      imul bp,[esi+0x67],word 0x652f
00004B6C  6E                outsb
00004B6D  61                popa
00004B6E  626C65            bound bp,[si+0x65]
00004B71  5F                pop di
00004B72  7061              jo 0x4bd5
00004B74  67696E672E73      imul bp,[esi+0x67],word 0x732e
00004B7A  00696E            add [bx+di+0x6e],ch
00004B7D  69745F6B65        imul si,[si+0x5f],word 0x656b
00004B82  726E              jc 0x4bf2
00004B84  656C              gs insb
00004B86  5F                pop di
00004B87  7061              jo 0x4bea
00004B89  67696E672E63      imul bp,[esi+0x67],word 0x632e
00004B8F  7070              jo 0x4c01
00004B91  007372            add [bp+di+0x72],dh
00004B94  632F              arpl [bx],bp
00004B96  7061              jo 0x4bf9
00004B98  67696E672F6C      imul bp,[esi+0x67],word 0x6c2f
00004B9E  6F                outsw
00004B9F  61                popa
00004BA0  645F              fs pop di
00004BA2  7061              jo 0x4c05
00004BA4  67655F            gs a32 pop di
00004BA7  646972656374      imul si,[fs:bp+si+0x65],word 0x7463
00004BAD  6F                outsw
00004BAE  7279              jc 0x4c29
00004BB0  2E7300            cs jnc 0x4bb3
00004BB3  7374              jnc 0x4c29
00004BB5  7269              jc 0x4c20
00004BB7  6E                outsb
00004BB8  672E637070        arpl [cs:eax+0x70],si
00004BBD  007372            add [bp+di+0x72],dh
00004BC0  632F              arpl [bx],bp
00004BC2  7374              jnc 0x4c38
00004BC4  646C              fs insb
00004BC6  69622F6D65        imul sp,[bp+si+0x2f],word 0x656d
00004BCB  6D                insw
00004BCC  636F70            arpl [bx+0x70],bp
00004BCF  792E              jns 0x4bff
00004BD1  7300              jnc 0x4bd3
00004BD3  6D                insw
00004BD4  656D              gs insw
00004BD6  636F70            arpl [bx+0x70],bp
00004BD9  792E              jns 0x4c09
00004BDB  6C                insb
00004BDC  6F                outsw
00004BDD  6F                outsw
00004BDE  7000              jo 0x4be0
00004BE0  6D                insw
00004BE1  61                popa
00004BE2  7468              jz 0x4c4c
00004BE4  2E637070          arpl [cs:bx+si+0x70],si
00004BE8  005F47            add [bx+0x47],bl
00004BEB  4C                dec sp
00004BEC  4F                dec di
00004BED  42                inc dx
00004BEE  41                inc cx
00004BEF  4C                dec sp
00004BF0  5F                pop di
00004BF1  4F                dec di
00004BF2  46                inc si
00004BF3  46                inc si
00004BF4  53                push bx
00004BF5  45                inc bp
00004BF6  54                push sp
00004BF7  5F                pop di
00004BF8  54                push sp
00004BF9  41                inc cx
00004BFA  42                inc dx
00004BFB  4C                dec sp
00004BFC  45                inc bp
00004BFD  5F                pop di
00004BFE  005F5F            add [bx+0x5f],bl
00004C01  7838              js 0x4c3b
00004C03  362E6765745F      gs jz 0x4c68
00004C09  7063              jo 0x4c6e
00004C0B  5F                pop di
00004C0C  7468              jz 0x4c76
00004C0E  756E              jnz 0x4c7e
00004C10  6B2E637800        imul bp,[0x7863],byte +0x0
00004C15  696E62005F        imul bp,[bp+0x62],word 0x5f00
00004C1A  5A                pop dx
00004C1B  4E                dec si
00004C1C  37                aaa
00004C1D  7072              jo 0x4c91
00004C1F  6F                outsw
00004C20  636573            arpl [di+0x73],sp
00004C23  7334              jnc 0x4c59
00004C25  63616C            arpl [bx+di+0x6c],sp
00004C28  6C                insb
00004C29  45                inc bp
00004C2A  7600              jna 0x4c2c
00004C2C  5F                pop di
00004C2D  5A                pop dx
00004C2E  3230              xor dh,[bx+si]
00004C30  686578            push word 0x7865
00004C33  5F                pop di
00004C34  746F              jz 0x4ca5
00004C36  5F                pop di
00004C37  636861            arpl [bx+si+0x61],bp
00004C3A  725F              jc 0x4c9b
00004C3C  61                popa
00004C3D  7272              jc 0x4cb1
00004C3F  61                popa
00004C40  795F              jns 0x4ca1
00004C42  3332              xor si,[bp+si]
00004C44  6D                insw
00004C45  50                push ax
00004C46  6300              arpl [bx+si],ax
00004C48  5F                pop di
00004C49  5A                pop dx
00004C4A  386765            cmp [bx+0x65],ah
00004C4D  745F              jz 0x4cae
00004C4F  7061              jo 0x4cb2
00004C51  676550            gs a32 push ax
00004C54  6D                insw
00004C55  6D                insw
00004C56  7400              jz 0x4c58
00004C58  5F                pop di
00004C59  5A                pop dx
00004C5A  3137              xor [bx],si
00004C5C  637265            arpl [bp+si+0x65],si
00004C5F  61                popa
00004C60  7465              jz 0x4cc7
00004C62  5F                pop di
00004C63  64657363          gs jnc 0x4cca
00004C67  7269              jc 0x4cd2
00004C69  7074              jo 0x4cdf
00004C6B  6F                outsw
00004C6C  7269              jc 0x4cd7
00004C6E  6D                insw
00004C6F  6D                insw
00004C70  7400              jz 0x4c72
00004C72  6D                insw
00004C73  656D              gs insw
00004C75  636F70            arpl [bx+0x70],bp
00004C78  7900              jns 0x4c7a
00004C7A  5F                pop di
00004C7B  5A                pop dx
00004C7C  336C6F            xor bp,[si+0x6f]
00004C7F  6750              a32 push ax
00004C81  6300              arpl [bx+si],ax
00004C83  5F                pop di
00004C84  5A                pop dx
00004C85  3134              xor [si],si
00004C87  66625F6D          bound ebx,[bx+0x6d]
00004C8B  6F                outsw
00004C8C  7665              jna 0x4cf3
00004C8E  5F                pop di
00004C8F  637572            arpl [di+0x72],si
00004C92  736F              jnc 0x4d03
00004C94  7274              jc 0x4d0a
00004C96  006669            add [bp+0x69],ah
00004C99  7273              jc 0x4d0e
00004C9B  745F              jz 0x4cfc
00004C9D  7061              jo 0x4d00
00004C9F  67655F            gs a32 pop di
00004CA2  7461              jz 0x4d05
00004CA4  626C65            bound bp,[si+0x65]
00004CA7  005F5A            add [bx+0x5a],bl
00004CAA  3138              xor [bx+si],di
00004CAC  6964745F73        imul sp,[si+0x74],word 0x735f
00004CB1  65745F            gs jz 0x4d13
00004CB4  64657363          gs jnc 0x4d1b
00004CB8  7269              jc 0x4d23
00004CBA  7074              jo 0x4d30
00004CBC  6F                outsw
00004CBD  7268              jc 0x4d27
00004CBF  50                push ax
00004CC0  7668              jna 0x4d2a
00004CC2  005F5A            add [bx+0x5a],bl
00004CC5  37                aaa
00004CC6  6C                insb
00004CC7  6F                outsw
00004CC8  675F              a32 pop di
00004CCA  7477              jz 0x4d43
00004CCC  6F                outsw
00004CCD  6D                insw
00004CCE  005F5A            add [bx+0x5a],bl
00004CD1  3232              xor dh,[bp+si]
00004CD3  7365              jnc 0x4d3a
00004CD5  7269              jc 0x4d40
00004CD7  61                popa
00004CD8  6C                insb
00004CD9  5F                pop di
00004CDA  636F6E            arpl [bx+0x6e],bp
00004CDD  6669677572655F6D  imul esp,[bx+0x75],dword 0x6d5f6572
00004CE5  6F                outsw
00004CE6  64656D            gs insw
00004CE9  7400              jz 0x4ceb
00004CEB  5F                pop di
00004CEC  5F                pop di
00004CED  7838              js 0x4d27
00004CEF  362E6765745F      gs jz 0x4d54
00004CF5  7063              jo 0x4d5a
00004CF7  5F                pop di
00004CF8  7468              jz 0x4d62
00004CFA  756E              jnz 0x4d6a
00004CFC  6B2E617800        imul bp,[0x7861],byte +0x0
00004D01  5F                pop di
00004D02  5A                pop dx
00004D03  31367365          xor [0x6573],si
00004D07  7269              jc 0x4d72
00004D09  61                popa
00004D0A  6C                insb
00004D0B  5F                pop di
00004D0C  636F6E            arpl [bx+0x6e],bp
00004D0F  6669677572657474  imul esp,[bx+0x75],dword 0x74746572
00004D17  005F5A            add [bx+0x5a],bl
00004D1A  3231              xor dh,[bx+di]
00004D1C  7365              jnc 0x4d83
00004D1E  7269              jc 0x4d89
00004D20  61                popa
00004D21  6C                insb
00004D22  5F                pop di
00004D23  636F6E            arpl [bx+0x6e],bp
00004D26  6669677572655F6C  imul esp,[bx+0x75],dword 0x6c5f6572
00004D2E  696E657400        imul bp,[bp+0x65],word 0x74
00004D33  637265            arpl [bp+si+0x65],si
00004D36  61                popa
00004D37  7465              jz 0x4d9e
00004D39  5F                pop di
00004D3A  67647400          fs jz 0x4d3e
00004D3E  5F                pop di
00004D3F  5A                pop dx
00004D40  336C6F            xor bp,[si+0x6f]
00004D43  676D              a32 insw
00004D45  00656E            add [di+0x6e],ah
00004D48  61                popa
00004D49  626C65            bound bp,[si+0x65]
00004D4C  50                push ax
00004D4D  61                popa
00004D4E  67696E670069      imul bp,[esi+0x67],word 0x6900
00004D54  64745F            fs jz 0x4db6
00004D57  696E697400        imul bp,[bp+0x69],word 0x74
00004D5C  5F                pop di
00004D5D  5A                pop dx
00004D5E  4E                dec si
00004D5F  37                aaa
00004D60  7072              jo 0x4dd4
00004D62  6F                outsw
00004D63  636573            arpl [di+0x73],sp
00004D66  7355              jnc 0x4dbd
00004D68  745F              jz 0x4dc9
00004D6A  43                inc bx
00004D6B  314576            xor [di+0x76],ax
00004D6E  005F5A            add [bx+0x5a],bl
00004D71  3239              xor bh,[bx+di]
00004D73  7365              jnc 0x4dda
00004D75  7269              jc 0x4de0
00004D77  61                popa
00004D78  6C                insb
00004D79  5F                pop di
00004D7A  69735F7472        imul si,[bp+di+0x5f],word 0x7274
00004D7F  61                popa
00004D80  6E                outsb
00004D81  736D              jnc 0x4df0
00004D83  69745F6669        imul si,[si+0x5f],word 0x6966
00004D88  666F              outsd
00004D8A  5F                pop di
00004D8B  656D              gs insw
00004D8D  7074              jo 0x4e03
00004D8F  7974              jns 0x4e05
00004D91  007465            add [si+0x65],dh
00004D94  7374              jnc 0x4e0a
00004D96  5F                pop di
00004D97  657863            gs js 0x4dfd
00004D9A  657074            gs jo 0x4e11
00004D9D  696F6E5F68        imul bp,[bx+0x6e],word 0x685f
00004DA2  61                popa
00004DA3  6E                outsb
00004DA4  646C              fs insb
00004DA6  657200            gs jc 0x4da9
00004DA9  756E              jnz 0x4e19
00004DAB  696D706C65        imul bp,[di+0x70],word 0x656c
00004DB0  6D                insw
00004DB1  656E              gs outsb
00004DB3  7465              jz 0x4e1a
00004DB5  645F              fs pop di
00004DB7  696E746572        imul bp,[bp+0x74],word 0x7265
00004DBC  7275              jc 0x4e33
00004DBE  7074              jo 0x4e34
00004DC0  005F5A            add [bx+0x5a],bl
00004DC3  3139              xor [bx+di],di
00004DC5  7365              jnc 0x4e2c
00004DC7  7269              jc 0x4e32
00004DC9  61                popa
00004DCA  6C                insb
00004DCB  5F                pop di
00004DCC  7772              ja 0x4e40
00004DCE  6974655F68        imul si,[si+0x65],word 0x685f
00004DD3  65785F            gs js 0x4e35
00004DD6  3332              xor si,[bp+si]
00004DD8  6D                insw
00004DD9  006C6F            add [si+0x6f],ch
00004DDC  61                popa
00004DDD  6450              fs push ax
00004DDF  61                popa
00004DE0  676544            gs a32 inc sp
00004DE3  6972656374        imul si,[bp+si+0x65],word 0x7463
00004DE8  6F                outsw
00004DE9  7279              jc 0x4e64
00004DEB  005F5A            add [bx+0x5a],bl
00004DEE  3139              xor [bx+di],di
00004DF0  696E69745F        imul bp,[bp+0x69],word 0x5f74
00004DF5  7061              jo 0x4e58
00004DF7  67655F            gs a32 pop di
00004DFA  646972656374      imul si,[fs:bp+si+0x65],word 0x7463
00004E00  6F                outsw
00004E01  7279              jc 0x4e7c
00004E03  50                push ax
00004E04  6D                insw
00004E05  006D65            add [di+0x65],ch
00004E08  6D                insw
00004E09  6F                outsw
00004E0A  7279              jc 0x4e85
00004E0C  5F                pop di
00004E0D  6D                insw
00004E0E  61                popa
00004E0F  7000              jo 0x4e11
00004E11  6B65726E          imul sp,[di+0x72],byte +0x6e
00004E15  656C              gs insb
00004E17  5F                pop di
00004E18  7061              jo 0x4e7b
00004E1A  67655F            gs a32 pop di
00004E1D  646972656374      imul si,[fs:bp+si+0x65],word 0x7463
00004E23  6F                outsw
00004E24  7279              jc 0x4e9f
00004E26  005F5A            add [bx+0x5a],bl
00004E29  4E                dec si
00004E2A  37                aaa
00004E2B  7072              jo 0x4e9f
00004E2D  6F                outsw
00004E2E  636573            arpl [di+0x73],sp
00004E31  7355              jnc 0x4e88
00004E33  745F              jz 0x4e94
00004E35  43                inc bx
00004E36  324576            xor al,[di+0x76]
00004E39  005F5A            add [bx+0x5a],bl
00004E3C  3133              xor [bp+di],si
00004E3E  6765745F          gs jz 0x4ea1
00004E42  667265            o32 jc 0x4eaa
00004E45  655F              gs pop di
00004E47  7061              jo 0x4eaa
00004E49  67657600          gs jna 0x4e4d
00004E4D  5F                pop di
00004E4E  5A                pop dx
00004E4F  3135              xor [di],si
00004E51  696E69745F        imul bp,[bp+0x69],word 0x5f74
00004E56  6D                insw
00004E57  656D              gs insw
00004E59  6F                outsw
00004E5A  7279              jc 0x4ed5
00004E5C  5F                pop di
00004E5D  6D                insw
00004E5E  61                popa
00004E5F  7076              jo 0x4ed7
00004E61  005F5F            add [bx+0x5f],bl
00004E64  7838              js 0x4e9e
00004E66  362E6765745F      gs jz 0x4ecb
00004E6C  7063              jo 0x4ed1
00004E6E  5F                pop di
00004E6F  7468              jz 0x4ed9
00004E71  756E              jnz 0x4ee1
00004E73  6B2E627800        imul bp,[0x7862],byte +0x0
00004E78  6F                outsw
00004E79  7574              jnz 0x4eef
00004E7B  6200              bound ax,[bx+si]
00004E7D  7061              jo 0x4ee0
00004E7F  67655F            gs a32 pop di
00004E82  6661              popad
00004E84  756C              jnz 0x4ef2
00004E86  745F              jz 0x4ee7
00004E88  68616E            push word 0x6e61
00004E8B  646C              fs insb
00004E8D  657200            gs jc 0x4e90
00004E90  5F                pop di
00004E91  5A                pop dx
00004E92  3135              xor [di],si
00004E94  66625F77          bound ebx,[bx+0x77]
00004E98  7269              jc 0x4f03
00004E9A  7465              jz 0x4f01
00004E9C  5F                pop di
00004E9D  686578            push word 0x7865
00004EA0  5F                pop di
00004EA1  3332              xor si,[bp+si]
00004EA3  6D                insw
00004EA4  006764            add [bx+0x64],ah
00004EA7  745F              jz 0x4f08
00004EA9  7074              jo 0x4f1f
00004EAB  7200              jc 0x4ead
00004EAD  63616C            arpl [bx+di+0x6c],sp
00004EB0  6C                insb
00004EB1  5F                pop di
00004EB2  7072              jo 0x4f26
00004EB4  6F                outsw
00004EB5  636573            arpl [di+0x73],sp
00004EB8  7300              jnc 0x4eba
00004EBA  5F                pop di
00004EBB  5A                pop dx
00004EBC  3133              xor [bp+di],si
00004EBE  66625F77          bound ebx,[bx+0x77]
00004EC2  7269              jc 0x4f2d
00004EC4  7465              jz 0x4f2b
00004EC6  5F                pop di
00004EC7  63656C            arpl [di+0x6c],sp
00004ECA  6C                insb
00004ECB  6A63              push byte +0x63
00004ECD  686800            push word 0x68
00004ED0  5F                pop di
00004ED1  5A                pop dx
00004ED2  3137              xor [bx],si
00004ED4  7365              jnc 0x4f3b
00004ED6  7269              jc 0x4f41
00004ED8  61                popa
00004ED9  6C                insb
00004EDA  5F                pop di
00004EDB  7772              ja 0x4f4f
00004EDD  6974655F62        imul si,[si+0x65],word 0x625f
00004EE2  7974              jns 0x4f58
00004EE4  657463            gs jz 0x4f4a
00004EE7  006C6F            add [si+0x6f],ch
00004EEA  61                popa
00004EEB  64657200          gs jc 0x4eef
00004EEF  5F                pop di
00004EF0  5A                pop dx
00004EF1  4E                dec si
00004EF2  37                aaa
00004EF3  7072              jo 0x4f67
00004EF5  6F                outsw
00004EF6  636573            arpl [di+0x73],sp
00004EF9  7343              jnc 0x4f3e
00004EFB  314550            xor [di+0x50],ax
00004EFE  3138              xor [bx+si],di
00004F00  6D                insw
00004F01  756C              jnz 0x4f6f
00004F03  7469              jz 0x4f6e
00004F05  626F6F            bound bp,[bx+0x6f]
00004F08  745F              jz 0x4f69
00004F0A  6D                insw
00004F0B  6F                outsw
00004F0C  645F              fs pop di
00004F0E  6C                insb
00004F0F  697374005F        imul si,[bp+di+0x74],word 0x5f00
00004F14  5A                pop dx
00004F15  4E                dec si
00004F16  37                aaa
00004F17  7072              jo 0x4f8b
00004F19  6F                outsw
00004F1A  636573            arpl [di+0x73],sp
00004F1D  7343              jnc 0x4f62
00004F1F  324550            xor al,[di+0x50]
00004F22  3138              xor [bx+si],di
00004F24  6D                insw
00004F25  756C              jnz 0x4f93
00004F27  7469              jz 0x4f92
00004F29  626F6F            bound bp,[bx+0x6f]
00004F2C  745F              jz 0x4f8d
00004F2E  6D                insw
00004F2F  6F                outsw
00004F30  645F              fs pop di
00004F32  6C                insb
00004F33  697374005F        imul si,[bp+di+0x74],word 0x5f00
00004F38  5A                pop dx
00004F39  3238              xor bh,[bx+si]
00004F3B  7365              jnc 0x4fa2
00004F3D  7269              jc 0x4fa8
00004F3F  61                popa
00004F40  6C                insb
00004F41  5F                pop di
00004F42  636F6E            arpl [bx+0x6e],bp
00004F45  6669677572655F66  imul esp,[bx+0x75],dword 0x665f6572
00004F4D  69666F5F62        imul sp,[bp+0x6f],word 0x625f
00004F52  7566              jnz 0x4fba
00004F54  66657274          gs o32 jc 0x4fcc
00004F58  006973            add [bx+di+0x73],ch
00004F5B  725F              jc 0x4fbc
00004F5D  7374              jnc 0x4fd3
00004F5F  7562              jnz 0x4fc3
00004F61  5F                pop di
00004F62  7461              jz 0x4fc5
00004F64  626C65            bound bp,[si+0x65]
00004F67  005F5A            add [bx+0x5a],bl
00004F6A  386662            cmp [bp+0x62],ah
00004F6D  5F                pop di
00004F6E  7772              ja 0x4fe2
00004F70  6974655063        imul si,[si+0x65],word 0x6350
00004F75  6A68              push byte +0x68
00004F77  68006C            push word 0x6c00
00004F7A  61                popa
00004F7B  7374              jnc 0x4ff1
00004F7D  5F                pop di
00004F7E  706F              jo 0x4fef
00004F80  7369              jnc 0x4feb
00004F82  7469              jz 0x4fed
00004F84  6F                outsw
00004F85  6E                outsb
00004F86  006B6D            add [bp+di+0x6d],ch
00004F89  61                popa
00004F8A  696E005F5A        imul bp,[bp+0x0],word 0x5a5f
00004F8F  3132              xor [bp+si],si
00004F91  7365              jnc 0x4ff8
00004F93  7269              jc 0x4ffe
00004F95  61                popa
00004F96  6C                insb
00004F97  5F                pop di
00004F98  7772              ja 0x500c
00004F9A  6974657450        imul si,[si+0x65],word 0x5074
00004F9F  636A00            arpl [bp+si+0x0],bp
00004FA2  696E69745F        imul bp,[bp+0x69],word 0x5f74
00004FA7  6B65726E          imul sp,[di+0x72],byte +0x6e
00004FAB  656C              gs insb
00004FAD  5F                pop di
00004FAE  7061              jo 0x5011
00004FB0  67696E67005F      imul bp,[esi+0x67],word 0x5f00
00004FB6  5A                pop dx
00004FB7  32367365          xor dh,[0x6573]
00004FBB  7269              jc 0x5026
00004FBD  61                popa
00004FBE  6C                insb
00004FBF  5F                pop di
00004FC0  636F6E            arpl [bx+0x6e],bp
00004FC3  6669677572655F62  imul esp,[bx+0x75],dword 0x625f6572
00004FCB  61                popa
00004FCC  7564              jnz 0x5032
00004FCE  5F                pop di
00004FCF  7261              jc 0x5032
00004FD1  7465              jz 0x5038
00004FD3  7474              jz 0x5049
00004FD5  005F5A            add [bx+0x5a],bl
00004FD8  4E                dec si
00004FD9  37                aaa
00004FDA  7072              jo 0x504e
00004FDC  6F                outsw
00004FDD  636573            arpl [di+0x73],sp
00004FE0  7333              jnc 0x5015
00004FE2  6964734500        imul sp,[si+0x73],word 0x45
00004FE7  002E7379          add [0x7973],ch
00004FEB  6D                insw
00004FEC  7461              jz 0x504f
00004FEE  6200              bound ax,[bx+si]
00004FF0  2E7374            cs jnc 0x5067
00004FF3  7274              jc 0x5069
00004FF5  61                popa
00004FF6  6200              bound ax,[bx+si]
00004FF8  2E7368            cs jnc 0x5063
00004FFB  7374              jnc 0x5071
00004FFD  7274              jc 0x5073
00004FFF  61                popa
00005000  6200              bound ax,[bx+si]
00005002  2E7465            cs jz 0x506a
00005005  7874              js 0x507b
00005007  002E7465          add [0x6574],ch
0000500B  7874              js 0x5081
0000500D  2E5F              cs pop di
0000500F  5F                pop di
00005010  7838              js 0x504a
00005012  362E6765745F      gs jz 0x5077
00005018  7063              jo 0x507d
0000501A  5F                pop di
0000501B  7468              jz 0x5085
0000501D  756E              jnz 0x508d
0000501F  6B2E627800        imul bp,[0x7862],byte +0x0
00005024  2E7465            cs jz 0x508c
00005027  7874              js 0x509d
00005029  2E5F              cs pop di
0000502B  5F                pop di
0000502C  7838              js 0x5066
0000502E  362E6765745F      gs jz 0x5093
00005034  7063              jo 0x5099
00005036  5F                pop di
00005037  7468              jz 0x50a1
00005039  756E              jnz 0x50a9
0000503B  6B2E637800        imul bp,[0x7863],byte +0x0
00005040  2E7465            cs jz 0x50a8
00005043  7874              js 0x50b9
00005045  2E5F              cs pop di
00005047  5A                pop dx
00005048  4E                dec si
00005049  37                aaa
0000504A  7072              jo 0x50be
0000504C  6F                outsw
0000504D  636573            arpl [di+0x73],sp
00005050  7355              jnc 0x50a7
00005052  745F              jz 0x50b3
00005054  43                inc bx
00005055  324576            xor al,[di+0x76]
00005058  002E7465          add [0x6574],ch
0000505C  7874              js 0x50d2
0000505E  2E5F              cs pop di
00005060  5F                pop di
00005061  7838              js 0x509b
00005063  362E6765745F      gs jz 0x50c8
00005069  7063              jo 0x50ce
0000506B  5F                pop di
0000506C  7468              jz 0x50d6
0000506E  756E              jnz 0x50de
00005070  6B2E617800        imul bp,[0x7861],byte +0x0
00005075  2E726F            cs jc 0x50e7
00005078  6461              fs popa
0000507A  7461              jz 0x50dd
0000507C  002E6568          add [0x6865],ch
00005080  5F                pop di
00005081  667261            o32 jc 0x50e5
00005084  6D                insw
00005085  65002E6461        add [gs:0x6164],ch
0000508A  7461              jz 0x50ed
0000508C  002E676F          add [0x6f67],ch
00005090  742E              jz 0x50c0
00005092  706C              jo 0x5100
00005094  7400              jz 0x5096
00005096  2E627373          bound si,[cs:bp+di+0x73]
0000509A  002E636F          add [0x6f63],ch
0000509E  6D                insw
0000509F  6D                insw
000050A0  656E              gs outsb
000050A2  7400              jz 0x50a4
000050A4  0000              add [bx+si],al
000050A6  0000              add [bx+si],al
000050A8  0000              add [bx+si],al
000050AA  0000              add [bx+si],al
000050AC  0000              add [bx+si],al
000050AE  0000              add [bx+si],al
000050B0  0000              add [bx+si],al
000050B2  0000              add [bx+si],al
000050B4  0000              add [bx+si],al
000050B6  0000              add [bx+si],al
000050B8  0000              add [bx+si],al
000050BA  0000              add [bx+si],al
000050BC  0000              add [bx+si],al
000050BE  0000              add [bx+si],al
000050C0  0000              add [bx+si],al
000050C2  0000              add [bx+si],al
000050C4  0000              add [bx+si],al
000050C6  0000              add [bx+si],al
000050C8  0000              add [bx+si],al
000050CA  0000              add [bx+si],al
000050CC  1B00              sbb ax,[bx+si]
000050CE  0000              add [bx+si],al
000050D0  0100              add [bx+si],ax
000050D2  0000              add [bx+si],al
000050D4  06                push es
000050D5  0000              add [bx+si],al
000050D7  0000              add [bx+si],al
000050D9  0010              add [bx+si],dl
000050DB  0000              add [bx+si],al
000050DD  1000              adc [bx+si],al
000050DF  00961000          add [bp+0x10],dl
000050E3  0000              add [bx+si],al
000050E5  0000              add [bx+si],al
000050E7  0000              add [bx+si],al
000050E9  0000              add [bx+si],al
000050EB  0010              add [bx+si],dl
000050ED  0000              add [bx+si],al
000050EF  0000              add [bx+si],al
000050F1  0000              add [bx+si],al
000050F3  0021              add [bx+di],ah
000050F5  0000              add [bx+si],al
000050F7  0001              add [bx+di],al
000050F9  0000              add [bx+si],al
000050FB  00060000          add [0x0],al
000050FF  00961010          add [bp+0x1010],dl
00005103  00962000          add [bp+0x20],dl
00005107  0004              add [si],al
00005109  0000              add [bx+si],al
0000510B  0000              add [bx+si],al
0000510D  0000              add [bx+si],al
0000510F  0000              add [bx+si],al
00005111  0000              add [bx+si],al
00005113  0001              add [bx+di],al
00005115  0000              add [bx+si],al
00005117  0000              add [bx+si],al
00005119  0000              add [bx+si],al
0000511B  003D              add [di],bh
0000511D  0000              add [bx+si],al
0000511F  0001              add [bx+di],al
00005121  0000              add [bx+si],al
00005123  00060000          add [0x0],al
00005127  009A1010          add [bp+si+0x1010],bl
0000512B  009A2000          add [bp+si+0x20],bl
0000512F  0004              add [si],al
00005131  0000              add [bx+si],al
00005133  0000              add [bx+si],al
00005135  0000              add [bx+si],al
00005137  0000              add [bx+si],al
00005139  0000              add [bx+si],al
0000513B  0001              add [bx+di],al
0000513D  0000              add [bx+si],al
0000513F  0000              add [bx+si],al
00005141  0000              add [bx+si],al
00005143  005900            add [bx+di+0x0],bl
00005146  0000              add [bx+si],al
00005148  0100              add [bx+si],ax
0000514A  0000              add [bx+si],al
0000514C  06                push es
0000514D  0000              add [bx+si],al
0000514F  009E1010          add [bp+0x1010],bl
00005153  009E2000          add [bp+0x20],bl
00005157  0019              add [bx+di],bl
00005159  0000              add [bx+si],al
0000515B  0000              add [bx+si],al
0000515D  0000              add [bx+si],al
0000515F  0000              add [bx+si],al
00005161  0000              add [bx+si],al
00005163  0002              add [bp+si],al
00005165  0000              add [bx+si],al
00005167  0000              add [bx+si],al
00005169  0000              add [bx+si],al
0000516B  007200            add [bp+si+0x0],dh
0000516E  0000              add [bx+si],al
00005170  0100              add [bx+si],ax
00005172  0000              add [bx+si],al
00005174  06                push es
00005175  0000              add [bx+si],al
00005177  00B71010          add [bx+0x1010],dh
0000517B  00B72000          add [bx+0x20],dh
0000517F  0004              add [si],al
00005181  0000              add [bx+si],al
00005183  0000              add [bx+si],al
00005185  0000              add [bx+si],al
00005187  0000              add [bx+si],al
00005189  0000              add [bx+si],al
0000518B  0001              add [bx+di],al
0000518D  0000              add [bx+si],al
0000518F  0000              add [bx+si],al
00005191  0000              add [bx+si],al
00005193  008E0000          add [bp+0x0],cl
00005197  0001              add [bx+di],al
00005199  0000              add [bx+si],al
0000519B  0002              add [bp+si],al
0000519D  0000              add [bx+si],al
0000519F  0000              add [bx+si],al
000051A1  2010              and [bx+si],dl
000051A3  0000              add [bx+si],al
000051A5  3000              xor [bx+si],al
000051A7  000C              add [si],cl
000051A9  0000              add [bx+si],al
000051AB  0000              add [bx+si],al
000051AD  0000              add [bx+si],al
000051AF  0000              add [bx+si],al
000051B1  0000              add [bx+si],al
000051B3  0004              add [si],al
000051B5  0000              add [bx+si],al
000051B7  0000              add [bx+si],al
000051B9  0000              add [bx+si],al
000051BB  00960000          add [bp+0x0],dl
000051BF  0001              add [bx+di],al
000051C1  0000              add [bx+si],al
000051C3  0002              add [bp+si],al
000051C5  0000              add [bx+si],al
000051C7  000C              add [si],cl
000051C9  2010              and [bx+si],dl
000051CB  000C              add [si],cl
000051CD  3000              xor [bx+si],al
000051CF  00F0              add al,dh
000051D1  0400              add al,0x0
000051D3  0000              add [bx+si],al
000051D5  0000              add [bx+si],al
000051D7  0000              add [bx+si],al
000051D9  0000              add [bx+si],al
000051DB  0004              add [si],al
000051DD  0000              add [bx+si],al
000051DF  0000              add [bx+si],al
000051E1  0000              add [bx+si],al
000051E3  00A00000          add [bx+si+0x0],ah
000051E7  0001              add [bx+di],al
000051E9  0000              add [bx+si],al
000051EB  0003              add [bp+di],al
000051ED  0000              add [bx+si],al
000051EF  0000              add [bx+si],al
000051F1  3010              xor [bx+si],dl
000051F3  0000              add [bx+si],al
000051F5  40                inc ax
000051F6  0000              add [bx+si],al
000051F8  8800              mov [bx+si],al
000051FA  0000              add [bx+si],al
000051FC  0000              add [bx+si],al
000051FE  0000              add [bx+si],al
00005200  0000              add [bx+si],al
00005202  0000              add [bx+si],al
00005204  0400              add al,0x0
00005206  0000              add [bx+si],al
00005208  0000              add [bx+si],al
0000520A  0000              add [bx+si],al
0000520C  A6                cmpsb
0000520D  0000              add [bx+si],al
0000520F  0001              add [bx+di],al
00005211  0000              add [bx+si],al
00005213  0003              add [bp+di],al
00005215  0000              add [bx+si],al
00005217  00883010          add [bx+si+0x1030],cl
0000521B  00884000          add [bx+si+0x40],cl
0000521F  000C              add [si],cl
00005221  0000              add [bx+si],al
00005223  0000              add [bx+si],al
00005225  0000              add [bx+si],al
00005227  0000              add [bx+si],al
00005229  0000              add [bx+si],al
0000522B  0004              add [si],al
0000522D  0000              add [bx+si],al
0000522F  0004              add [si],al
00005231  0000              add [bx+si],al
00005233  00AF0000          add [bx+0x0],ch
00005237  0008              add [bx+si],cl
00005239  0000              add [bx+si],al
0000523B  0003              add [bp+di],al
0000523D  0000              add [bx+si],al
0000523F  0000              add [bx+si],al
00005241  40                inc ax
00005242  1000              adc [bx+si],al
00005244  94                xchg ax,sp
00005245  40                inc ax
00005246  0000              add [bx+si],al
00005248  0440              add al,0x40
0000524A  0200              add al,[bx+si]
0000524C  0000              add [bx+si],al
0000524E  0000              add [bx+si],al
00005250  0000              add [bx+si],al
00005252  0000              add [bx+si],al
00005254  0010              add [bx+si],dl
00005256  0000              add [bx+si],al
00005258  0000              add [bx+si],al
0000525A  0000              add [bx+si],al
0000525C  B400              mov ah,0x0
0000525E  0000              add [bx+si],al
00005260  0100              add [bx+si],ax
00005262  0000              add [bx+si],al
00005264  3000              xor [bx+si],al
00005266  0000              add [bx+si],al
00005268  0000              add [bx+si],al
0000526A  0000              add [bx+si],al
0000526C  94                xchg ax,sp
0000526D  40                inc ax
0000526E  0000              add [bx+si],al
00005270  1B00              sbb ax,[bx+si]
00005272  0000              add [bx+si],al
00005274  0000              add [bx+si],al
00005276  0000              add [bx+si],al
00005278  0000              add [bx+si],al
0000527A  0000              add [bx+si],al
0000527C  0100              add [bx+si],ax
0000527E  0000              add [bx+si],al
00005280  0100              add [bx+si],ax
00005282  0000              add [bx+si],al
00005284  0100              add [bx+si],ax
00005286  0000              add [bx+si],al
00005288  0200              add al,[bx+si]
0000528A  0000              add [bx+si],al
0000528C  0000              add [bx+si],al
0000528E  0000              add [bx+si],al
00005290  0000              add [bx+si],al
00005292  0000              add [bx+si],al
00005294  B040              mov al,0x40
00005296  0000              add [bx+si],al
00005298  C00700            rol byte [bx],byte 0x0
0000529B  000D              add [di],cl
0000529D  0000              add [bx+si],al
0000529F  004700            add [bx+0x0],al
000052A2  0000              add [bx+si],al
000052A4  0400              add al,0x0
000052A6  0000              add [bx+si],al
000052A8  1000              adc [bx+si],al
000052AA  0000              add [bx+si],al
000052AC  0900              or [bx+si],ax
000052AE  0000              add [bx+si],al
000052B0  0300              add ax,[bx+si]
000052B2  0000              add [bx+si],al
000052B4  0000              add [bx+si],al
000052B6  0000              add [bx+si],al
000052B8  0000              add [bx+si],al
000052BA  0000              add [bx+si],al
000052BC  7048              jo 0x5306
000052BE  0000              add [bx+si],al
000052C0  7707              ja 0x52c9
000052C2  0000              add [bx+si],al
000052C4  0000              add [bx+si],al
000052C6  0000              add [bx+si],al
000052C8  0000              add [bx+si],al
000052CA  0000              add [bx+si],al
000052CC  0100              add [bx+si],ax
000052CE  0000              add [bx+si],al
000052D0  0000              add [bx+si],al
000052D2  0000              add [bx+si],al
000052D4  1100              adc [bx+si],ax
000052D6  0000              add [bx+si],al
000052D8  0300              add ax,[bx+si]
000052DA  0000              add [bx+si],al
000052DC  0000              add [bx+si],al
000052DE  0000              add [bx+si],al
000052E0  0000              add [bx+si],al
000052E2  0000              add [bx+si],al
000052E4  E74F              out 0x4f,ax
000052E6  0000              add [bx+si],al
000052E8  BD0000            mov bp,0x0
000052EB  0000              add [bx+si],al
000052ED  0000              add [bx+si],al
000052EF  0000              add [bx+si],al
000052F1  0000              add [bx+si],al
000052F3  0001              add [bx+di],al
000052F5  0000              add [bx+si],al
000052F7  0000              add [bx+si],al
000052F9  0000              add [bx+si],al
000052FB  00                db 0x00
